SF:/mnt/f/Node/hivellm/nexus/nexus-core/src/catalog/mod.rs
FN:129,_RINvMs_NtCs4yQ6d7adrZY_10nexus_core7catalogNtB5_7Catalog3newNtNtCslLCvXJZBaqX_3std4path7PathBufEB7_
FN:129,_RINvMs_NtCs4yQ6d7adrZY_10nexus_core7catalogNtB5_7Catalog3newReEB7_
FN:176,_RNCINvMs_NtCs4yQ6d7adrZY_10nexus_core7catalogNtB7_7Catalog3newNtNtCslLCvXJZBaqX_3std4path7PathBufE0B9_
FN:185,_RNCINvMs_NtCs4yQ6d7adrZY_10nexus_core7catalogNtB7_7Catalog3newNtNtCslLCvXJZBaqX_3std4path7PathBufEs0_0B9_
FN:189,_RNCINvMs_NtCs4yQ6d7adrZY_10nexus_core7catalogNtB7_7Catalog3newNtNtCslLCvXJZBaqX_3std4path7PathBufEs1_0B9_
FN:194,_RNCINvMs_NtCs4yQ6d7adrZY_10nexus_core7catalogNtB7_7Catalog3newNtNtCslLCvXJZBaqX_3std4path7PathBufEs2_0B9_
FN:198,_RNCINvMs_NtCs4yQ6d7adrZY_10nexus_core7catalogNtB7_7Catalog3newNtNtCslLCvXJZBaqX_3std4path7PathBufEs3_0B9_
FN:180,_RNCINvMs_NtCs4yQ6d7adrZY_10nexus_core7catalogNtB7_7Catalog3newNtNtCslLCvXJZBaqX_3std4path7PathBufEs_0B9_
FN:176,_RNCINvMs_NtCs4yQ6d7adrZY_10nexus_core7catalogNtB7_7Catalog3newReE0B9_
FN:185,_RNCINvMs_NtCs4yQ6d7adrZY_10nexus_core7catalogNtB7_7Catalog3newReEs0_0B9_
FN:189,_RNCINvMs_NtCs4yQ6d7adrZY_10nexus_core7catalogNtB7_7Catalog3newReEs1_0B9_
FN:194,_RNCINvMs_NtCs4yQ6d7adrZY_10nexus_core7catalogNtB7_7Catalog3newReEs2_0B9_
FN:198,_RNCINvMs_NtCs4yQ6d7adrZY_10nexus_core7catalogNtB7_7Catalog3newReEs3_0B9_
FN:180,_RNCINvMs_NtCs4yQ6d7adrZY_10nexus_core7catalogNtB7_7Catalog3newReEs_0B9_
FN:355,_RNCNvMs_NtCs4yQ6d7adrZY_10nexus_core7catalogNtB6_7Catalog12get_key_name0B8_
FN:363,_RNCNvMs_NtCs4yQ6d7adrZY_10nexus_core7catalogNtB6_7Catalog12get_metadata0B8_
FN:313,_RNCNvMs_NtCs4yQ6d7adrZY_10nexus_core7catalogNtB6_7Catalog13get_type_name0B8_
FN:271,_RNCNvMs_NtCs4yQ6d7adrZY_10nexus_core7catalogNtB6_7Catalog14get_label_name0B8_
FN:379,_RNCNvMs_NtCs4yQ6d7adrZY_10nexus_core7catalogNtB6_7Catalog14get_statistics0B8_
FN:448,_RNvMs_NtCs4yQ6d7adrZY_10nexus_core7catalogNtB4_7Catalog11label_count
FN:353,_RNvMs_NtCs4yQ6d7adrZY_10nexus_core7catalogNtB4_7Catalog12get_key_name
FN:359,_RNvMs_NtCs4yQ6d7adrZY_10nexus_core7catalogNtB4_7Catalog12get_metadata
FN:429,_RNvMs_NtCs4yQ6d7adrZY_10nexus_core7catalogNtB4_7Catalog12health_check
FN:311,_RNvMs_NtCs4yQ6d7adrZY_10nexus_core7catalogNtB4_7Catalog13get_type_name
FN:266,_RNvMs_NtCs4yQ6d7adrZY_10nexus_core7catalogNtB4_7Catalog14get_label_name
FN:375,_RNvMs_NtCs4yQ6d7adrZY_10nexus_core7catalogNtB4_7Catalog14get_statistics
FN:454,_RNvMs_NtCs4yQ6d7adrZY_10nexus_core7catalogNtB4_7Catalog14rel_type_count
FN:367,_RNvMs_NtCs4yQ6d7adrZY_10nexus_core7catalogNtB4_7Catalog15update_metadata
FN:319,_RNvMs_NtCs4yQ6d7adrZY_10nexus_core7catalogNtB4_7Catalog17get_or_create_key
FN:383,_RNvMs_NtCs4yQ6d7adrZY_10nexus_core7catalogNtB4_7Catalog17update_statistics
FN:277,_RNvMs_NtCs4yQ6d7adrZY_10nexus_core7catalogNtB4_7Catalog18get_or_create_type
FN:414,_RNvMs_NtCs4yQ6d7adrZY_10nexus_core7catalogNtB4_7Catalog19decrement_rel_count
FN:232,_RNvMs_NtCs4yQ6d7adrZY_10nexus_core7catalogNtB4_7Catalog19get_or_create_label
FN:407,_RNvMs_NtCs4yQ6d7adrZY_10nexus_core7catalogNtB4_7Catalog19increment_rel_count
FN:398,_RNvMs_NtCs4yQ6d7adrZY_10nexus_core7catalogNtB4_7Catalog20decrement_node_count
FN:391,_RNvMs_NtCs4yQ6d7adrZY_10nexus_core7catalogNtB4_7Catalog20increment_node_count
FN:423,_RNvMs_NtCs4yQ6d7adrZY_10nexus_core7catalogNtB4_7Catalog4sync
FN:67,_RNvXNtCs4yQ6d7adrZY_10nexus_core7catalogNtB2_15CatalogMetadataNtNtCs9Kp62OsN3pY_4core7default7Default7default
FN:461,_RNvXs0_NtCs4yQ6d7adrZY_10nexus_core7catalogNtB5_7CatalogNtNtCs9Kp62OsN3pY_4core7default7Default7default
FN:448,_RNvMs_NtCs7bzfDg8Kx2o_10nexus_core7catalogNtB4_7Catalog11label_count
FN:353,_RNvMs_NtCs7bzfDg8Kx2o_10nexus_core7catalogNtB4_7Catalog12get_key_name
FN:359,_RNvMs_NtCs7bzfDg8Kx2o_10nexus_core7catalogNtB4_7Catalog12get_metadata
FN:429,_RNvMs_NtCs7bzfDg8Kx2o_10nexus_core7catalogNtB4_7Catalog12health_check
FN:311,_RNvMs_NtCs7bzfDg8Kx2o_10nexus_core7catalogNtB4_7Catalog13get_type_name
FN:266,_RNvMs_NtCs7bzfDg8Kx2o_10nexus_core7catalogNtB4_7Catalog14get_label_name
FN:375,_RNvMs_NtCs7bzfDg8Kx2o_10nexus_core7catalogNtB4_7Catalog14get_statistics
FN:454,_RNvMs_NtCs7bzfDg8Kx2o_10nexus_core7catalogNtB4_7Catalog14rel_type_count
FN:367,_RNvMs_NtCs7bzfDg8Kx2o_10nexus_core7catalogNtB4_7Catalog15update_metadata
FN:319,_RNvMs_NtCs7bzfDg8Kx2o_10nexus_core7catalogNtB4_7Catalog17get_or_create_key
FN:383,_RNvMs_NtCs7bzfDg8Kx2o_10nexus_core7catalogNtB4_7Catalog17update_statistics
FN:277,_RNvMs_NtCs7bzfDg8Kx2o_10nexus_core7catalogNtB4_7Catalog18get_or_create_type
FN:414,_RNvMs_NtCs7bzfDg8Kx2o_10nexus_core7catalogNtB4_7Catalog19decrement_rel_count
FN:232,_RNvMs_NtCs7bzfDg8Kx2o_10nexus_core7catalogNtB4_7Catalog19get_or_create_label
FN:407,_RNvMs_NtCs7bzfDg8Kx2o_10nexus_core7catalogNtB4_7Catalog19increment_rel_count
FN:398,_RNvMs_NtCs7bzfDg8Kx2o_10nexus_core7catalogNtB4_7Catalog20decrement_node_count
FN:391,_RNvMs_NtCs7bzfDg8Kx2o_10nexus_core7catalogNtB4_7Catalog20increment_node_count
FN:423,_RNvMs_NtCs7bzfDg8Kx2o_10nexus_core7catalogNtB4_7Catalog4sync
FN:67,_RNvXNtCs7bzfDg8Kx2o_10nexus_core7catalogNtB2_15CatalogMetadataNtNtCs9Kp62OsN3pY_4core7default7Default7default
FN:461,_RNvXs0_NtCs7bzfDg8Kx2o_10nexus_core7catalogNtB5_7CatalogNtNtCs9Kp62OsN3pY_4core7default7Default7default
FN:471,_RNvNtNtCs7bzfDg8Kx2o_10nexus_core7catalog5tests19create_test_catalog
FN:553,_RNvNtNtCs7bzfDg8Kx2o_10nexus_core7catalog5testss_16test_persistence
FN:523,_RNvNtNtCs7bzfDg8Kx2o_10nexus_core7catalog5testss_17test_key_creation
FN:510,_RNvNtNtCs7bzfDg8Kx2o_10nexus_core7catalog5testss_18test_type_creation
FN:486,_RNvNtNtCs7bzfDg8Kx2o_10nexus_core7catalog5testss_19test_label_creation
FN:788,_RNvNtNtCs7bzfDg8Kx2o_10nexus_core7catalog5testss_19test_sync_operation
FN:619,_RNvNtNtCs7bzfDg8Kx2o_10nexus_core7catalog5testss_20test_key_name_lookup
FN:653,_RNvNtNtCs7bzfDg8Kx2o_10nexus_core7catalog5testss_20test_metadata_update
FN:478,_RNvNtNtCs7bzfDg8Kx2o_10nexus_core7catalog5testss_21test_catalog_creation
FN:879,_RNvNtNtCs7bzfDg8Kx2o_10nexus_core7catalog5testss_21test_mixed_operations
FN:609,_RNvNtNtCs7bzfDg8Kx2o_10nexus_core7catalog5testss_21test_type_name_lookup
FN:577,_RNvNtNtCs7bzfDg8Kx2o_10nexus_core7catalog5testss_22test_concurrent_access
FN:697,_RNvNtNtCs7bzfDg8Kx2o_10nexus_core7catalog5testss_22test_decrement_to_zero
FN:500,_RNvNtNtCs7bzfDg8Kx2o_10nexus_core7catalog5testss_22test_label_name_lookup
FN:536,_RNvNtNtCs7bzfDg8Kx2o_10nexus_core7catalog5testss_22test_statistics_update
FN:667,_RNvNtNtCs7bzfDg8Kx2o_10nexus_core7catalog5testss_23test_rel_count_tracking
FN:925,_RNvNtNtCs7bzfDg8Kx2o_10nexus_core7catalog5testss_24test_multiple_increments
FN:908,_RNvNtNtCs7bzfDg8Kx2o_10nexus_core7catalog5testss_25test_saturating_decrement
FN:645,_RNvNtNtCs7bzfDg8Kx2o_10nexus_core7catalog5testss_27test_nonexistent_key_lookup
FN:811,_RNvNtNtCs7bzfDg8Kx2o_10nexus_core7catalog5testss_28test_metadata_initialization
FN:637,_RNvNtNtCs7bzfDg8Kx2o_10nexus_core7catalog5testss_28test_nonexistent_type_lookup
FN:629,_RNvNtNtCs7bzfDg8Kx2o_10nexus_core7catalog5testss_29test_nonexistent_label_lookup
FN:744,_RNvNtNtCs7bzfDg8Kx2o_10nexus_core7catalog5testss_30test_concurrent_types_and_keys
FN:714,_RNvNtNtCs7bzfDg8Kx2o_10nexus_core7catalog5testss_30test_multiple_labels_and_types
FN:821,_RNvNtNtCs7bzfDg8Kx2o_10nexus_core7catalog5testss_30test_reopen_with_existing_data
FN:799,_RNvNtNtCs7bzfDg8Kx2o_10nexus_core7catalog5testss_30test_statistics_initialization
FN:856,_RNvNtNtCs7bzfDg8Kx2o_10nexus_core7catalog5testss_31test_concurrent_label_same_name
FN:685,_RNvNtNtCs7bzfDg8Kx2o_10nexus_core7catalog5testss_32test_decrement_nonexistent_count
FN:589,_RNCNvNtNtCs7bzfDg8Kx2o_10nexus_core7catalog5testss_22test_concurrent_access0B7_
FN:756,_RNCNvNtNtCs7bzfDg8Kx2o_10nexus_core7catalog5testss_30test_concurrent_types_and_keys0B7_
FN:766,_RNCNvNtNtCs7bzfDg8Kx2o_10nexus_core7catalog5testss_30test_concurrent_types_and_keyss_0B7_
FN:868,_RNCNvNtNtCs7bzfDg8Kx2o_10nexus_core7catalog5testss_31test_concurrent_label_same_name0B7_
FN:875,_RNCNvNtNtCs7bzfDg8Kx2o_10nexus_core7catalog5testss_31test_concurrent_label_same_names0_0B7_
FN:872,_RNCNvNtNtCs7bzfDg8Kx2o_10nexus_core7catalog5testss_31test_concurrent_label_same_names_0B7_
FN:129,_RINvMs_NtCs7bzfDg8Kx2o_10nexus_core7catalogNtB5_7Catalog3newNtNtCsN2eBOe4RBj_8tempfile3dir7TempDirEB7_
FN:129,_RINvMs_NtCs7bzfDg8Kx2o_10nexus_core7catalogNtB5_7Catalog3newNtNtCslLCvXJZBaqX_3std4path7PathBufEB7_
FN:129,_RINvMs_NtCs7bzfDg8Kx2o_10nexus_core7catalogNtB5_7Catalog3newRNtNtCslLCvXJZBaqX_3std4path4PathEB7_
FN:129,_RINvMs_NtCs7bzfDg8Kx2o_10nexus_core7catalogNtB5_7Catalog3newRNtNtCslLCvXJZBaqX_3std4path7PathBufEB7_
FN:129,_RINvMs_NtCs7bzfDg8Kx2o_10nexus_core7catalogNtB5_7Catalog3newReEB7_
FN:176,_RNCINvMs_NtCs7bzfDg8Kx2o_10nexus_core7catalogNtB7_7Catalog3newNtNtCsN2eBOe4RBj_8tempfile3dir7TempDirE0B9_
FN:185,_RNCINvMs_NtCs7bzfDg8Kx2o_10nexus_core7catalogNtB7_7Catalog3newNtNtCsN2eBOe4RBj_8tempfile3dir7TempDirEs0_0B9_
FN:189,_RNCINvMs_NtCs7bzfDg8Kx2o_10nexus_core7catalogNtB7_7Catalog3newNtNtCsN2eBOe4RBj_8tempfile3dir7TempDirEs1_0B9_
FN:194,_RNCINvMs_NtCs7bzfDg8Kx2o_10nexus_core7catalogNtB7_7Catalog3newNtNtCsN2eBOe4RBj_8tempfile3dir7TempDirEs2_0B9_
FN:198,_RNCINvMs_NtCs7bzfDg8Kx2o_10nexus_core7catalogNtB7_7Catalog3newNtNtCsN2eBOe4RBj_8tempfile3dir7TempDirEs3_0B9_
FN:180,_RNCINvMs_NtCs7bzfDg8Kx2o_10nexus_core7catalogNtB7_7Catalog3newNtNtCsN2eBOe4RBj_8tempfile3dir7TempDirEs_0B9_
FN:176,_RNCINvMs_NtCs7bzfDg8Kx2o_10nexus_core7catalogNtB7_7Catalog3newNtNtCslLCvXJZBaqX_3std4path7PathBufE0B9_
FN:185,_RNCINvMs_NtCs7bzfDg8Kx2o_10nexus_core7catalogNtB7_7Catalog3newNtNtCslLCvXJZBaqX_3std4path7PathBufEs0_0B9_
FN:189,_RNCINvMs_NtCs7bzfDg8Kx2o_10nexus_core7catalogNtB7_7Catalog3newNtNtCslLCvXJZBaqX_3std4path7PathBufEs1_0B9_
FN:194,_RNCINvMs_NtCs7bzfDg8Kx2o_10nexus_core7catalogNtB7_7Catalog3newNtNtCslLCvXJZBaqX_3std4path7PathBufEs2_0B9_
FN:198,_RNCINvMs_NtCs7bzfDg8Kx2o_10nexus_core7catalogNtB7_7Catalog3newNtNtCslLCvXJZBaqX_3std4path7PathBufEs3_0B9_
FN:180,_RNCINvMs_NtCs7bzfDg8Kx2o_10nexus_core7catalogNtB7_7Catalog3newNtNtCslLCvXJZBaqX_3std4path7PathBufEs_0B9_
FN:176,_RNCINvMs_NtCs7bzfDg8Kx2o_10nexus_core7catalogNtB7_7Catalog3newRNtNtCslLCvXJZBaqX_3std4path4PathE0B9_
FN:185,_RNCINvMs_NtCs7bzfDg8Kx2o_10nexus_core7catalogNtB7_7Catalog3newRNtNtCslLCvXJZBaqX_3std4path4PathEs0_0B9_
FN:189,_RNCINvMs_NtCs7bzfDg8Kx2o_10nexus_core7catalogNtB7_7Catalog3newRNtNtCslLCvXJZBaqX_3std4path4PathEs1_0B9_
FN:194,_RNCINvMs_NtCs7bzfDg8Kx2o_10nexus_core7catalogNtB7_7Catalog3newRNtNtCslLCvXJZBaqX_3std4path4PathEs2_0B9_
FN:198,_RNCINvMs_NtCs7bzfDg8Kx2o_10nexus_core7catalogNtB7_7Catalog3newRNtNtCslLCvXJZBaqX_3std4path4PathEs3_0B9_
FN:180,_RNCINvMs_NtCs7bzfDg8Kx2o_10nexus_core7catalogNtB7_7Catalog3newRNtNtCslLCvXJZBaqX_3std4path4PathEs_0B9_
FN:176,_RNCINvMs_NtCs7bzfDg8Kx2o_10nexus_core7catalogNtB7_7Catalog3newRNtNtCslLCvXJZBaqX_3std4path7PathBufE0B9_
FN:185,_RNCINvMs_NtCs7bzfDg8Kx2o_10nexus_core7catalogNtB7_7Catalog3newRNtNtCslLCvXJZBaqX_3std4path7PathBufEs0_0B9_
FN:189,_RNCINvMs_NtCs7bzfDg8Kx2o_10nexus_core7catalogNtB7_7Catalog3newRNtNtCslLCvXJZBaqX_3std4path7PathBufEs1_0B9_
FN:194,_RNCINvMs_NtCs7bzfDg8Kx2o_10nexus_core7catalogNtB7_7Catalog3newRNtNtCslLCvXJZBaqX_3std4path7PathBufEs2_0B9_
FN:198,_RNCINvMs_NtCs7bzfDg8Kx2o_10nexus_core7catalogNtB7_7Catalog3newRNtNtCslLCvXJZBaqX_3std4path7PathBufEs3_0B9_
FN:180,_RNCINvMs_NtCs7bzfDg8Kx2o_10nexus_core7catalogNtB7_7Catalog3newRNtNtCslLCvXJZBaqX_3std4path7PathBufEs_0B9_
FN:176,_RNCINvMs_NtCs7bzfDg8Kx2o_10nexus_core7catalogNtB7_7Catalog3newReE0B9_
FN:185,_RNCINvMs_NtCs7bzfDg8Kx2o_10nexus_core7catalogNtB7_7Catalog3newReEs0_0B9_
FN:189,_RNCINvMs_NtCs7bzfDg8Kx2o_10nexus_core7catalogNtB7_7Catalog3newReEs1_0B9_
FN:194,_RNCINvMs_NtCs7bzfDg8Kx2o_10nexus_core7catalogNtB7_7Catalog3newReEs2_0B9_
FN:198,_RNCINvMs_NtCs7bzfDg8Kx2o_10nexus_core7catalogNtB7_7Catalog3newReEs3_0B9_
FN:180,_RNCINvMs_NtCs7bzfDg8Kx2o_10nexus_core7catalogNtB7_7Catalog3newReEs_0B9_
FN:355,_RNCNvMs_NtCs7bzfDg8Kx2o_10nexus_core7catalogNtB6_7Catalog12get_key_name0B8_
FN:363,_RNCNvMs_NtCs7bzfDg8Kx2o_10nexus_core7catalogNtB6_7Catalog12get_metadata0B8_
FN:313,_RNCNvMs_NtCs7bzfDg8Kx2o_10nexus_core7catalogNtB6_7Catalog13get_type_name0B8_
FN:271,_RNCNvMs_NtCs7bzfDg8Kx2o_10nexus_core7catalogNtB6_7Catalog14get_label_name0B8_
FN:379,_RNCNvMs_NtCs7bzfDg8Kx2o_10nexus_core7catalogNtB6_7Catalog14get_statistics0B8_
FN:129,_RINvMs_NtCs4yQ6d7adrZY_10nexus_core7catalogNtB5_7Catalog3newNtNtCsN2eBOe4RBj_8tempfile3dir7TempDirECshee7arPIBgA_12nexus_server
FN:176,_RNCINvMs_NtCs4yQ6d7adrZY_10nexus_core7catalogNtB7_7Catalog3newNtNtCsN2eBOe4RBj_8tempfile3dir7TempDirE0Cshee7arPIBgA_12nexus_server
FN:185,_RNCINvMs_NtCs4yQ6d7adrZY_10nexus_core7catalogNtB7_7Catalog3newNtNtCsN2eBOe4RBj_8tempfile3dir7TempDirEs0_0Cshee7arPIBgA_12nexus_server
FN:189,_RNCINvMs_NtCs4yQ6d7adrZY_10nexus_core7catalogNtB7_7Catalog3newNtNtCsN2eBOe4RBj_8tempfile3dir7TempDirEs1_0Cshee7arPIBgA_12nexus_server
FN:194,_RNCINvMs_NtCs4yQ6d7adrZY_10nexus_core7catalogNtB7_7Catalog3newNtNtCsN2eBOe4RBj_8tempfile3dir7TempDirEs2_0Cshee7arPIBgA_12nexus_server
FN:198,_RNCINvMs_NtCs4yQ6d7adrZY_10nexus_core7catalogNtB7_7Catalog3newNtNtCsN2eBOe4RBj_8tempfile3dir7TempDirEs3_0Cshee7arPIBgA_12nexus_server
FN:180,_RNCINvMs_NtCs4yQ6d7adrZY_10nexus_core7catalogNtB7_7Catalog3newNtNtCsN2eBOe4RBj_8tempfile3dir7TempDirEs_0Cshee7arPIBgA_12nexus_server
FN:129,_RINvMs_NtCs4yQ6d7adrZY_10nexus_core7catalogNtB5_7Catalog3newNtNtCsN2eBOe4RBj_8tempfile3dir7TempDirECsdrhdX8z4AKz_12nexus_server
FN:176,_RNCINvMs_NtCs4yQ6d7adrZY_10nexus_core7catalogNtB7_7Catalog3newNtNtCsN2eBOe4RBj_8tempfile3dir7TempDirE0CsdrhdX8z4AKz_12nexus_server
FN:185,_RNCINvMs_NtCs4yQ6d7adrZY_10nexus_core7catalogNtB7_7Catalog3newNtNtCsN2eBOe4RBj_8tempfile3dir7TempDirEs0_0CsdrhdX8z4AKz_12nexus_server
FN:189,_RNCINvMs_NtCs4yQ6d7adrZY_10nexus_core7catalogNtB7_7Catalog3newNtNtCsN2eBOe4RBj_8tempfile3dir7TempDirEs1_0CsdrhdX8z4AKz_12nexus_server
FN:194,_RNCINvMs_NtCs4yQ6d7adrZY_10nexus_core7catalogNtB7_7Catalog3newNtNtCsN2eBOe4RBj_8tempfile3dir7TempDirEs2_0CsdrhdX8z4AKz_12nexus_server
FN:198,_RNCINvMs_NtCs4yQ6d7adrZY_10nexus_core7catalogNtB7_7Catalog3newNtNtCsN2eBOe4RBj_8tempfile3dir7TempDirEs3_0CsdrhdX8z4AKz_12nexus_server
FN:180,_RNCINvMs_NtCs4yQ6d7adrZY_10nexus_core7catalogNtB7_7Catalog3newNtNtCsN2eBOe4RBj_8tempfile3dir7TempDirEs_0CsdrhdX8z4AKz_12nexus_server
FNDA:27,_RINvMs_NtCs4yQ6d7adrZY_10nexus_core7catalogNtB5_7Catalog3newNtNtCslLCvXJZBaqX_3std4path7PathBufEB7_
FNDA:24,_RINvMs_NtCs4yQ6d7adrZY_10nexus_core7catalogNtB5_7Catalog3newReEB7_
FNDA:0,_RNCINvMs_NtCs4yQ6d7adrZY_10nexus_core7catalogNtB7_7Catalog3newNtNtCslLCvXJZBaqX_3std4path7PathBufE0B9_
FNDA:0,_RNCINvMs_NtCs4yQ6d7adrZY_10nexus_core7catalogNtB7_7Catalog3newNtNtCslLCvXJZBaqX_3std4path7PathBufEs0_0B9_
FNDA:0,_RNCINvMs_NtCs4yQ6d7adrZY_10nexus_core7catalogNtB7_7Catalog3newNtNtCslLCvXJZBaqX_3std4path7PathBufEs1_0B9_
FNDA:0,_RNCINvMs_NtCs4yQ6d7adrZY_10nexus_core7catalogNtB7_7Catalog3newNtNtCslLCvXJZBaqX_3std4path7PathBufEs2_0B9_
FNDA:0,_RNCINvMs_NtCs4yQ6d7adrZY_10nexus_core7catalogNtB7_7Catalog3newNtNtCslLCvXJZBaqX_3std4path7PathBufEs3_0B9_
FNDA:0,_RNCINvMs_NtCs4yQ6d7adrZY_10nexus_core7catalogNtB7_7Catalog3newNtNtCslLCvXJZBaqX_3std4path7PathBufEs_0B9_
FNDA:72,_RNCINvMs_NtCs4yQ6d7adrZY_10nexus_core7catalogNtB7_7Catalog3newReE0B9_
FNDA:48,_RNCINvMs_NtCs4yQ6d7adrZY_10nexus_core7catalogNtB7_7Catalog3newReEs0_0B9_
FNDA:24,_RNCINvMs_NtCs4yQ6d7adrZY_10nexus_core7catalogNtB7_7Catalog3newReEs1_0B9_
FNDA:0,_RNCINvMs_NtCs4yQ6d7adrZY_10nexus_core7catalogNtB7_7Catalog3newReEs2_0B9_
FNDA:0,_RNCINvMs_NtCs4yQ6d7adrZY_10nexus_core7catalogNtB7_7Catalog3newReEs3_0B9_
FNDA:24,_RNCINvMs_NtCs4yQ6d7adrZY_10nexus_core7catalogNtB7_7Catalog3newReEs_0B9_
FNDA:0,_RNCNvMs_NtCs4yQ6d7adrZY_10nexus_core7catalogNtB6_7Catalog12get_key_name0B8_
FNDA:0,_RNCNvMs_NtCs4yQ6d7adrZY_10nexus_core7catalogNtB6_7Catalog12get_metadata0B8_
FNDA:0,_RNCNvMs_NtCs4yQ6d7adrZY_10nexus_core7catalogNtB6_7Catalog13get_type_name0B8_
FNDA:0,_RNCNvMs_NtCs4yQ6d7adrZY_10nexus_core7catalogNtB6_7Catalog14get_label_name0B8_
FNDA:0,_RNCNvMs_NtCs4yQ6d7adrZY_10nexus_core7catalogNtB6_7Catalog14get_statistics0B8_
FNDA:22,_RNvMs_NtCs4yQ6d7adrZY_10nexus_core7catalogNtB4_7Catalog11label_count
FNDA:0,_RNvMs_NtCs4yQ6d7adrZY_10nexus_core7catalogNtB4_7Catalog12get_key_name
FNDA:0,_RNvMs_NtCs4yQ6d7adrZY_10nexus_core7catalogNtB4_7Catalog12get_metadata
FNDA:4,_RNvMs_NtCs4yQ6d7adrZY_10nexus_core7catalogNtB4_7Catalog12health_check
FNDA:0,_RNvMs_NtCs4yQ6d7adrZY_10nexus_core7catalogNtB4_7Catalog13get_type_name
FNDA:0,_RNvMs_NtCs4yQ6d7adrZY_10nexus_core7catalogNtB4_7Catalog14get_label_name
FNDA:7,_RNvMs_NtCs4yQ6d7adrZY_10nexus_core7catalogNtB4_7Catalog14get_statistics
FNDA:22,_RNvMs_NtCs4yQ6d7adrZY_10nexus_core7catalogNtB4_7Catalog14rel_type_count
FNDA:0,_RNvMs_NtCs4yQ6d7adrZY_10nexus_core7catalogNtB4_7Catalog15update_metadata
FNDA:0,_RNvMs_NtCs4yQ6d7adrZY_10nexus_core7catalogNtB4_7Catalog17get_or_create_key
FNDA:2,_RNvMs_NtCs4yQ6d7adrZY_10nexus_core7catalogNtB4_7Catalog17update_statistics
FNDA:3,_RNvMs_NtCs4yQ6d7adrZY_10nexus_core7catalogNtB4_7Catalog18get_or_create_type
FNDA:0,_RNvMs_NtCs4yQ6d7adrZY_10nexus_core7catalogNtB4_7Catalog19decrement_rel_count
FNDA:7,_RNvMs_NtCs4yQ6d7adrZY_10nexus_core7catalogNtB4_7Catalog19get_or_create_label
FNDA:0,_RNvMs_NtCs4yQ6d7adrZY_10nexus_core7catalogNtB4_7Catalog19increment_rel_count
FNDA:0,_RNvMs_NtCs4yQ6d7adrZY_10nexus_core7catalogNtB4_7Catalog20decrement_node_count
FNDA:2,_RNvMs_NtCs4yQ6d7adrZY_10nexus_core7catalogNtB4_7Catalog20increment_node_count
FNDA:0,_RNvMs_NtCs4yQ6d7adrZY_10nexus_core7catalogNtB4_7Catalog4sync
FNDA:32,_RNvXNtCs4yQ6d7adrZY_10nexus_core7catalogNtB2_15CatalogMetadataNtNtCs9Kp62OsN3pY_4core7default7Default7default
FNDA:24,_RNvXs0_NtCs4yQ6d7adrZY_10nexus_core7catalogNtB5_7CatalogNtNtCs9Kp62OsN3pY_4core7default7Default7default
FNDA:6,_RNvMs_NtCs7bzfDg8Kx2o_10nexus_core7catalogNtB4_7Catalog11label_count
FNDA:3,_RNvMs_NtCs7bzfDg8Kx2o_10nexus_core7catalogNtB4_7Catalog12get_key_name
FNDA:4,_RNvMs_NtCs7bzfDg8Kx2o_10nexus_core7catalogNtB4_7Catalog12get_metadata
FNDA:1,_RNvMs_NtCs7bzfDg8Kx2o_10nexus_core7catalogNtB4_7Catalog12health_check
FNDA:7,_RNvMs_NtCs7bzfDg8Kx2o_10nexus_core7catalogNtB4_7Catalog13get_type_name
FNDA:7,_RNvMs_NtCs7bzfDg8Kx2o_10nexus_core7catalogNtB4_7Catalog14get_label_name
FNDA:225,_RNvMs_NtCs7bzfDg8Kx2o_10nexus_core7catalogNtB4_7Catalog14get_statistics
FNDA:5,_RNvMs_NtCs7bzfDg8Kx2o_10nexus_core7catalogNtB4_7Catalog14rel_type_count
FNDA:1,_RNvMs_NtCs7bzfDg8Kx2o_10nexus_core7catalogNtB4_7Catalog15update_metadata
FNDA:18,_RNvMs_NtCs7bzfDg8Kx2o_10nexus_core7catalogNtB4_7Catalog17get_or_create_key
FNDA:215,_RNvMs_NtCs7bzfDg8Kx2o_10nexus_core7catalogNtB4_7Catalog17update_statistics
FNDA:44,_RNvMs_NtCs7bzfDg8Kx2o_10nexus_core7catalogNtB4_7Catalog18get_or_create_type
FNDA:2,_RNvMs_NtCs7bzfDg8Kx2o_10nexus_core7catalogNtB4_7Catalog19decrement_rel_count
FNDA:105,_RNvMs_NtCs7bzfDg8Kx2o_10nexus_core7catalogNtB4_7Catalog19get_or_create_label
FNDA:103,_RNvMs_NtCs7bzfDg8Kx2o_10nexus_core7catalogNtB4_7Catalog19increment_rel_count
FNDA:5,_RNvMs_NtCs7bzfDg8Kx2o_10nexus_core7catalogNtB4_7Catalog20decrement_node_count
FNDA:105,_RNvMs_NtCs7bzfDg8Kx2o_10nexus_core7catalogNtB4_7Catalog20increment_node_count
FNDA:4,_RNvMs_NtCs7bzfDg8Kx2o_10nexus_core7catalogNtB4_7Catalog4sync
FNDA:104,_RNvXNtCs7bzfDg8Kx2o_10nexus_core7catalogNtB2_15CatalogMetadataNtNtCs9Kp62OsN3pY_4core7default7Default7default
FNDA:1,_RNvXs0_NtCs7bzfDg8Kx2o_10nexus_core7catalogNtB5_7CatalogNtNtCs9Kp62OsN3pY_4core7default7Default7default
FNDA:22,_RNvNtNtCs7bzfDg8Kx2o_10nexus_core7catalog5tests19create_test_catalog
FNDA:1,_RNvNtNtCs7bzfDg8Kx2o_10nexus_core7catalog5testss_16test_persistence
FNDA:1,_RNvNtNtCs7bzfDg8Kx2o_10nexus_core7catalog5testss_17test_key_creation
FNDA:1,_RNvNtNtCs7bzfDg8Kx2o_10nexus_core7catalog5testss_18test_type_creation
FNDA:1,_RNvNtNtCs7bzfDg8Kx2o_10nexus_core7catalog5testss_19test_label_creation
FNDA:1,_RNvNtNtCs7bzfDg8Kx2o_10nexus_core7catalog5testss_19test_sync_operation
FNDA:1,_RNvNtNtCs7bzfDg8Kx2o_10nexus_core7catalog5testss_20test_key_name_lookup
FNDA:1,_RNvNtNtCs7bzfDg8Kx2o_10nexus_core7catalog5testss_20test_metadata_update
FNDA:1,_RNvNtNtCs7bzfDg8Kx2o_10nexus_core7catalog5testss_21test_catalog_creation
FNDA:1,_RNvNtNtCs7bzfDg8Kx2o_10nexus_core7catalog5testss_21test_mixed_operations
FNDA:1,_RNvNtNtCs7bzfDg8Kx2o_10nexus_core7catalog5testss_21test_type_name_lookup
FNDA:1,_RNvNtNtCs7bzfDg8Kx2o_10nexus_core7catalog5testss_22test_concurrent_access
FNDA:1,_RNvNtNtCs7bzfDg8Kx2o_10nexus_core7catalog5testss_22test_decrement_to_zero
FNDA:1,_RNvNtNtCs7bzfDg8Kx2o_10nexus_core7catalog5testss_22test_label_name_lookup
FNDA:1,_RNvNtNtCs7bzfDg8Kx2o_10nexus_core7catalog5testss_22test_statistics_update
FNDA:1,_RNvNtNtCs7bzfDg8Kx2o_10nexus_core7catalog5testss_23test_rel_count_tracking
FNDA:1,_RNvNtNtCs7bzfDg8Kx2o_10nexus_core7catalog5testss_24test_multiple_increments
FNDA:1,_RNvNtNtCs7bzfDg8Kx2o_10nexus_core7catalog5testss_25test_saturating_decrement
FNDA:1,_RNvNtNtCs7bzfDg8Kx2o_10nexus_core7catalog5testss_27test_nonexistent_key_lookup
FNDA:1,_RNvNtNtCs7bzfDg8Kx2o_10nexus_core7catalog5testss_28test_metadata_initialization
FNDA:1,_RNvNtNtCs7bzfDg8Kx2o_10nexus_core7catalog5testss_28test_nonexistent_type_lookup
FNDA:1,_RNvNtNtCs7bzfDg8Kx2o_10nexus_core7catalog5testss_29test_nonexistent_label_lookup
FNDA:1,_RNvNtNtCs7bzfDg8Kx2o_10nexus_core7catalog5testss_30test_concurrent_types_and_keys
FNDA:1,_RNvNtNtCs7bzfDg8Kx2o_10nexus_core7catalog5testss_30test_multiple_labels_and_types
FNDA:1,_RNvNtNtCs7bzfDg8Kx2o_10nexus_core7catalog5testss_30test_reopen_with_existing_data
FNDA:1,_RNvNtNtCs7bzfDg8Kx2o_10nexus_core7catalog5testss_30test_statistics_initialization
FNDA:1,_RNvNtNtCs7bzfDg8Kx2o_10nexus_core7catalog5testss_31test_concurrent_label_same_name
FNDA:1,_RNvNtNtCs7bzfDg8Kx2o_10nexus_core7catalog5testss_32test_decrement_nonexistent_count
FNDA:10,_RNCNvNtNtCs7bzfDg8Kx2o_10nexus_core7catalog5testss_22test_concurrent_access0B7_
FNDA:5,_RNCNvNtNtCs7bzfDg8Kx2o_10nexus_core7catalog5testss_30test_concurrent_types_and_keys0B7_
FNDA:5,_RNCNvNtNtCs7bzfDg8Kx2o_10nexus_core7catalog5testss_30test_concurrent_types_and_keyss_0B7_
FNDA:5,_RNCNvNtNtCs7bzfDg8Kx2o_10nexus_core7catalog5testss_31test_concurrent_label_same_name0B7_
FNDA:5,_RNCNvNtNtCs7bzfDg8Kx2o_10nexus_core7catalog5testss_31test_concurrent_label_same_names0_0B7_
FNDA:5,_RNCNvNtNtCs7bzfDg8Kx2o_10nexus_core7catalog5testss_31test_concurrent_label_same_names_0B7_
FNDA:14,_RINvMs_NtCs7bzfDg8Kx2o_10nexus_core7catalogNtB5_7Catalog3newNtNtCsN2eBOe4RBj_8tempfile3dir7TempDirEB7_
FNDA:42,_RINvMs_NtCs7bzfDg8Kx2o_10nexus_core7catalogNtB5_7Catalog3newNtNtCslLCvXJZBaqX_3std4path7PathBufEB7_
FNDA:46,_RINvMs_NtCs7bzfDg8Kx2o_10nexus_core7catalogNtB5_7Catalog3newRNtNtCslLCvXJZBaqX_3std4path4PathEB7_
FNDA:4,_RINvMs_NtCs7bzfDg8Kx2o_10nexus_core7catalogNtB5_7Catalog3newRNtNtCslLCvXJZBaqX_3std4path7PathBufEB7_
FNDA:4,_RINvMs_NtCs7bzfDg8Kx2o_10nexus_core7catalogNtB5_7Catalog3newReEB7_
FNDA:0,_RNCINvMs_NtCs7bzfDg8Kx2o_10nexus_core7catalogNtB7_7Catalog3newNtNtCsN2eBOe4RBj_8tempfile3dir7TempDirE0B9_
FNDA:0,_RNCINvMs_NtCs7bzfDg8Kx2o_10nexus_core7catalogNtB7_7Catalog3newNtNtCsN2eBOe4RBj_8tempfile3dir7TempDirEs0_0B9_
FNDA:0,_RNCINvMs_NtCs7bzfDg8Kx2o_10nexus_core7catalogNtB7_7Catalog3newNtNtCsN2eBOe4RBj_8tempfile3dir7TempDirEs1_0B9_
FNDA:0,_RNCINvMs_NtCs7bzfDg8Kx2o_10nexus_core7catalogNtB7_7Catalog3newNtNtCsN2eBOe4RBj_8tempfile3dir7TempDirEs2_0B9_
FNDA:0,_RNCINvMs_NtCs7bzfDg8Kx2o_10nexus_core7catalogNtB7_7Catalog3newNtNtCsN2eBOe4RBj_8tempfile3dir7TempDirEs3_0B9_
FNDA:0,_RNCINvMs_NtCs7bzfDg8Kx2o_10nexus_core7catalogNtB7_7Catalog3newNtNtCsN2eBOe4RBj_8tempfile3dir7TempDirEs_0B9_
FNDA:0,_RNCINvMs_NtCs7bzfDg8Kx2o_10nexus_core7catalogNtB7_7Catalog3newNtNtCslLCvXJZBaqX_3std4path7PathBufE0B9_
FNDA:0,_RNCINvMs_NtCs7bzfDg8Kx2o_10nexus_core7catalogNtB7_7Catalog3newNtNtCslLCvXJZBaqX_3std4path7PathBufEs0_0B9_
FNDA:0,_RNCINvMs_NtCs7bzfDg8Kx2o_10nexus_core7catalogNtB7_7Catalog3newNtNtCslLCvXJZBaqX_3std4path7PathBufEs1_0B9_
FNDA:0,_RNCINvMs_NtCs7bzfDg8Kx2o_10nexus_core7catalogNtB7_7Catalog3newNtNtCslLCvXJZBaqX_3std4path7PathBufEs2_0B9_
FNDA:0,_RNCINvMs_NtCs7bzfDg8Kx2o_10nexus_core7catalogNtB7_7Catalog3newNtNtCslLCvXJZBaqX_3std4path7PathBufEs3_0B9_
FNDA:0,_RNCINvMs_NtCs7bzfDg8Kx2o_10nexus_core7catalogNtB7_7Catalog3newNtNtCslLCvXJZBaqX_3std4path7PathBufEs_0B9_
FNDA:0,_RNCINvMs_NtCs7bzfDg8Kx2o_10nexus_core7catalogNtB7_7Catalog3newRNtNtCslLCvXJZBaqX_3std4path4PathE0B9_
FNDA:0,_RNCINvMs_NtCs7bzfDg8Kx2o_10nexus_core7catalogNtB7_7Catalog3newRNtNtCslLCvXJZBaqX_3std4path4PathEs0_0B9_
FNDA:0,_RNCINvMs_NtCs7bzfDg8Kx2o_10nexus_core7catalogNtB7_7Catalog3newRNtNtCslLCvXJZBaqX_3std4path4PathEs1_0B9_
FNDA:0,_RNCINvMs_NtCs7bzfDg8Kx2o_10nexus_core7catalogNtB7_7Catalog3newRNtNtCslLCvXJZBaqX_3std4path4PathEs2_0B9_
FNDA:0,_RNCINvMs_NtCs7bzfDg8Kx2o_10nexus_core7catalogNtB7_7Catalog3newRNtNtCslLCvXJZBaqX_3std4path4PathEs3_0B9_
FNDA:0,_RNCINvMs_NtCs7bzfDg8Kx2o_10nexus_core7catalogNtB7_7Catalog3newRNtNtCslLCvXJZBaqX_3std4path4PathEs_0B9_
FNDA:3,_RNCINvMs_NtCs7bzfDg8Kx2o_10nexus_core7catalogNtB7_7Catalog3newRNtNtCslLCvXJZBaqX_3std4path7PathBufE0B9_
FNDA:2,_RNCINvMs_NtCs7bzfDg8Kx2o_10nexus_core7catalogNtB7_7Catalog3newRNtNtCslLCvXJZBaqX_3std4path7PathBufEs0_0B9_
FNDA:2,_RNCINvMs_NtCs7bzfDg8Kx2o_10nexus_core7catalogNtB7_7Catalog3newRNtNtCslLCvXJZBaqX_3std4path7PathBufEs1_0B9_
FNDA:1,_RNCINvMs_NtCs7bzfDg8Kx2o_10nexus_core7catalogNtB7_7Catalog3newRNtNtCslLCvXJZBaqX_3std4path7PathBufEs2_0B9_
FNDA:1,_RNCINvMs_NtCs7bzfDg8Kx2o_10nexus_core7catalogNtB7_7Catalog3newRNtNtCslLCvXJZBaqX_3std4path7PathBufEs3_0B9_
FNDA:2,_RNCINvMs_NtCs7bzfDg8Kx2o_10nexus_core7catalogNtB7_7Catalog3newRNtNtCslLCvXJZBaqX_3std4path7PathBufEs_0B9_
FNDA:3,_RNCINvMs_NtCs7bzfDg8Kx2o_10nexus_core7catalogNtB7_7Catalog3newReE0B9_
FNDA:0,_RNCINvMs_NtCs7bzfDg8Kx2o_10nexus_core7catalogNtB7_7Catalog3newReEs0_0B9_
FNDA:0,_RNCINvMs_NtCs7bzfDg8Kx2o_10nexus_core7catalogNtB7_7Catalog3newReEs1_0B9_
FNDA:0,_RNCINvMs_NtCs7bzfDg8Kx2o_10nexus_core7catalogNtB7_7Catalog3newReEs2_0B9_
FNDA:0,_RNCINvMs_NtCs7bzfDg8Kx2o_10nexus_core7catalogNtB7_7Catalog3newReEs3_0B9_
FNDA:3,_RNCINvMs_NtCs7bzfDg8Kx2o_10nexus_core7catalogNtB7_7Catalog3newReEs_0B9_
FNDA:2,_RNCNvMs_NtCs7bzfDg8Kx2o_10nexus_core7catalogNtB6_7Catalog12get_key_name0B8_
FNDA:0,_RNCNvMs_NtCs7bzfDg8Kx2o_10nexus_core7catalogNtB6_7Catalog12get_metadata0B8_
FNDA:6,_RNCNvMs_NtCs7bzfDg8Kx2o_10nexus_core7catalogNtB6_7Catalog13get_type_name0B8_
FNDA:6,_RNCNvMs_NtCs7bzfDg8Kx2o_10nexus_core7catalogNtB6_7Catalog14get_label_name0B8_
FNDA:0,_RNCNvMs_NtCs7bzfDg8Kx2o_10nexus_core7catalogNtB6_7Catalog14get_statistics0B8_
FNDA:5,_RINvMs_NtCs4yQ6d7adrZY_10nexus_core7catalogNtB5_7Catalog3newNtNtCsN2eBOe4RBj_8tempfile3dir7TempDirECshee7arPIBgA_12nexus_server
FNDA:0,_RNCINvMs_NtCs4yQ6d7adrZY_10nexus_core7catalogNtB7_7Catalog3newNtNtCsN2eBOe4RBj_8tempfile3dir7TempDirE0Cshee7arPIBgA_12nexus_server
FNDA:0,_RNCINvMs_NtCs4yQ6d7adrZY_10nexus_core7catalogNtB7_7Catalog3newNtNtCsN2eBOe4RBj_8tempfile3dir7TempDirEs0_0Cshee7arPIBgA_12nexus_server
FNDA:0,_RNCINvMs_NtCs4yQ6d7adrZY_10nexus_core7catalogNtB7_7Catalog3newNtNtCsN2eBOe4RBj_8tempfile3dir7TempDirEs1_0Cshee7arPIBgA_12nexus_server
FNDA:0,_RNCINvMs_NtCs4yQ6d7adrZY_10nexus_core7catalogNtB7_7Catalog3newNtNtCsN2eBOe4RBj_8tempfile3dir7TempDirEs2_0Cshee7arPIBgA_12nexus_server
FNDA:0,_RNCINvMs_NtCs4yQ6d7adrZY_10nexus_core7catalogNtB7_7Catalog3newNtNtCsN2eBOe4RBj_8tempfile3dir7TempDirEs3_0Cshee7arPIBgA_12nexus_server
FNDA:0,_RNCINvMs_NtCs4yQ6d7adrZY_10nexus_core7catalogNtB7_7Catalog3newNtNtCsN2eBOe4RBj_8tempfile3dir7TempDirEs_0Cshee7arPIBgA_12nexus_server
FNDA:0,_RINvMs_NtCs4yQ6d7adrZY_10nexus_core7catalogNtB5_7Catalog3newNtNtCsN2eBOe4RBj_8tempfile3dir7TempDirECsdrhdX8z4AKz_12nexus_server
FNDA:0,_RNCINvMs_NtCs4yQ6d7adrZY_10nexus_core7catalogNtB7_7Catalog3newNtNtCsN2eBOe4RBj_8tempfile3dir7TempDirE0CsdrhdX8z4AKz_12nexus_server
FNDA:0,_RNCINvMs_NtCs4yQ6d7adrZY_10nexus_core7catalogNtB7_7Catalog3newNtNtCsN2eBOe4RBj_8tempfile3dir7TempDirEs0_0CsdrhdX8z4AKz_12nexus_server
FNDA:0,_RNCINvMs_NtCs4yQ6d7adrZY_10nexus_core7catalogNtB7_7Catalog3newNtNtCsN2eBOe4RBj_8tempfile3dir7TempDirEs1_0CsdrhdX8z4AKz_12nexus_server
FNDA:0,_RNCINvMs_NtCs4yQ6d7adrZY_10nexus_core7catalogNtB7_7Catalog3newNtNtCsN2eBOe4RBj_8tempfile3dir7TempDirEs2_0CsdrhdX8z4AKz_12nexus_server
FNDA:0,_RNCINvMs_NtCs4yQ6d7adrZY_10nexus_core7catalogNtB7_7Catalog3newNtNtCsN2eBOe4RBj_8tempfile3dir7TempDirEs3_0CsdrhdX8z4AKz_12nexus_server
FNDA:0,_RNCINvMs_NtCs4yQ6d7adrZY_10nexus_core7catalogNtB7_7Catalog3newNtNtCsN2eBOe4RBj_8tempfile3dir7TempDirEs_0CsdrhdX8z4AKz_12nexus_server
FNF:66
FNH:64
DA:67,136
DA:68,136
DA:69,136
DA:70,136
DA:71,136
DA:72,136
DA:73,136
DA:129,166
DA:131,166
DA:134,166
DA:135,166
DA:136,166
DA:137,166
DA:138,166
DA:140,166
DA:143,166
DA:145,166
DA:146,166
DA:148,166
DA:149,166
DA:151,166
DA:152,166
DA:154,166
DA:155,166
DA:158,166
DA:159,136
DA:160,136
DA:161,30
DA:164,166
DA:165,136
DA:166,136
DA:167,30
DA:169,166
DA:172,166
DA:174,166
DA:175,166
DA:176,166
DA:177,166
DA:178,166
DA:179,166
DA:180,166
DA:181,166
DA:183,166
DA:184,166
DA:185,166
DA:186,166
DA:187,166
DA:188,166
DA:189,166
DA:190,166
DA:192,166
DA:193,166
DA:194,166
DA:195,166
DA:196,166
DA:197,166
DA:198,166
DA:199,166
DA:201,166
DA:203,166
DA:204,166
DA:205,166
DA:206,166
DA:207,166
DA:208,166
DA:209,166
DA:210,166
DA:211,166
DA:212,166
DA:213,166
DA:214,166
DA:215,166
DA:216,166
DA:217,166
DA:232,112
DA:234,112
DA:235,112
DA:236,41
DA:237,71
DA:238,71
DA:241,71
DA:244,71
DA:245,1
DA:246,70
DA:249,70
DA:250,70
DA:251,70
DA:252,70
DA:253,70
DA:257,70
DA:258,70
DA:260,70
DA:262,70
DA:263,112
DA:266,7
DA:267,7
DA:268,7
DA:269,7
DA:270,7
DA:271,7
DA:272,7
DA:277,47
DA:279,47
DA:280,47
DA:281,13
DA:282,34
DA:283,34
DA:286,34
DA:289,34
DA:290,0
DA:291,34
DA:294,34
DA:295,34
DA:296,34
DA:297,34
DA:298,34
DA:302,34
DA:303,34
DA:305,34
DA:307,34
DA:308,47
DA:311,7
DA:312,7
DA:313,7
DA:314,7
DA:319,18
DA:321,18
DA:322,18
DA:323,6
DA:324,12
DA:325,12
DA:328,12
DA:331,12
DA:332,0
DA:333,12
DA:336,12
DA:337,12
DA:338,12
DA:339,12
DA:340,12
DA:344,12
DA:345,12
DA:347,12
DA:349,12
DA:350,18
DA:353,3
DA:354,3
DA:355,3
DA:356,3
DA:359,4
DA:360,4
DA:361,4
DA:362,4
DA:363,4
DA:364,4
DA:367,1
DA:368,1
DA:369,1
DA:370,1
DA:371,1
DA:372,1
DA:375,232
DA:376,232
DA:377,232
DA:378,232
DA:379,232
DA:380,232
DA:383,217
DA:384,217
DA:385,217
DA:386,217
DA:387,217
DA:388,217
DA:391,107
DA:392,107
DA:393,107
DA:394,107
DA:395,107
DA:398,5
DA:399,5
DA:400,5
DA:401,4
DA:402,4
DA:403,5
DA:404,5
DA:407,103
DA:408,103
DA:409,103
DA:410,103
DA:411,103
DA:414,2
DA:415,2
DA:416,2
DA:417,1
DA:418,1
DA:419,2
DA:420,2
DA:423,4
DA:424,4
DA:425,4
DA:426,4
DA:429,5
DA:431,5
DA:434,5
DA:435,5
DA:436,5
DA:437,5
DA:438,5
DA:439,5
DA:440,5
DA:441,5
DA:443,5
DA:444,5
DA:445,5
DA:448,28
DA:449,28
DA:450,28
DA:451,28
DA:454,27
DA:455,27
DA:456,27
DA:457,27
DA:461,25
DA:462,25
DA:463,25
DA:471,22
DA:472,22
DA:473,22
DA:474,22
DA:475,22
DA:478,1
DA:479,1
DA:480,1
DA:481,1
DA:482,1
DA:483,1
DA:486,1
DA:487,1
DA:489,1
DA:490,1
DA:492,1
DA:495,1
DA:496,1
DA:497,1
DA:500,1
DA:501,1
DA:503,1
DA:504,1
DA:506,1
DA:507,1
DA:510,1
DA:511,1
DA:513,1
DA:514,1
DA:516,1
DA:518,1
DA:519,1
DA:520,1
DA:523,1
DA:524,1
DA:526,1
DA:527,1
DA:529,1
DA:531,1
DA:532,1
DA:533,1
DA:536,1
DA:537,1
DA:539,1
DA:541,1
DA:542,1
DA:544,1
DA:545,1
DA:547,1
DA:548,1
DA:549,1
DA:550,1
DA:553,1
DA:554,1
DA:555,1
DA:558,1
DA:559,1
DA:560,1
DA:561,1
DA:562,1
DA:563,1
DA:567,1
DA:568,1
DA:569,1
DA:571,1
DA:572,1
DA:574,1
DA:577,1
DA:581,1
DA:582,1
DA:584,1
DA:587,11
DA:588,10
DA:589,10
DA:590,10
DA:591,10
DA:592,10
DA:593,10
DA:596,11
DA:597,10
DA:598,10
DA:601,11
DA:602,10
DA:603,10
DA:604,10
DA:606,1
DA:609,1
DA:610,1
DA:612,1
DA:613,1
DA:615,1
DA:616,1
DA:619,1
DA:620,1
DA:622,1
DA:623,1
DA:625,1
DA:626,1
DA:629,1
DA:630,1
DA:632,1
DA:633,1
DA:634,1
DA:637,1
DA:638,1
DA:640,1
DA:641,1
DA:642,1
DA:645,1
DA:646,1
DA:648,1
DA:649,1
DA:650,1
DA:653,1
DA:654,1
DA:656,1
DA:657,1
DA:659,1
DA:660,1
DA:662,1
DA:663,1
DA:664,1
DA:667,1
DA:668,1
DA:670,1
DA:672,1
DA:673,1
DA:674,1
DA:676,1
DA:677,1
DA:679,1
DA:680,1
DA:681,1
DA:682,1
DA:685,1
DA:686,1
DA:689,1
DA:690,1
DA:692,1
DA:693,1
DA:694,1
DA:697,1
DA:698,1
DA:700,1
DA:702,1
DA:704,1
DA:705,1
DA:707,1
DA:709,1
DA:710,1
DA:711,1
DA:714,1
DA:715,1
DA:718,1
DA:719,5
DA:720,4
DA:721,4
DA:724,1
DA:725,5
DA:726,4
DA:727,4
DA:730,5
DA:731,4
DA:732,4
DA:733,4
DA:736,5
DA:737,4
DA:738,4
DA:739,4
DA:741,1
DA:744,1
DA:748,1
DA:749,1
DA:751,1
DA:754,6
DA:755,5
DA:756,5
DA:757,5
DA:758,5
DA:759,5
DA:760,5
DA:764,6
DA:765,5
DA:766,5
DA:767,5
DA:768,5
DA:769,5
DA:770,5
DA:773,11
DA:774,10
DA:775,10
DA:778,6
DA:779,5
DA:780,5
DA:781,5
DA:782,5
DA:783,5
DA:784,5
DA:785,1
DA:788,1
DA:789,1
DA:791,1
DA:792,1
DA:795,1
DA:796,1
DA:799,1
DA:800,1
DA:802,1
DA:803,1
DA:804,1
DA:805,1
DA:806,1
DA:807,1
DA:808,1
DA:811,1
DA:812,1
DA:814,1
DA:815,1
DA:816,1
DA:817,1
DA:818,1
DA:821,1
DA:822,1
DA:823,1
DA:826,1
DA:827,1
DA:828,1
DA:829,1
DA:830,1
DA:831,1
DA:832,1
DA:833,1
DA:834,1
DA:835,1
DA:836,1
DA:837,1
DA:841,1
DA:844,1
DA:845,1
DA:847,1
DA:848,1
DA:850,1
DA:851,1
DA:853,1
DA:856,1
DA:860,1
DA:861,1
DA:863,1
DA:866,6
DA:867,5
DA:868,5
DA:869,5
DA:872,5
DA:875,5
DA:876,1
DA:879,1
DA:880,1
DA:883,1
DA:884,1
DA:885,1
DA:886,1
DA:887,1
DA:888,1
DA:891,1
DA:892,1
DA:893,1
DA:896,1
DA:897,1
DA:898,1
DA:900,1
DA:901,1
DA:902,1
DA:904,1
DA:905,1
DA:908,1
DA:909,1
DA:911,1
DA:914,1
DA:917,1
DA:918,1
DA:920,1
DA:921,1
DA:922,1
DA:925,1
DA:926,1
DA:928,1
DA:929,1
DA:932,101
DA:933,100
DA:934,100
DA:935,100
DA:937,1
DA:938,1
DA:939,1
DA:940,1
BRF:0
BRH:0
LF:537
LH:533
end_of_record
SF:/mnt/f/Node/hivellm/nexus/nexus-core/src/clustering.rs
FN:66,_RNCNvMNtCs4yQ6d7adrZY_10nexus_core10clusteringNtB4_7Cluster11remove_node0B6_
FN:495,_RNCNvMs1_NtCs4yQ6d7adrZY_10nexus_core10clusteringNtB7_16ClusteringEngine17kmeans_clustering0B9_
FN:378,_RNCNvMs1_NtCs4yQ6d7adrZY_10nexus_core10clusteringNtB7_16ClusteringEngine18calculate_distance0B9_
FN:390,_RNCNvMs1_NtCs4yQ6d7adrZY_10nexus_core10clusteringNtB7_16ClusteringEngine18calculate_distances0_0B9_
FN:392,_RNCNvMs1_NtCs4yQ6d7adrZY_10nexus_core10clusteringNtB7_16ClusteringEngine18calculate_distances1_0B9_
FN:393,_RNCNvMs1_NtCs4yQ6d7adrZY_10nexus_core10clusteringNtB7_16ClusteringEngine18calculate_distances2_0B9_
FN:406,_RNCNvMs1_NtCs4yQ6d7adrZY_10nexus_core10clusteringNtB7_16ClusteringEngine18calculate_distances3_0B9_
FN:411,_RNCNvMs1_NtCs4yQ6d7adrZY_10nexus_core10clusteringNtB7_16ClusteringEngine18calculate_distances4_0B9_
FN:423,_RNCNvMs1_NtCs4yQ6d7adrZY_10nexus_core10clusteringNtB7_16ClusteringEngine18calculate_distances5_0B9_
FN:384,_RNCNvMs1_NtCs4yQ6d7adrZY_10nexus_core10clusteringNtB7_16ClusteringEngine18calculate_distances_0B9_
FN:1047,_RNCNvMs1_NtCs4yQ6d7adrZY_10nexus_core10clusteringNtB7_16ClusteringEngine19calculate_wcss_bcss0B9_
FN:568,_RNCNvMs1_NtCs4yQ6d7adrZY_10nexus_core10clusteringNtB7_16ClusteringEngine20initialize_centroids0B9_
FN:577,_RNCNvMs1_NtCs4yQ6d7adrZY_10nexus_core10clusteringNtB7_16ClusteringEngine20initialize_centroidss_0B9_
FN:672,_RNCNvMs1_NtCs4yQ6d7adrZY_10nexus_core10clusteringNtB7_16ClusteringEngine20label_based_grouping0B9_
FN:643,_RNCNvMs1_NtCs4yQ6d7adrZY_10nexus_core10clusteringNtB7_16ClusteringEngine23hierarchical_clustering0B9_
FN:719,_RNCNvMs1_NtCs4yQ6d7adrZY_10nexus_core10clusteringNtB7_16ClusteringEngine23property_based_grouping0B9_
FN:936,_RNCNvMs1_NtCs4yQ6d7adrZY_10nexus_core10clusteringNtB7_16ClusteringEngine26calculate_silhouette_score0B9_
FN:971,_RNCNvMs1_NtCs4yQ6d7adrZY_10nexus_core10clusteringNtB7_16ClusteringEngine26calculate_silhouette_scores0_0B9_
FN:946,_RNCNvMs1_NtCs4yQ6d7adrZY_10nexus_core10clusteringNtB7_16ClusteringEngine26calculate_silhouette_scores_0B9_
FN:327,_RNCNvMs1_NtCs4yQ6d7adrZY_10nexus_core10clusteringNtB7_16ClusteringEngine27extract_structural_features0B9_
FN:328,_RNCNvMs1_NtCs4yQ6d7adrZY_10nexus_core10clusteringNtB7_16ClusteringEngine27extract_structural_featuress_0B9_
FN:1116,_RNCNvMs1_NtCs4yQ6d7adrZY_10nexus_core10clusteringNtB7_16ClusteringEngine28calculate_cluster_dispersion0B9_
FN:65,_RNvMNtCs4yQ6d7adrZY_10nexus_core10clusteringNtB2_7Cluster11remove_node
FN:80,_RNvMNtCs4yQ6d7adrZY_10nexus_core10clusteringNtB2_7Cluster12get_metadata
FN:75,_RNvMNtCs4yQ6d7adrZY_10nexus_core10clusteringNtB2_7Cluster12set_metadata
FN:38,_RNvMNtCs4yQ6d7adrZY_10nexus_core10clusteringNtB2_7Cluster13with_centroid
FN:28,_RNvMNtCs4yQ6d7adrZY_10nexus_core10clusteringNtB2_7Cluster3new
FN:48,_RNvMNtCs4yQ6d7adrZY_10nexus_core10clusteringNtB2_7Cluster4size
FN:58,_RNvMNtCs4yQ6d7adrZY_10nexus_core10clusteringNtB2_7Cluster8add_node
FN:53,_RNvMNtCs4yQ6d7adrZY_10nexus_core10clusteringNtB2_7Cluster8is_empty
FN:871,_RNvMs1_NtCs4yQ6d7adrZY_10nexus_core10clusteringNtB5_16ClusteringEngine13get_neighbors
FN:258,_RNvMs1_NtCs4yQ6d7adrZY_10nexus_core10clusteringNtB5_16ClusteringEngine16extract_features
FN:888,_RNvMs1_NtCs4yQ6d7adrZY_10nexus_core10clusteringNtB5_16ClusteringEngine17calculate_metrics
FN:604,_RNvMs1_NtCs4yQ6d7adrZY_10nexus_core10clusteringNtB5_16ClusteringEngine17check_convergence
FN:798,_RNvMs1_NtCs4yQ6d7adrZY_10nexus_core10clusteringNtB5_16ClusteringEngine17dbscan_clustering
FN:435,_RNvMs1_NtCs4yQ6d7adrZY_10nexus_core10clusteringNtB5_16ClusteringEngine17kmeans_clustering
FN:369,_RNvMs1_NtCs4yQ6d7adrZY_10nexus_core10clusteringNtB5_16ClusteringEngine18calculate_distance
FN:1012,_RNvMs1_NtCs4yQ6d7adrZY_10nexus_core10clusteringNtB5_16ClusteringEngine19calculate_wcss_bcss
FN:739,_RNvMs1_NtCs4yQ6d7adrZY_10nexus_core10clusteringNtB5_16ClusteringEngine19community_detection
FN:543,_RNvMs1_NtCs4yQ6d7adrZY_10nexus_core10clusteringNtB5_16ClusteringEngine20initialize_centroids
FN:660,_RNvMs1_NtCs4yQ6d7adrZY_10nexus_core10clusteringNtB5_16ClusteringEngine20label_based_grouping
FN:279,_RNvMs1_NtCs4yQ6d7adrZY_10nexus_core10clusteringNtB5_16ClusteringEngine22extract_label_features
FN:776,_RNvMs1_NtCs4yQ6d7adrZY_10nexus_core10clusteringNtB5_16ClusteringEngine23dfs_community_detection
FN:631,_RNvMs1_NtCs4yQ6d7adrZY_10nexus_core10clusteringNtB5_16ClusteringEngine23hierarchical_clustering
FN:692,_RNvMs1_NtCs4yQ6d7adrZY_10nexus_core10clusteringNtB5_16ClusteringEngine23property_based_grouping
FN:342,_RNvMs1_NtCs4yQ6d7adrZY_10nexus_core10clusteringNtB5_16ClusteringEngine25extract_combined_features
FN:624,_RNvMs1_NtCs4yQ6d7adrZY_10nexus_core10clusteringNtB5_16ClusteringEngine25extract_features_for_node
FN:295,_RNvMs1_NtCs4yQ6d7adrZY_10nexus_core10clusteringNtB5_16ClusteringEngine25extract_property_features
FN:925,_RNvMs1_NtCs4yQ6d7adrZY_10nexus_core10clusteringNtB5_16ClusteringEngine26calculate_silhouette_score
FN:319,_RNvMs1_NtCs4yQ6d7adrZY_10nexus_core10clusteringNtB5_16ClusteringEngine27extract_structural_features
FN:1101,_RNvMs1_NtCs4yQ6d7adrZY_10nexus_core10clusteringNtB5_16ClusteringEngine28calculate_cluster_dispersion
FN:1068,_RNvMs1_NtCs4yQ6d7adrZY_10nexus_core10clusteringNtB5_16ClusteringEngine30calculate_davies_bouldin_index
FN:1132,_RNvMs1_NtCs4yQ6d7adrZY_10nexus_core10clusteringNtB5_16ClusteringEngine33calculate_cluster_distance_simple
FN:219,_RNvMs1_NtCs4yQ6d7adrZY_10nexus_core10clusteringNtB5_16ClusteringEngine3new
FN:224,_RNvMs1_NtCs4yQ6d7adrZY_10nexus_core10clusteringNtB5_16ClusteringEngine7cluster
FN:1151,_RNvMs2_NtCs4yQ6d7adrZY_10nexus_core10clusteringNtB5_9SimpleRng3new
FN:1162,_RNvMs2_NtCs4yQ6d7adrZY_10nexus_core10clusteringNtB5_9SimpleRng7gen_f64
FN:1155,_RNvMs2_NtCs4yQ6d7adrZY_10nexus_core10clusteringNtB5_9SimpleRng9gen_range
FN:201,_RNvXs0_NtCs4yQ6d7adrZY_10nexus_core10clusteringNtB5_17ClusteringMetricsNtNtCs9Kp62OsN3pY_4core7default7Default7default
FN:129,_RNvXs_NtCs4yQ6d7adrZY_10nexus_core10clusteringNtB4_16ClusteringConfigNtNtCs9Kp62OsN3pY_4core7default7Default7default
FN:1172,_RNvNtNtCs7bzfDg8Kx2o_10nexus_core10clustering5tests17create_test_graph
FN:1382,_RNvNtNtCs7bzfDg8Kx2o_10nexus_core10clustering5testss_18test_cluster_clear
FN:1290,_RNvNtNtCs7bzfDg8Kx2o_10nexus_core10clustering5testss_21test_cluster_creation
FN:1444,_RNvNtNtCs7bzfDg8Kx2o_10nexus_core10clustering5testss_21test_distance_metrics
FN:1654,_RNvNtNtCs7bzfDg8Kx2o_10nexus_core10clustering5testss_21test_hamming_distance
FN:1634,_RNvNtNtCs7bzfDg8Kx2o_10nexus_core10clustering5testss_21test_jaccard_distance
FN:1530,_RNvNtNtCs7bzfDg8Kx2o_10nexus_core10clustering5testss_22test_dbscan_clustering
FN:1270,_RNvNtNtCs7bzfDg8Kx2o_10nexus_core10clustering5testss_22test_kmeans_clustering
FN:1301,_RNvNtNtCs7bzfDg8Kx2o_10nexus_core10clustering5testss_23test_cluster_operations
FN:1231,_RNvNtNtCs7bzfDg8Kx2o_10nexus_core10clustering5testss_25test_label_based_grouping
FN:1372,_RNvNtNtCs7bzfDg8Kx2o_10nexus_core10clustering5testss_26test_cluster_contains_node
FN:1330,_RNvNtNtCs7bzfDg8Kx2o_10nexus_core10clustering5testss_26test_cluster_with_centroid
FN:1437,_RNvNtNtCs7bzfDg8Kx2o_10nexus_core10clustering5testss_26test_clustering_engine_new
FN:1318,_RNvNtNtCs7bzfDg8Kx2o_10nexus_core10clustering5testss_26test_distance_calculations
FN:1506,_RNvNtNtCs7bzfDg8Kx2o_10nexus_core10clustering5testss_27test_empty_graph_clustering
FN:1517,_RNvNtNtCs7bzfDg8Kx2o_10nexus_core10clustering5testss_27test_single_node_clustering
FN:1550,_RNvNtNtCs7bzfDg8Kx2o_10nexus_core10clustering5testss_28test_hierarchical_clustering
FN:1249,_RNvNtNtCs7bzfDg8Kx2o_10nexus_core10clustering5testss_28test_property_based_grouping
FN:1401,_RNvNtNtCs7bzfDg8Kx2o_10nexus_core10clustering5testss_30test_clustering_config_default
FN:1606,_RNvNtNtCs7bzfDg8Kx2o_10nexus_core10clustering5testss_30test_combined_feature_strategy
FN:1419,_RNvNtNtCs7bzfDg8Kx2o_10nexus_core10clustering5testss_31test_clustering_config_creation
FN:1482,_RNvNtNtCs7bzfDg8Kx2o_10nexus_core10clustering5testss_31test_clustering_result_creation
FN:1341,_RNvNtNtCs7bzfDg8Kx2o_10nexus_core10clustering5testss_32test_cluster_metadata_operations
FN:1586,_RNvNtNtCs7bzfDg8Kx2o_10nexus_core10clustering5testss_32test_structural_feature_strategy
FN:1569,_RNvNtNtCs7bzfDg8Kx2o_10nexus_core10clustering5testss_35test_community_detection_clustering
FN:65,_RNvMNtCs7bzfDg8Kx2o_10nexus_core10clusteringNtB2_7Cluster11remove_node
FN:80,_RNvMNtCs7bzfDg8Kx2o_10nexus_core10clusteringNtB2_7Cluster12get_metadata
FN:75,_RNvMNtCs7bzfDg8Kx2o_10nexus_core10clusteringNtB2_7Cluster12set_metadata
FN:38,_RNvMNtCs7bzfDg8Kx2o_10nexus_core10clusteringNtB2_7Cluster13with_centroid
FN:28,_RNvMNtCs7bzfDg8Kx2o_10nexus_core10clusteringNtB2_7Cluster3new
FN:48,_RNvMNtCs7bzfDg8Kx2o_10nexus_core10clusteringNtB2_7Cluster4size
FN:58,_RNvMNtCs7bzfDg8Kx2o_10nexus_core10clusteringNtB2_7Cluster8add_node
FN:53,_RNvMNtCs7bzfDg8Kx2o_10nexus_core10clusteringNtB2_7Cluster8is_empty
FN:871,_RNvMs1_NtCs7bzfDg8Kx2o_10nexus_core10clusteringNtB5_16ClusteringEngine13get_neighbors
FN:258,_RNvMs1_NtCs7bzfDg8Kx2o_10nexus_core10clusteringNtB5_16ClusteringEngine16extract_features
FN:888,_RNvMs1_NtCs7bzfDg8Kx2o_10nexus_core10clusteringNtB5_16ClusteringEngine17calculate_metrics
FN:604,_RNvMs1_NtCs7bzfDg8Kx2o_10nexus_core10clusteringNtB5_16ClusteringEngine17check_convergence
FN:798,_RNvMs1_NtCs7bzfDg8Kx2o_10nexus_core10clusteringNtB5_16ClusteringEngine17dbscan_clustering
FN:435,_RNvMs1_NtCs7bzfDg8Kx2o_10nexus_core10clusteringNtB5_16ClusteringEngine17kmeans_clustering
FN:369,_RNvMs1_NtCs7bzfDg8Kx2o_10nexus_core10clusteringNtB5_16ClusteringEngine18calculate_distance
FN:1012,_RNvMs1_NtCs7bzfDg8Kx2o_10nexus_core10clusteringNtB5_16ClusteringEngine19calculate_wcss_bcss
FN:739,_RNvMs1_NtCs7bzfDg8Kx2o_10nexus_core10clusteringNtB5_16ClusteringEngine19community_detection
FN:543,_RNvMs1_NtCs7bzfDg8Kx2o_10nexus_core10clusteringNtB5_16ClusteringEngine20initialize_centroids
FN:660,_RNvMs1_NtCs7bzfDg8Kx2o_10nexus_core10clusteringNtB5_16ClusteringEngine20label_based_grouping
FN:279,_RNvMs1_NtCs7bzfDg8Kx2o_10nexus_core10clusteringNtB5_16ClusteringEngine22extract_label_features
FN:776,_RNvMs1_NtCs7bzfDg8Kx2o_10nexus_core10clusteringNtB5_16ClusteringEngine23dfs_community_detection
FN:631,_RNvMs1_NtCs7bzfDg8Kx2o_10nexus_core10clusteringNtB5_16ClusteringEngine23hierarchical_clustering
FN:692,_RNvMs1_NtCs7bzfDg8Kx2o_10nexus_core10clusteringNtB5_16ClusteringEngine23property_based_grouping
FN:342,_RNvMs1_NtCs7bzfDg8Kx2o_10nexus_core10clusteringNtB5_16ClusteringEngine25extract_combined_features
FN:624,_RNvMs1_NtCs7bzfDg8Kx2o_10nexus_core10clusteringNtB5_16ClusteringEngine25extract_features_for_node
FN:295,_RNvMs1_NtCs7bzfDg8Kx2o_10nexus_core10clusteringNtB5_16ClusteringEngine25extract_property_features
FN:925,_RNvMs1_NtCs7bzfDg8Kx2o_10nexus_core10clusteringNtB5_16ClusteringEngine26calculate_silhouette_score
FN:319,_RNvMs1_NtCs7bzfDg8Kx2o_10nexus_core10clusteringNtB5_16ClusteringEngine27extract_structural_features
FN:1101,_RNvMs1_NtCs7bzfDg8Kx2o_10nexus_core10clusteringNtB5_16ClusteringEngine28calculate_cluster_dispersion
FN:1068,_RNvMs1_NtCs7bzfDg8Kx2o_10nexus_core10clusteringNtB5_16ClusteringEngine30calculate_davies_bouldin_index
FN:1132,_RNvMs1_NtCs7bzfDg8Kx2o_10nexus_core10clusteringNtB5_16ClusteringEngine33calculate_cluster_distance_simple
FN:219,_RNvMs1_NtCs7bzfDg8Kx2o_10nexus_core10clusteringNtB5_16ClusteringEngine3new
FN:224,_RNvMs1_NtCs7bzfDg8Kx2o_10nexus_core10clusteringNtB5_16ClusteringEngine7cluster
FN:1151,_RNvMs2_NtCs7bzfDg8Kx2o_10nexus_core10clusteringNtB5_9SimpleRng3new
FN:1162,_RNvMs2_NtCs7bzfDg8Kx2o_10nexus_core10clusteringNtB5_9SimpleRng7gen_f64
FN:1155,_RNvMs2_NtCs7bzfDg8Kx2o_10nexus_core10clusteringNtB5_9SimpleRng9gen_range
FN:201,_RNvXs0_NtCs7bzfDg8Kx2o_10nexus_core10clusteringNtB5_17ClusteringMetricsNtNtCs9Kp62OsN3pY_4core7default7Default7default
FN:129,_RNvXs_NtCs7bzfDg8Kx2o_10nexus_core10clusteringNtB4_16ClusteringConfigNtNtCs9Kp62OsN3pY_4core7default7Default7default
FN:66,_RNCNvMNtCs7bzfDg8Kx2o_10nexus_core10clusteringNtB4_7Cluster11remove_node0B6_
FN:495,_RNCNvMs1_NtCs7bzfDg8Kx2o_10nexus_core10clusteringNtB7_16ClusteringEngine17kmeans_clustering0B9_
FN:378,_RNCNvMs1_NtCs7bzfDg8Kx2o_10nexus_core10clusteringNtB7_16ClusteringEngine18calculate_distance0B9_
FN:390,_RNCNvMs1_NtCs7bzfDg8Kx2o_10nexus_core10clusteringNtB7_16ClusteringEngine18calculate_distances0_0B9_
FN:392,_RNCNvMs1_NtCs7bzfDg8Kx2o_10nexus_core10clusteringNtB7_16ClusteringEngine18calculate_distances1_0B9_
FN:393,_RNCNvMs1_NtCs7bzfDg8Kx2o_10nexus_core10clusteringNtB7_16ClusteringEngine18calculate_distances2_0B9_
FN:406,_RNCNvMs1_NtCs7bzfDg8Kx2o_10nexus_core10clusteringNtB7_16ClusteringEngine18calculate_distances3_0B9_
FN:411,_RNCNvMs1_NtCs7bzfDg8Kx2o_10nexus_core10clusteringNtB7_16ClusteringEngine18calculate_distances4_0B9_
FN:423,_RNCNvMs1_NtCs7bzfDg8Kx2o_10nexus_core10clusteringNtB7_16ClusteringEngine18calculate_distances5_0B9_
FN:384,_RNCNvMs1_NtCs7bzfDg8Kx2o_10nexus_core10clusteringNtB7_16ClusteringEngine18calculate_distances_0B9_
FN:1047,_RNCNvMs1_NtCs7bzfDg8Kx2o_10nexus_core10clusteringNtB7_16ClusteringEngine19calculate_wcss_bcss0B9_
FN:568,_RNCNvMs1_NtCs7bzfDg8Kx2o_10nexus_core10clusteringNtB7_16ClusteringEngine20initialize_centroids0B9_
FN:577,_RNCNvMs1_NtCs7bzfDg8Kx2o_10nexus_core10clusteringNtB7_16ClusteringEngine20initialize_centroidss_0B9_
FN:672,_RNCNvMs1_NtCs7bzfDg8Kx2o_10nexus_core10clusteringNtB7_16ClusteringEngine20label_based_grouping0B9_
FN:643,_RNCNvMs1_NtCs7bzfDg8Kx2o_10nexus_core10clusteringNtB7_16ClusteringEngine23hierarchical_clustering0B9_
FN:719,_RNCNvMs1_NtCs7bzfDg8Kx2o_10nexus_core10clusteringNtB7_16ClusteringEngine23property_based_grouping0B9_
FN:936,_RNCNvMs1_NtCs7bzfDg8Kx2o_10nexus_core10clusteringNtB7_16ClusteringEngine26calculate_silhouette_score0B9_
FN:971,_RNCNvMs1_NtCs7bzfDg8Kx2o_10nexus_core10clusteringNtB7_16ClusteringEngine26calculate_silhouette_scores0_0B9_
FN:946,_RNCNvMs1_NtCs7bzfDg8Kx2o_10nexus_core10clusteringNtB7_16ClusteringEngine26calculate_silhouette_scores_0B9_
FN:327,_RNCNvMs1_NtCs7bzfDg8Kx2o_10nexus_core10clusteringNtB7_16ClusteringEngine27extract_structural_features0B9_
FN:328,_RNCNvMs1_NtCs7bzfDg8Kx2o_10nexus_core10clusteringNtB7_16ClusteringEngine27extract_structural_featuress_0B9_
FN:1116,_RNCNvMs1_NtCs7bzfDg8Kx2o_10nexus_core10clusteringNtB7_16ClusteringEngine28calculate_cluster_dispersion0B9_
FNDA:0,_RNCNvMNtCs4yQ6d7adrZY_10nexus_core10clusteringNtB4_7Cluster11remove_node0B6_
FNDA:0,_RNCNvMs1_NtCs4yQ6d7adrZY_10nexus_core10clusteringNtB7_16ClusteringEngine17kmeans_clustering0B9_
FNDA:0,_RNCNvMs1_NtCs4yQ6d7adrZY_10nexus_core10clusteringNtB7_16ClusteringEngine18calculate_distance0B9_
FNDA:0,_RNCNvMs1_NtCs4yQ6d7adrZY_10nexus_core10clusteringNtB7_16ClusteringEngine18calculate_distances0_0B9_
FNDA:0,_RNCNvMs1_NtCs4yQ6d7adrZY_10nexus_core10clusteringNtB7_16ClusteringEngine18calculate_distances1_0B9_
FNDA:0,_RNCNvMs1_NtCs4yQ6d7adrZY_10nexus_core10clusteringNtB7_16ClusteringEngine18calculate_distances2_0B9_
FNDA:0,_RNCNvMs1_NtCs4yQ6d7adrZY_10nexus_core10clusteringNtB7_16ClusteringEngine18calculate_distances3_0B9_
FNDA:0,_RNCNvMs1_NtCs4yQ6d7adrZY_10nexus_core10clusteringNtB7_16ClusteringEngine18calculate_distances4_0B9_
FNDA:0,_RNCNvMs1_NtCs4yQ6d7adrZY_10nexus_core10clusteringNtB7_16ClusteringEngine18calculate_distances5_0B9_
FNDA:0,_RNCNvMs1_NtCs4yQ6d7adrZY_10nexus_core10clusteringNtB7_16ClusteringEngine18calculate_distances_0B9_
FNDA:0,_RNCNvMs1_NtCs4yQ6d7adrZY_10nexus_core10clusteringNtB7_16ClusteringEngine19calculate_wcss_bcss0B9_
FNDA:0,_RNCNvMs1_NtCs4yQ6d7adrZY_10nexus_core10clusteringNtB7_16ClusteringEngine20initialize_centroids0B9_
FNDA:0,_RNCNvMs1_NtCs4yQ6d7adrZY_10nexus_core10clusteringNtB7_16ClusteringEngine20initialize_centroidss_0B9_
FNDA:0,_RNCNvMs1_NtCs4yQ6d7adrZY_10nexus_core10clusteringNtB7_16ClusteringEngine20label_based_grouping0B9_
FNDA:0,_RNCNvMs1_NtCs4yQ6d7adrZY_10nexus_core10clusteringNtB7_16ClusteringEngine23hierarchical_clustering0B9_
FNDA:0,_RNCNvMs1_NtCs4yQ6d7adrZY_10nexus_core10clusteringNtB7_16ClusteringEngine23property_based_grouping0B9_
FNDA:0,_RNCNvMs1_NtCs4yQ6d7adrZY_10nexus_core10clusteringNtB7_16ClusteringEngine26calculate_silhouette_score0B9_
FNDA:0,_RNCNvMs1_NtCs4yQ6d7adrZY_10nexus_core10clusteringNtB7_16ClusteringEngine26calculate_silhouette_scores0_0B9_
FNDA:0,_RNCNvMs1_NtCs4yQ6d7adrZY_10nexus_core10clusteringNtB7_16ClusteringEngine26calculate_silhouette_scores_0B9_
FNDA:0,_RNCNvMs1_NtCs4yQ6d7adrZY_10nexus_core10clusteringNtB7_16ClusteringEngine27extract_structural_features0B9_
FNDA:0,_RNCNvMs1_NtCs4yQ6d7adrZY_10nexus_core10clusteringNtB7_16ClusteringEngine27extract_structural_featuress_0B9_
FNDA:0,_RNCNvMs1_NtCs4yQ6d7adrZY_10nexus_core10clusteringNtB7_16ClusteringEngine28calculate_cluster_dispersion0B9_
FNDA:0,_RNvMNtCs4yQ6d7adrZY_10nexus_core10clusteringNtB2_7Cluster11remove_node
FNDA:0,_RNvMNtCs4yQ6d7adrZY_10nexus_core10clusteringNtB2_7Cluster12get_metadata
FNDA:0,_RNvMNtCs4yQ6d7adrZY_10nexus_core10clusteringNtB2_7Cluster12set_metadata
FNDA:0,_RNvMNtCs4yQ6d7adrZY_10nexus_core10clusteringNtB2_7Cluster13with_centroid
FNDA:0,_RNvMNtCs4yQ6d7adrZY_10nexus_core10clusteringNtB2_7Cluster3new
FNDA:0,_RNvMNtCs4yQ6d7adrZY_10nexus_core10clusteringNtB2_7Cluster4size
FNDA:0,_RNvMNtCs4yQ6d7adrZY_10nexus_core10clusteringNtB2_7Cluster8add_node
FNDA:0,_RNvMNtCs4yQ6d7adrZY_10nexus_core10clusteringNtB2_7Cluster8is_empty
FNDA:0,_RNvMs1_NtCs4yQ6d7adrZY_10nexus_core10clusteringNtB5_16ClusteringEngine13get_neighbors
FNDA:0,_RNvMs1_NtCs4yQ6d7adrZY_10nexus_core10clusteringNtB5_16ClusteringEngine16extract_features
FNDA:0,_RNvMs1_NtCs4yQ6d7adrZY_10nexus_core10clusteringNtB5_16ClusteringEngine17calculate_metrics
FNDA:0,_RNvMs1_NtCs4yQ6d7adrZY_10nexus_core10clusteringNtB5_16ClusteringEngine17check_convergence
FNDA:0,_RNvMs1_NtCs4yQ6d7adrZY_10nexus_core10clusteringNtB5_16ClusteringEngine17dbscan_clustering
FNDA:0,_RNvMs1_NtCs4yQ6d7adrZY_10nexus_core10clusteringNtB5_16ClusteringEngine17kmeans_clustering
FNDA:0,_RNvMs1_NtCs4yQ6d7adrZY_10nexus_core10clusteringNtB5_16ClusteringEngine18calculate_distance
FNDA:0,_RNvMs1_NtCs4yQ6d7adrZY_10nexus_core10clusteringNtB5_16ClusteringEngine19calculate_wcss_bcss
FNDA:0,_RNvMs1_NtCs4yQ6d7adrZY_10nexus_core10clusteringNtB5_16ClusteringEngine19community_detection
FNDA:0,_RNvMs1_NtCs4yQ6d7adrZY_10nexus_core10clusteringNtB5_16ClusteringEngine20initialize_centroids
FNDA:0,_RNvMs1_NtCs4yQ6d7adrZY_10nexus_core10clusteringNtB5_16ClusteringEngine20label_based_grouping
FNDA:0,_RNvMs1_NtCs4yQ6d7adrZY_10nexus_core10clusteringNtB5_16ClusteringEngine22extract_label_features
FNDA:0,_RNvMs1_NtCs4yQ6d7adrZY_10nexus_core10clusteringNtB5_16ClusteringEngine23dfs_community_detection
FNDA:0,_RNvMs1_NtCs4yQ6d7adrZY_10nexus_core10clusteringNtB5_16ClusteringEngine23hierarchical_clustering
FNDA:0,_RNvMs1_NtCs4yQ6d7adrZY_10nexus_core10clusteringNtB5_16ClusteringEngine23property_based_grouping
FNDA:0,_RNvMs1_NtCs4yQ6d7adrZY_10nexus_core10clusteringNtB5_16ClusteringEngine25extract_combined_features
FNDA:0,_RNvMs1_NtCs4yQ6d7adrZY_10nexus_core10clusteringNtB5_16ClusteringEngine25extract_features_for_node
FNDA:0,_RNvMs1_NtCs4yQ6d7adrZY_10nexus_core10clusteringNtB5_16ClusteringEngine25extract_property_features
FNDA:0,_RNvMs1_NtCs4yQ6d7adrZY_10nexus_core10clusteringNtB5_16ClusteringEngine26calculate_silhouette_score
FNDA:0,_RNvMs1_NtCs4yQ6d7adrZY_10nexus_core10clusteringNtB5_16ClusteringEngine27extract_structural_features
FNDA:0,_RNvMs1_NtCs4yQ6d7adrZY_10nexus_core10clusteringNtB5_16ClusteringEngine28calculate_cluster_dispersion
FNDA:0,_RNvMs1_NtCs4yQ6d7adrZY_10nexus_core10clusteringNtB5_16ClusteringEngine30calculate_davies_bouldin_index
FNDA:0,_RNvMs1_NtCs4yQ6d7adrZY_10nexus_core10clusteringNtB5_16ClusteringEngine33calculate_cluster_distance_simple
FNDA:0,_RNvMs1_NtCs4yQ6d7adrZY_10nexus_core10clusteringNtB5_16ClusteringEngine3new
FNDA:0,_RNvMs1_NtCs4yQ6d7adrZY_10nexus_core10clusteringNtB5_16ClusteringEngine7cluster
FNDA:0,_RNvMs2_NtCs4yQ6d7adrZY_10nexus_core10clusteringNtB5_9SimpleRng3new
FNDA:0,_RNvMs2_NtCs4yQ6d7adrZY_10nexus_core10clusteringNtB5_9SimpleRng7gen_f64
FNDA:0,_RNvMs2_NtCs4yQ6d7adrZY_10nexus_core10clusteringNtB5_9SimpleRng9gen_range
FNDA:0,_RNvXs0_NtCs4yQ6d7adrZY_10nexus_core10clusteringNtB5_17ClusteringMetricsNtNtCs9Kp62OsN3pY_4core7default7Default7default
FNDA:0,_RNvXs_NtCs4yQ6d7adrZY_10nexus_core10clusteringNtB4_16ClusteringConfigNtNtCs9Kp62OsN3pY_4core7default7Default7default
FNDA:8,_RNvNtNtCs7bzfDg8Kx2o_10nexus_core10clustering5tests17create_test_graph
FNDA:1,_RNvNtNtCs7bzfDg8Kx2o_10nexus_core10clustering5testss_18test_cluster_clear
FNDA:1,_RNvNtNtCs7bzfDg8Kx2o_10nexus_core10clustering5testss_21test_cluster_creation
FNDA:1,_RNvNtNtCs7bzfDg8Kx2o_10nexus_core10clustering5testss_21test_distance_metrics
FNDA:1,_RNvNtNtCs7bzfDg8Kx2o_10nexus_core10clustering5testss_21test_hamming_distance
FNDA:1,_RNvNtNtCs7bzfDg8Kx2o_10nexus_core10clustering5testss_21test_jaccard_distance
FNDA:1,_RNvNtNtCs7bzfDg8Kx2o_10nexus_core10clustering5testss_22test_dbscan_clustering
FNDA:1,_RNvNtNtCs7bzfDg8Kx2o_10nexus_core10clustering5testss_22test_kmeans_clustering
FNDA:1,_RNvNtNtCs7bzfDg8Kx2o_10nexus_core10clustering5testss_23test_cluster_operations
FNDA:1,_RNvNtNtCs7bzfDg8Kx2o_10nexus_core10clustering5testss_25test_label_based_grouping
FNDA:1,_RNvNtNtCs7bzfDg8Kx2o_10nexus_core10clustering5testss_26test_cluster_contains_node
FNDA:1,_RNvNtNtCs7bzfDg8Kx2o_10nexus_core10clustering5testss_26test_cluster_with_centroid
FNDA:1,_RNvNtNtCs7bzfDg8Kx2o_10nexus_core10clustering5testss_26test_clustering_engine_new
FNDA:1,_RNvNtNtCs7bzfDg8Kx2o_10nexus_core10clustering5testss_26test_distance_calculations
FNDA:1,_RNvNtNtCs7bzfDg8Kx2o_10nexus_core10clustering5testss_27test_empty_graph_clustering
FNDA:1,_RNvNtNtCs7bzfDg8Kx2o_10nexus_core10clustering5testss_27test_single_node_clustering
FNDA:1,_RNvNtNtCs7bzfDg8Kx2o_10nexus_core10clustering5testss_28test_hierarchical_clustering
FNDA:1,_RNvNtNtCs7bzfDg8Kx2o_10nexus_core10clustering5testss_28test_property_based_grouping
FNDA:1,_RNvNtNtCs7bzfDg8Kx2o_10nexus_core10clustering5testss_30test_clustering_config_default
FNDA:1,_RNvNtNtCs7bzfDg8Kx2o_10nexus_core10clustering5testss_30test_combined_feature_strategy
FNDA:1,_RNvNtNtCs7bzfDg8Kx2o_10nexus_core10clustering5testss_31test_clustering_config_creation
FNDA:1,_RNvNtNtCs7bzfDg8Kx2o_10nexus_core10clustering5testss_31test_clustering_result_creation
FNDA:1,_RNvNtNtCs7bzfDg8Kx2o_10nexus_core10clustering5testss_32test_cluster_metadata_operations
FNDA:1,_RNvNtNtCs7bzfDg8Kx2o_10nexus_core10clustering5testss_32test_structural_feature_strategy
FNDA:1,_RNvNtNtCs7bzfDg8Kx2o_10nexus_core10clustering5testss_35test_community_detection_clustering
FNDA:1,_RNvMNtCs7bzfDg8Kx2o_10nexus_core10clusteringNtB2_7Cluster11remove_node
FNDA:7,_RNvMNtCs7bzfDg8Kx2o_10nexus_core10clusteringNtB2_7Cluster12get_metadata
FNDA:18,_RNvMNtCs7bzfDg8Kx2o_10nexus_core10clusteringNtB2_7Cluster12set_metadata
FNDA:1,_RNvMNtCs7bzfDg8Kx2o_10nexus_core10clusteringNtB2_7Cluster13with_centroid
FNDA:30,_RNvMNtCs7bzfDg8Kx2o_10nexus_core10clusteringNtB2_7Cluster3new
FNDA:22,_RNvMNtCs7bzfDg8Kx2o_10nexus_core10clusteringNtB2_7Cluster4size
FNDA:22,_RNvMNtCs7bzfDg8Kx2o_10nexus_core10clusteringNtB2_7Cluster8add_node
FNDA:141,_RNvMNtCs7bzfDg8Kx2o_10nexus_core10clusteringNtB2_7Cluster8is_empty
FNDA:6,_RNvMs1_NtCs7bzfDg8Kx2o_10nexus_core10clusteringNtB5_16ClusteringEngine13get_neighbors
FNDA:30,_RNvMs1_NtCs7bzfDg8Kx2o_10nexus_core10clusteringNtB5_16ClusteringEngine16extract_features
FNDA:9,_RNvMs1_NtCs7bzfDg8Kx2o_10nexus_core10clusteringNtB5_16ClusteringEngine17calculate_metrics
FNDA:5,_RNvMs1_NtCs7bzfDg8Kx2o_10nexus_core10clusteringNtB5_16ClusteringEngine17check_convergence
FNDA:1,_RNvMs1_NtCs7bzfDg8Kx2o_10nexus_core10clusteringNtB5_16ClusteringEngine17dbscan_clustering
FNDA:4,_RNvMs1_NtCs7bzfDg8Kx2o_10nexus_core10clusteringNtB5_16ClusteringEngine17kmeans_clustering
FNDA:327,_RNvMs1_NtCs7bzfDg8Kx2o_10nexus_core10clusteringNtB5_16ClusteringEngine18calculate_distance
FNDA:9,_RNvMs1_NtCs7bzfDg8Kx2o_10nexus_core10clusteringNtB5_16ClusteringEngine19calculate_wcss_bcss
FNDA:1,_RNvMs1_NtCs7bzfDg8Kx2o_10nexus_core10clusteringNtB5_16ClusteringEngine19community_detection
FNDA:4,_RNvMs1_NtCs7bzfDg8Kx2o_10nexus_core10clusteringNtB5_16ClusteringEngine20initialize_centroids
FNDA:1,_RNvMs1_NtCs7bzfDg8Kx2o_10nexus_core10clusteringNtB5_16ClusteringEngine20label_based_grouping
FNDA:22,_RNvMs1_NtCs7bzfDg8Kx2o_10nexus_core10clusteringNtB5_16ClusteringEngine22extract_label_features
FNDA:5,_RNvMs1_NtCs7bzfDg8Kx2o_10nexus_core10clusteringNtB5_16ClusteringEngine23dfs_community_detection
FNDA:1,_RNvMs1_NtCs7bzfDg8Kx2o_10nexus_core10clusteringNtB5_16ClusteringEngine23hierarchical_clustering
FNDA:1,_RNvMs1_NtCs7bzfDg8Kx2o_10nexus_core10clusteringNtB5_16ClusteringEngine23property_based_grouping
FNDA:15,_RNvMs1_NtCs7bzfDg8Kx2o_10nexus_core10clusteringNtB5_16ClusteringEngine25extract_combined_features
FNDA:21,_RNvMs1_NtCs7bzfDg8Kx2o_10nexus_core10clusteringNtB5_16ClusteringEngine25extract_features_for_node
FNDA:20,_RNvMs1_NtCs7bzfDg8Kx2o_10nexus_core10clusteringNtB5_16ClusteringEngine25extract_property_features
FNDA:9,_RNvMs1_NtCs7bzfDg8Kx2o_10nexus_core10clusteringNtB5_16ClusteringEngine26calculate_silhouette_score
FNDA:50,_RNvMs1_NtCs7bzfDg8Kx2o_10nexus_core10clusteringNtB5_16ClusteringEngine27extract_structural_features
FNDA:128,_RNvMs1_NtCs7bzfDg8Kx2o_10nexus_core10clusteringNtB5_16ClusteringEngine28calculate_cluster_dispersion
FNDA:9,_RNvMs1_NtCs7bzfDg8Kx2o_10nexus_core10clusteringNtB5_16ClusteringEngine30calculate_davies_bouldin_index
FNDA:64,_RNvMs1_NtCs7bzfDg8Kx2o_10nexus_core10clusteringNtB5_16ClusteringEngine33calculate_cluster_distance_simple
FNDA:17,_RNvMs1_NtCs7bzfDg8Kx2o_10nexus_core10clusteringNtB5_16ClusteringEngine3new
FNDA:10,_RNvMs1_NtCs7bzfDg8Kx2o_10nexus_core10clusteringNtB5_16ClusteringEngine7cluster
FNDA:4,_RNvMs2_NtCs7bzfDg8Kx2o_10nexus_core10clusteringNtB5_9SimpleRng3new
FNDA:3,_RNvMs2_NtCs7bzfDg8Kx2o_10nexus_core10clusteringNtB5_9SimpleRng7gen_f64
FNDA:4,_RNvMs2_NtCs7bzfDg8Kx2o_10nexus_core10clusteringNtB5_9SimpleRng9gen_range
FNDA:2,_RNvXs0_NtCs7bzfDg8Kx2o_10nexus_core10clusteringNtB5_17ClusteringMetricsNtNtCs9Kp62OsN3pY_4core7default7Default7default
FNDA:5,_RNvXs_NtCs7bzfDg8Kx2o_10nexus_core10clusteringNtB4_16ClusteringConfigNtNtCs9Kp62OsN3pY_4core7default7Default7default
FNDA:1,_RNCNvMNtCs7bzfDg8Kx2o_10nexus_core10clusteringNtB4_7Cluster11remove_node0B6_
FNDA:61,_RNCNvMs1_NtCs7bzfDg8Kx2o_10nexus_core10clusteringNtB7_16ClusteringEngine17kmeans_clustering0B9_
FNDA:2529,_RNCNvMs1_NtCs7bzfDg8Kx2o_10nexus_core10clusteringNtB7_16ClusteringEngine18calculate_distance0B9_
FNDA:2,_RNCNvMs1_NtCs7bzfDg8Kx2o_10nexus_core10clusteringNtB7_16ClusteringEngine18calculate_distances0_0B9_
FNDA:2,_RNCNvMs1_NtCs7bzfDg8Kx2o_10nexus_core10clusteringNtB7_16ClusteringEngine18calculate_distances1_0B9_
FNDA:2,_RNCNvMs1_NtCs7bzfDg8Kx2o_10nexus_core10clusteringNtB7_16ClusteringEngine18calculate_distances2_0B9_
FNDA:4,_RNCNvMs1_NtCs7bzfDg8Kx2o_10nexus_core10clusteringNtB7_16ClusteringEngine18calculate_distances3_0B9_
FNDA:4,_RNCNvMs1_NtCs7bzfDg8Kx2o_10nexus_core10clusteringNtB7_16ClusteringEngine18calculate_distances4_0B9_
FNDA:4,_RNCNvMs1_NtCs7bzfDg8Kx2o_10nexus_core10clusteringNtB7_16ClusteringEngine18calculate_distances5_0B9_
FNDA:2,_RNCNvMs1_NtCs7bzfDg8Kx2o_10nexus_core10clusteringNtB7_16ClusteringEngine18calculate_distances_0B9_
FNDA:46,_RNCNvMs1_NtCs7bzfDg8Kx2o_10nexus_core10clusteringNtB7_16ClusteringEngine19calculate_wcss_bcss0B9_
FNDA:15,_RNCNvMs1_NtCs7bzfDg8Kx2o_10nexus_core10clusteringNtB7_16ClusteringEngine20initialize_centroids0B9_
FNDA:15,_RNCNvMs1_NtCs7bzfDg8Kx2o_10nexus_core10clusteringNtB7_16ClusteringEngine20initialize_centroidss_0B9_
FNDA:4,_RNCNvMs1_NtCs7bzfDg8Kx2o_10nexus_core10clusteringNtB7_16ClusteringEngine20label_based_grouping0B9_
FNDA:5,_RNCNvMs1_NtCs7bzfDg8Kx2o_10nexus_core10clusteringNtB7_16ClusteringEngine23hierarchical_clustering0B9_
FNDA:3,_RNCNvMs1_NtCs7bzfDg8Kx2o_10nexus_core10clusteringNtB7_16ClusteringEngine23property_based_grouping0B9_
FNDA:124,_RNCNvMs1_NtCs7bzfDg8Kx2o_10nexus_core10clusteringNtB7_16ClusteringEngine26calculate_silhouette_score0B9_
FNDA:421,_RNCNvMs1_NtCs7bzfDg8Kx2o_10nexus_core10clusteringNtB7_16ClusteringEngine26calculate_silhouette_scores0_0B9_
FNDA:130,_RNCNvMs1_NtCs7bzfDg8Kx2o_10nexus_core10clusteringNtB7_16ClusteringEngine26calculate_silhouette_scores_0B9_
FNDA:0,_RNCNvMs1_NtCs7bzfDg8Kx2o_10nexus_core10clusteringNtB7_16ClusteringEngine27extract_structural_features0B9_
FNDA:0,_RNCNvMs1_NtCs7bzfDg8Kx2o_10nexus_core10clusteringNtB7_16ClusteringEngine27extract_structural_featuress_0B9_
FNDA:90,_RNCNvMs1_NtCs7bzfDg8Kx2o_10nexus_core10clusteringNtB7_16ClusteringEngine28calculate_cluster_dispersion0B9_
FNF:85
FNH:83
DA:28,30
DA:29,30
DA:30,30
DA:31,30
DA:32,30
DA:33,30
DA:34,30
DA:35,30
DA:38,1
DA:39,1
DA:40,1
DA:41,1
DA:42,1
DA:43,1
DA:44,1
DA:45,1
DA:48,22
DA:49,22
DA:50,22
DA:53,141
DA:54,141
DA:55,141
DA:58,22
DA:59,22
DA:60,22
DA:61,22
DA:62,22
DA:65,1
DA:66,1
DA:67,1
DA:68,1
DA:70,0
DA:72,1
DA:75,18
DA:76,18
DA:77,18
DA:80,7
DA:81,7
DA:82,7
DA:129,5
DA:130,5
DA:131,5
DA:132,5
DA:133,5
DA:134,5
DA:135,5
DA:136,5
DA:137,5
DA:138,5
DA:139,5
DA:201,2
DA:202,2
DA:203,2
DA:204,2
DA:205,2
DA:206,2
DA:207,2
DA:208,2
DA:209,2
DA:219,17
DA:220,17
DA:221,17
DA:224,10
DA:225,10
DA:226,10
DA:227,1
DA:228,1
DA:229,1
DA:230,1
DA:231,1
DA:232,1
DA:233,1
DA:234,9
DA:237,9
DA:239,9
DA:240,4
DA:241,4
DA:243,1
DA:244,1
DA:246,1
DA:247,1
DA:248,1
DA:250,1
DA:251,1
DA:252,1
DA:255,10
DA:258,30
DA:259,30
DA:261,92
DA:262,62
DA:263,7
DA:264,5
DA:265,5
DA:267,35
DA:268,15
DA:269,15
DA:272,62
DA:275,30
DA:276,30
DA:279,22
DA:283,22
DA:285,34
DA:286,34
DA:287,34
DA:288,34
DA:291,22
DA:292,22
DA:295,20
DA:296,20
DA:298,40
DA:299,20
DA:300,12
DA:301,9
DA:302,0
DA:303,0
DA:304,3
DA:305,3
DA:306,3
DA:307,3
DA:308,0
DA:310,8
DA:311,8
DA:312,8
DA:315,20
DA:316,20
DA:319,50
DA:320,50
DA:323,50
DA:324,50
DA:327,50
DA:328,50
DA:329,50
DA:330,50
DA:333,50
DA:336,50
DA:338,50
DA:339,50
DA:342,15
DA:343,15
DA:344,15
DA:345,15
DA:346,15
DA:347,15
DA:348,15
DA:350,60
DA:351,45
DA:352,15
DA:353,15
DA:354,15
DA:356,15
DA:359,0
DA:362,45
DA:365,15
DA:366,15
DA:369,327
DA:370,327
DA:371,0
DA:372,327
DA:374,327
DA:375,323
DA:376,323
DA:377,323
DA:378,2529
DA:379,323
DA:380,323
DA:381,1
DA:382,1
DA:383,1
DA:384,2
DA:385,1
DA:387,1
DA:388,1
DA:389,1
DA:390,2
DA:391,1
DA:392,2
DA:393,2
DA:395,1
DA:396,0
DA:398,1
DA:403,1
DA:404,1
DA:405,1
DA:406,4
DA:407,1
DA:408,1
DA:409,1
DA:410,1
DA:411,4
DA:412,1
DA:414,1
DA:415,0
DA:417,1
DA:420,1
DA:421,1
DA:422,1
DA:423,4
DA:424,4
DA:425,2
DA:427,2
DA:429,4
DA:430,1
DA:432,327
DA:435,4
DA:436,4
DA:437,4
DA:438,4
DA:439,4
DA:440,4
DA:441,4
DA:442,4
DA:443,0
DA:444,0
DA:445,0
DA:446,0
DA:447,0
DA:448,0
DA:449,0
DA:450,4
DA:452,4
DA:453,4
DA:454,4
DA:457,4
DA:458,4
DA:459,4
DA:460,4
DA:462,5
DA:463,5
DA:466,9
DA:467,9
DA:468,9
DA:470,21
DA:471,21
DA:472,21
DA:474,41
DA:475,41
DA:476,41
DA:477,31
DA:478,31
DA:479,31
DA:482,21
DA:486,5
DA:487,14
DA:488,9
DA:489,0
DA:490,0
DA:491,9
DA:493,9
DA:494,30
DA:495,61
DA:496,21
DA:497,220
DA:498,220
DA:499,220
DA:500,220
DA:502,0
DA:505,9
DA:506,9
DA:507,103
DA:508,94
DA:509,94
DA:510,0
DA:512,9
DA:516,5
DA:517,5
DA:519,5
DA:520,4
DA:521,1
DA:525,7
DA:526,7
DA:527,7
DA:528,7
DA:531,4
DA:533,4
DA:534,4
DA:535,4
DA:536,4
DA:537,4
DA:538,4
DA:539,4
DA:540,4
DA:543,4
DA:544,4
DA:545,0
DA:546,4
DA:548,4
DA:549,4
DA:552,4
DA:553,3
DA:555,1
DA:559,4
DA:560,4
DA:563,4
DA:564,3
DA:565,18
DA:566,15
DA:567,15
DA:568,15
DA:569,15
DA:570,15
DA:574,3
DA:575,3
DA:576,3
DA:577,15
DA:580,3
DA:581,3
DA:582,3
DA:584,14
DA:585,14
DA:586,14
DA:587,3
DA:588,3
DA:589,11
DA:592,3
DA:593,0
DA:594,0
DA:595,0
DA:596,0
DA:597,0
DA:600,4
DA:601,4
DA:604,5
DA:605,5
DA:606,0
DA:607,5
DA:609,5
DA:610,9
DA:611,9
DA:612,0
DA:613,9
DA:614,89
DA:615,89
DA:616,1
DA:617,88
DA:620,4
DA:621,5
DA:624,21
DA:625,21
DA:626,21
DA:627,21
DA:628,21
DA:631,1
DA:632,1
DA:633,1
DA:634,1
DA:635,1
DA:636,1
DA:638,1
DA:639,1
DA:642,1
DA:643,5
DA:644,1
DA:648,1
DA:650,1
DA:651,1
DA:652,1
DA:653,1
DA:654,1
DA:655,1
DA:656,1
DA:657,1
DA:660,1
DA:661,1
DA:663,6
DA:664,13
DA:665,8
DA:666,8
DA:669,1
DA:670,1
DA:671,1
DA:672,4
DA:673,4
DA:674,4
DA:675,4
DA:676,4
DA:677,1
DA:679,1
DA:680,1
DA:682,1
DA:683,1
DA:684,1
DA:685,1
DA:686,1
DA:687,1
DA:688,1
DA:689,1
DA:692,1
DA:693,1
DA:694,1
DA:695,1
DA:696,1
DA:697,1
DA:698,1
DA:700,6
DA:701,5
DA:702,3
DA:703,3
DA:704,0
DA:705,0
DA:706,0
DA:707,0
DA:710,2
DA:713,5
DA:716,1
DA:717,1
DA:718,1
DA:719,3
DA:720,3
DA:721,3
DA:722,3
DA:723,3
DA:724,1
DA:726,1
DA:727,1
DA:729,1
DA:730,1
DA:731,1
DA:732,1
DA:733,1
DA:734,1
DA:735,1
DA:736,1
DA:739,1
DA:742,1
DA:743,1
DA:744,1
DA:746,6
DA:747,5
DA:748,5
DA:749,5
DA:751,5
DA:752,5
DA:753,5
DA:754,5
DA:755,5
DA:756,5
DA:757,5
DA:758,5
DA:759,5
DA:760,0
DA:763,1
DA:764,1
DA:766,1
DA:767,1
DA:768,1
DA:769,1
DA:770,1
DA:771,1
DA:772,1
DA:773,1
DA:776,5
DA:777,5
DA:778,5
DA:779,5
DA:780,5
DA:781,5
DA:782,5
DA:783,5
DA:784,5
DA:786,5
DA:787,5
DA:788,0
DA:789,0
DA:790,0
DA:791,0
DA:794,5
DA:795,5
DA:798,1
DA:799,1
DA:800,1
DA:801,1
DA:802,1
DA:803,1
DA:804,1
DA:805,1
DA:806,0
DA:807,0
DA:808,0
DA:809,0
DA:810,0
DA:811,0
DA:812,0
DA:813,1
DA:815,1
DA:816,1
DA:817,1
DA:818,1
DA:820,5
DA:821,5
DA:822,2
DA:823,3
DA:825,3
DA:826,3
DA:827,2
DA:828,1
DA:830,1
DA:831,1
DA:832,1
DA:834,4
DA:835,3
DA:836,3
DA:838,3
DA:839,9
DA:840,6
DA:841,2
DA:842,2
DA:843,4
DA:845,0
DA:848,1
DA:849,1
DA:850,1
DA:851,1
DA:852,1
DA:853,1
DA:854,1
DA:855,1
DA:856,1
DA:859,1
DA:861,1
DA:862,1
DA:863,1
DA:864,1
DA:865,1
DA:866,1
DA:867,1
DA:868,1
DA:871,6
DA:872,6
DA:873,6
DA:875,30
DA:876,30
DA:877,24
DA:878,24
DA:879,10
DA:880,14
DA:881,6
DA:884,6
DA:885,6
DA:888,9
DA:889,9
DA:890,9
DA:891,9
DA:892,9
DA:893,9
DA:894,9
DA:895,9
DA:896,0
DA:897,9
DA:900,9
DA:903,9
DA:906,9
DA:907,1
DA:909,8
DA:913,9
DA:915,9
DA:916,9
DA:917,9
DA:918,9
DA:919,9
DA:920,9
DA:921,9
DA:922,9
DA:925,9
DA:926,9
DA:927,9
DA:928,9
DA:929,9
DA:930,9
DA:931,9
DA:932,9
DA:934,34
DA:935,67
DA:936,124
DA:937,42
DA:940,42
DA:941,42
DA:943,128
DA:944,86
DA:945,44
DA:946,130
DA:947,44
DA:948,44
DA:949,44
DA:950,44
DA:951,44
DA:952,42
DA:955,42
DA:956,29
DA:958,13
DA:962,42
DA:964,173
DA:965,131
DA:966,89
DA:967,89
DA:969,227
DA:970,138
DA:971,421
DA:972,138
DA:973,138
DA:974,138
DA:975,138
DA:976,138
DA:979,89
DA:980,89
DA:982,0
DA:984,89
DA:985,42
DA:988,42
DA:989,4
DA:991,38
DA:995,42
DA:996,42
DA:998,42
DA:999,42
DA:1000,0
DA:1004,9
DA:1005,9
DA:1007,0
DA:1009,9
DA:1012,9
DA:1013,9
DA:1014,9
DA:1015,9
DA:1016,9
DA:1017,9
DA:1018,9
DA:1019,0
DA:1020,9
DA:1022,9
DA:1023,9
DA:1024,9
DA:1027,50
DA:1028,270
DA:1029,270
DA:1030,270
DA:1031,270
DA:1033,41
DA:1036,9
DA:1037,71
DA:1038,62
DA:1039,62
DA:1040,0
DA:1043,9
DA:1044,34
DA:1045,25
DA:1046,23
DA:1047,46
DA:1048,16
DA:1049,16
DA:1050,16
DA:1052,18
DA:1056,9
DA:1057,34
DA:1058,25
DA:1059,7
DA:1060,7
DA:1061,18
DA:1064,9
DA:1065,9
DA:1068,9
DA:1069,9
DA:1070,9
DA:1071,9
DA:1072,9
DA:1073,9
DA:1074,9
DA:1075,2
DA:1076,7
DA:1078,7
DA:1080,30
DA:1081,23
DA:1083,110
DA:1084,87
DA:1085,64
DA:1086,64
DA:1087,64
DA:1089,64
DA:1090,64
DA:1091,23
DA:1094,23
DA:1097,7
DA:1098,9
DA:1101,128
DA:1102,128
DA:1103,128
DA:1104,128
DA:1105,128
DA:1106,128
DA:1107,128
DA:1108,0
DA:1109,128
DA:1111,128
DA:1112,128
DA:1114,128
DA:1115,42
DA:1116,90
DA:1117,30
DA:1118,30
DA:1119,30
DA:1120,30
DA:1122,116
DA:1124,128
DA:1125,12
DA:1127,116
DA:1129,128
DA:1132,64
DA:1133,64
DA:1134,64
DA:1135,64
DA:1136,64
DA:1137,64
DA:1138,6
DA:1140,58
DA:1142,64
DA:1151,4
DA:1152,4
DA:1153,4
DA:1155,4
DA:1156,4
DA:1157,4
DA:1158,4
DA:1159,4
DA:1160,4
DA:1162,3
DA:1163,3
DA:1164,3
DA:1165,3
DA:1172,8
DA:1173,8
DA:1176,8
DA:1177,8
DA:1178,8
DA:1179,8
DA:1180,8
DA:1181,8
DA:1182,8
DA:1183,8
DA:1184,8
DA:1185,8
DA:1186,8
DA:1189,8
DA:1190,8
DA:1191,8
DA:1192,8
DA:1193,8
DA:1195,8
DA:1197,8
DA:1198,8
DA:1199,8
DA:1200,8
DA:1201,8
DA:1203,8
DA:1205,8
DA:1206,8
DA:1207,8
DA:1208,8
DA:1209,8
DA:1211,8
DA:1213,8
DA:1214,8
DA:1215,8
DA:1216,8
DA:1218,8
DA:1220,8
DA:1221,8
DA:1222,8
DA:1223,8
DA:1225,8
DA:1227,8
DA:1228,8
DA:1231,1
DA:1232,1
DA:1233,1
DA:1234,1
DA:1235,1
DA:1236,1
DA:1237,1
DA:1238,1
DA:1240,1
DA:1241,1
DA:1243,1
DA:1244,1
DA:1245,1
DA:1246,1
DA:1249,1
DA:1250,1
DA:1251,1
DA:1252,1
DA:1253,1
DA:1254,1
DA:1255,1
DA:1256,1
DA:1257,1
DA:1258,1
DA:1259,1
DA:1260,1
DA:1262,1
DA:1263,1
DA:1265,1
DA:1266,1
DA:1267,1
DA:1270,1
DA:1271,1
DA:1272,1
DA:1273,1
DA:1274,1
DA:1275,1
DA:1276,1
DA:1277,1
DA:1278,1
DA:1279,1
DA:1280,1
DA:1282,1
DA:1283,1
DA:1285,1
DA:1286,1
DA:1287,1
DA:1290,1
DA:1291,1
DA:1292,1
DA:1293,1
DA:1294,1
DA:1296,1
DA:1297,1
DA:1298,1
DA:1301,1
DA:1302,1
DA:1304,1
DA:1305,1
DA:1307,1
DA:1308,1
DA:1310,1
DA:1311,1
DA:1312,1
DA:1314,1
DA:1315,1
DA:1318,1
DA:1319,1
DA:1320,1
DA:1322,1
DA:1323,1
DA:1325,1
DA:1326,1
DA:1327,1
DA:1330,1
DA:1331,1
DA:1332,1
DA:1333,1
DA:1335,1
DA:1336,1
DA:1337,1
DA:1338,1
DA:1341,1
DA:1342,1
DA:1345,1
DA:1346,1
DA:1347,1
DA:1349,1
DA:1352,1
DA:1353,1
DA:1354,1
DA:1356,1
DA:1357,1
DA:1360,1
DA:1363,1
DA:1364,1
DA:1365,1
DA:1366,1
DA:1369,1
DA:1372,1
DA:1373,1
DA:1375,1
DA:1376,1
DA:1377,1
DA:1378,1
DA:1379,1
DA:1382,1
DA:1383,1
DA:1384,1
DA:1385,1
DA:1386,1
DA:1389,1
DA:1390,1
DA:1392,1
DA:1393,1
DA:1395,1
DA:1396,1
DA:1397,1
DA:1398,1
DA:1401,1
DA:1402,1
DA:1403,1
DA:1404,1
DA:1410,1
DA:1411,1
DA:1414,1
DA:1415,1
DA:1416,1
DA:1419,1
DA:1420,1
DA:1421,1
DA:1422,1
DA:1423,1
DA:1424,1
DA:1425,1
DA:1427,1
DA:1428,1
DA:1429,1
DA:1432,1
DA:1433,1
DA:1434,1
DA:1437,1
DA:1438,1
DA:1439,1
DA:1440,1
DA:1441,1
DA:1444,1
DA:1445,1
DA:1446,1
DA:1447,1
DA:1448,1
DA:1449,1
DA:1450,1
DA:1451,1
DA:1453,1
DA:1454,1
DA:1455,1
DA:1456,1
DA:1457,1
DA:1458,1
DA:1459,1
DA:1461,1
DA:1462,1
DA:1463,1
DA:1464,1
DA:1465,1
DA:1466,1
DA:1467,1
DA:1469,1
DA:1470,1
DA:1472,1
DA:1473,1
DA:1474,1
DA:1476,1
DA:1477,1
DA:1478,1
DA:1479,1
DA:1482,1
DA:1483,1
DA:1484,1
DA:1485,1
DA:1487,1
DA:1488,1
DA:1489,1
DA:1490,1
DA:1491,1
DA:1492,1
DA:1493,1
DA:1494,1
DA:1495,1
DA:1496,1
DA:1497,1
DA:1499,1
DA:1500,1
DA:1501,1
DA:1502,1
DA:1503,1
DA:1506,1
DA:1507,1
DA:1508,1
DA:1509,1
DA:1511,1
DA:1512,1
DA:1513,1
DA:1514,1
DA:1517,1
DA:1518,1
DA:1519,1
DA:1521,1
DA:1522,1
DA:1524,1
DA:1525,1
DA:1526,1
DA:1527,1
DA:1530,1
DA:1531,1
DA:1532,1
DA:1533,1
DA:1534,1
DA:1535,1
DA:1536,1
DA:1537,1
DA:1538,1
DA:1539,1
DA:1540,1
DA:1542,1
DA:1543,1
DA:1545,1
DA:1546,1
DA:1547,1
DA:1550,1
DA:1551,1
DA:1552,1
DA:1553,1
DA:1554,1
DA:1555,1
DA:1556,1
DA:1557,1
DA:1558,1
DA:1559,1
DA:1561,1
DA:1562,1
DA:1564,1
DA:1565,1
DA:1566,1
DA:1569,1
DA:1570,1
DA:1571,1
DA:1572,1
DA:1573,1
DA:1574,1
DA:1575,1
DA:1576,1
DA:1578,1
DA:1579,1
DA:1581,1
DA:1582,1
DA:1583,1
DA:1586,1
DA:1587,1
DA:1588,1
DA:1589,1
DA:1590,1
DA:1591,1
DA:1592,1
DA:1593,1
DA:1594,1
DA:1595,1
DA:1596,1
DA:1598,1
DA:1599,1
DA:1601,1
DA:1602,1
DA:1603,1
DA:1606,1
DA:1607,1
DA:1608,1
DA:1609,1
DA:1610,1
DA:1611,1
DA:1612,1
DA:1613,1
DA:1614,1
DA:1615,1
DA:1616,1
DA:1617,1
DA:1618,1
DA:1619,1
DA:1620,1
DA:1621,1
DA:1622,1
DA:1623,1
DA:1624,1
DA:1626,1
DA:1627,1
DA:1629,1
DA:1630,1
DA:1631,1
DA:1634,1
DA:1635,1
DA:1636,1
DA:1637,1
DA:1638,1
DA:1639,1
DA:1640,1
DA:1641,1
DA:1643,1
DA:1644,1
DA:1646,1
DA:1650,1
DA:1651,1
DA:1654,1
DA:1655,1
DA:1656,1
DA:1657,1
DA:1658,1
DA:1659,1
DA:1660,1
DA:1661,1
DA:1663,1
DA:1664,1
DA:1666,1
DA:1667,1
DA:1668,1
BRF:0
BRH:0
LF:1116
LH:1063
end_of_record
SF:/mnt/f/Node/hivellm/nexus/nexus-core/src/error.rs
FN:92,_RINvMNtCs4yQ6d7adrZY_10nexus_core5errorNtB3_5Error10page_cacheNtNtCs2jSHSziefvq_5alloc6string6StringEB5_
FN:92,_RINvMNtCs4yQ6d7adrZY_10nexus_core5errorNtB3_5Error10page_cacheReEB5_
FN:107,_RINvMNtCs4yQ6d7adrZY_10nexus_core5errorNtB3_5Error11transactionNtNtCs2jSHSziefvq_5alloc6string6StringEB5_
FN:107,_RINvMNtCs4yQ6d7adrZY_10nexus_core5errorNtB3_5Error11transactionReEB5_
FN:97,_RINvMNtCs4yQ6d7adrZY_10nexus_core5errorNtB3_5Error3walNtNtCs2jSHSziefvq_5alloc6string6StringEB5_
FN:97,_RINvMNtCs4yQ6d7adrZY_10nexus_core5errorNtB3_5Error3walReEB5_
FN:112,_RINvMNtCs4yQ6d7adrZY_10nexus_core5errorNtB3_5Error5indexReEB5_
FN:87,_RINvMNtCs4yQ6d7adrZY_10nexus_core5errorNtB3_5Error7storageReEB5_
FN:122,_RINvMNtCs7bzfDg8Kx2o_10nexus_core5errorNtB3_5Error17graph_correlationpEB5_
FN:92,_RINvMNtCs7bzfDg8Kx2o_10nexus_core5errorNtB3_5Error10page_cacheNtNtCs2jSHSziefvq_5alloc6string6StringEB5_
FN:92,_RINvMNtCs7bzfDg8Kx2o_10nexus_core5errorNtB3_5Error10page_cacheReEB5_
FN:107,_RINvMNtCs7bzfDg8Kx2o_10nexus_core5errorNtB3_5Error11transactionNtNtCs2jSHSziefvq_5alloc6string6StringEB5_
FN:107,_RINvMNtCs7bzfDg8Kx2o_10nexus_core5errorNtB3_5Error11transactionReEB5_
FN:97,_RINvMNtCs7bzfDg8Kx2o_10nexus_core5errorNtB3_5Error3walNtNtCs2jSHSziefvq_5alloc6string6StringEB5_
FN:97,_RINvMNtCs7bzfDg8Kx2o_10nexus_core5errorNtB3_5Error3walReEB5_
FN:112,_RINvMNtCs7bzfDg8Kx2o_10nexus_core5errorNtB3_5Error5indexReEB5_
FN:102,_RINvMNtCs7bzfDg8Kx2o_10nexus_core5errorNtB3_5Error7catalogReEB5_
FN:87,_RINvMNtCs7bzfDg8Kx2o_10nexus_core5errorNtB3_5Error7storageReEB5_
FN:117,_RINvMNtCs7bzfDg8Kx2o_10nexus_core5errorNtB3_5Error8executorReEB5_
FN:127,_RINvMNtCs7bzfDg8Kx2o_10nexus_core5errorNtB3_5Error8internalReEB5_
FNDA:0,_RINvMNtCs4yQ6d7adrZY_10nexus_core5errorNtB3_5Error10page_cacheNtNtCs2jSHSziefvq_5alloc6string6StringEB5_
FNDA:0,_RINvMNtCs4yQ6d7adrZY_10nexus_core5errorNtB3_5Error10page_cacheReEB5_
FNDA:0,_RINvMNtCs4yQ6d7adrZY_10nexus_core5errorNtB3_5Error11transactionNtNtCs2jSHSziefvq_5alloc6string6StringEB5_
FNDA:0,_RINvMNtCs4yQ6d7adrZY_10nexus_core5errorNtB3_5Error11transactionReEB5_
FNDA:0,_RINvMNtCs4yQ6d7adrZY_10nexus_core5errorNtB3_5Error3walNtNtCs2jSHSziefvq_5alloc6string6StringEB5_
FNDA:4,_RINvMNtCs4yQ6d7adrZY_10nexus_core5errorNtB3_5Error3walReEB5_
FNDA:0,_RINvMNtCs4yQ6d7adrZY_10nexus_core5errorNtB3_5Error5indexReEB5_
FNDA:4,_RINvMNtCs4yQ6d7adrZY_10nexus_core5errorNtB3_5Error7storageReEB5_
FNDA:0,_RINvMNtCs7bzfDg8Kx2o_10nexus_core5errorNtB3_5Error17graph_correlationpEB5_
FNDA:1,_RINvMNtCs7bzfDg8Kx2o_10nexus_core5errorNtB3_5Error10page_cacheNtNtCs2jSHSziefvq_5alloc6string6StringEB5_
FNDA:3,_RINvMNtCs7bzfDg8Kx2o_10nexus_core5errorNtB3_5Error10page_cacheReEB5_
FNDA:2,_RINvMNtCs7bzfDg8Kx2o_10nexus_core5errorNtB3_5Error11transactionNtNtCs2jSHSziefvq_5alloc6string6StringEB5_
FNDA:1,_RINvMNtCs7bzfDg8Kx2o_10nexus_core5errorNtB3_5Error11transactionReEB5_
FNDA:1,_RINvMNtCs7bzfDg8Kx2o_10nexus_core5errorNtB3_5Error3walNtNtCs2jSHSziefvq_5alloc6string6StringEB5_
FNDA:2,_RINvMNtCs7bzfDg8Kx2o_10nexus_core5errorNtB3_5Error3walReEB5_
FNDA:1,_RINvMNtCs7bzfDg8Kx2o_10nexus_core5errorNtB3_5Error5indexReEB5_
FNDA:1,_RINvMNtCs7bzfDg8Kx2o_10nexus_core5errorNtB3_5Error7catalogReEB5_
FNDA:2,_RINvMNtCs7bzfDg8Kx2o_10nexus_core5errorNtB3_5Error7storageReEB5_
FNDA:1,_RINvMNtCs7bzfDg8Kx2o_10nexus_core5errorNtB3_5Error8executorReEB5_
FNDA:1,_RINvMNtCs7bzfDg8Kx2o_10nexus_core5errorNtB3_5Error8internalReEB5_
FNF:9
FNH:8
DA:87,6
DA:88,6
DA:89,6
DA:92,4
DA:93,4
DA:94,4
DA:97,7
DA:98,7
DA:99,7
DA:102,1
DA:103,1
DA:104,1
DA:107,3
DA:108,3
DA:109,3
DA:112,1
DA:113,1
DA:114,1
DA:117,1
DA:118,1
DA:119,1
DA:122,0
DA:123,0
DA:124,0
DA:127,1
DA:128,1
DA:129,1
BRF:0
BRH:0
LF:27
LH:24
end_of_record
SF:/mnt/f/Node/hivellm/nexus/nexus-core/src/executor/mod.rs
FN:1371,_RINvMNtCs4yQ6d7adrZY_10nexus_core8executorNtB3_8Executor14compare_valuesNCNvB2_18evaluate_predicate0EB5_
FN:1371,_RINvMNtCs4yQ6d7adrZY_10nexus_core8executorNtB3_8Executor14compare_valuesNCNvB2_18evaluate_predicates0_0EB5_
FN:1371,_RINvMNtCs4yQ6d7adrZY_10nexus_core8executorNtB3_8Executor14compare_valuesNCNvB2_18evaluate_predicates1_0EB5_
FN:1371,_RINvMNtCs4yQ6d7adrZY_10nexus_core8executorNtB3_8Executor14compare_valuesNCNvB2_18evaluate_predicates_0EB5_
FN:636,_RNCNvMNtCs4yQ6d7adrZY_10nexus_core8executorNtB4_8Executor12execute_sort0B6_
FN:1384,_RNCNvMNtCs4yQ6d7adrZY_10nexus_core8executorNtB4_8Executor15value_to_number0B6_
FN:1388,_RNCNvMNtCs4yQ6d7adrZY_10nexus_core8executorNtB4_8Executor15value_to_numbers_0B6_
FN:1258,_RNCNvMNtCs4yQ6d7adrZY_10nexus_core8executorNtB4_8Executor16get_column_index0B6_
FN:689,_RNCNvMNtCs4yQ6d7adrZY_10nexus_core8executorNtB4_8Executor17execute_aggregate0B6_
FN:729,_RNCNvMNtCs4yQ6d7adrZY_10nexus_core8executorNtB4_8Executor17execute_aggregates0_0B6_
FN:745,_RNCNvMNtCs4yQ6d7adrZY_10nexus_core8executorNtB4_8Executor17execute_aggregates1_0B6_
FN:749,_RNCNvMNtCs4yQ6d7adrZY_10nexus_core8executorNtB4_8Executor17execute_aggregates2_0B6_
FN:771,_RNCNvMNtCs4yQ6d7adrZY_10nexus_core8executorNtB4_8Executor17execute_aggregates3_0B6_
FN:775,_RNCNvMNtCs4yQ6d7adrZY_10nexus_core8executorNtB4_8Executor17execute_aggregates4_0B6_
FN:802,_RNCNvMNtCs4yQ6d7adrZY_10nexus_core8executorNtB4_8Executor17execute_aggregates5_0B6_
FN:806,_RNCNvMNtCs4yQ6d7adrZY_10nexus_core8executorNtB4_8Executor17execute_aggregates6_0B6_
FN:813,_RNCNvMNtCs4yQ6d7adrZY_10nexus_core8executorNtB4_8Executor17execute_aggregates7_0B6_
FN:832,_RNCNvMNtCs4yQ6d7adrZY_10nexus_core8executorNtB4_8Executor17execute_aggregates8_0B6_
FN:836,_RNCNvMNtCs4yQ6d7adrZY_10nexus_core8executorNtB4_8Executor17execute_aggregates9_0B6_
FN:725,_RNCNvMNtCs4yQ6d7adrZY_10nexus_core8executorNtB4_8Executor17execute_aggregates_0B6_
FN:843,_RNCNvMNtCs4yQ6d7adrZY_10nexus_core8executorNtB4_8Executor17execute_aggregatesa_0B6_
FN:1277,_RNCNvMNtCs4yQ6d7adrZY_10nexus_core8executorNtB4_8Executor18evaluate_predicate0B6_
FN:1283,_RNCNvMNtCs4yQ6d7adrZY_10nexus_core8executorNtB4_8Executor18evaluate_predicates0_0B6_
FN:1286,_RNCNvMNtCs4yQ6d7adrZY_10nexus_core8executorNtB4_8Executor18evaluate_predicates1_0B6_
FN:1280,_RNCNvMNtCs4yQ6d7adrZY_10nexus_core8executorNtB4_8Executor18evaluate_predicates_0B6_
FN:1108,_RNvMNtCs4yQ6d7adrZY_10nexus_core8executorNtB2_8Executor10rows_match
FN:963,_RNvMNtCs4yQ6d7adrZY_10nexus_core8executorNtB2_8Executor12execute_join
FN:618,_RNvMNtCs4yQ6d7adrZY_10nexus_core8executorNtB2_8Executor12execute_sort
FN:599,_RNvMNtCs4yQ6d7adrZY_10nexus_core8executorNtB2_8Executor13execute_limit
FN:867,_RNvMNtCs4yQ6d7adrZY_10nexus_core8executorNtB2_8Executor13execute_union
FN:1401,_RNvMNtCs4yQ6d7adrZY_10nexus_core8executorNtB2_8Executor13value_to_bool
FN:503,_RNvMNtCs4yQ6d7adrZY_10nexus_core8executorNtB2_8Executor14execute_expand
FN:474,_RNvMNtCs4yQ6d7adrZY_10nexus_core8executorNtB2_8Executor14execute_filter
FN:327,_RNvMNtCs4yQ6d7adrZY_10nexus_core8executorNtB2_8Executor14parse_and_plan
FN:581,_RNvMNtCs4yQ6d7adrZY_10nexus_core8executorNtB2_8Executor15execute_project
FN:1381,_RNvMNtCs4yQ6d7adrZY_10nexus_core8executorNtB2_8Executor15value_to_number
FN:1547,_RNvMNtCs4yQ6d7adrZY_10nexus_core8executorNtB2_8Executor15value_to_string
FN:1210,_RNvMNtCs4yQ6d7adrZY_10nexus_core8executorNtB2_8Executor16execute_distinct
FN:900,_RNvMNtCs4yQ6d7adrZY_10nexus_core8executorNtB2_8Executor16execute_operator
FN:1257,_RNvMNtCs4yQ6d7adrZY_10nexus_core8executorNtB2_8Executor16get_column_index
FN:1487,_RNvMNtCs4yQ6d7adrZY_10nexus_core8executorNtB2_8Executor16get_column_value
FN:671,_RNvMNtCs4yQ6d7adrZY_10nexus_core8executorNtB2_8Executor17execute_aggregate
FN:1262,_RNvMNtCs4yQ6d7adrZY_10nexus_core8executorNtB2_8Executor18evaluate_predicate
FN:1132,_RNvMNtCs4yQ6d7adrZY_10nexus_core8executorNtB2_8Executor18execute_index_scan
FN:1413,_RNvMNtCs4yQ6d7adrZY_10nexus_core8executorNtB2_8Executor18find_relationships
FN:1464,_RNvMNtCs4yQ6d7adrZY_10nexus_core8executorNtB2_8Executor18read_node_as_value
FN:1319,_RNvMNtCs4yQ6d7adrZY_10nexus_core8executorNtB2_8Executor19evaluate_expression
FN:451,_RNvMNtCs4yQ6d7adrZY_10nexus_core8executorNtB2_8Executor21execute_node_by_label
FN:1511,_RNvMNtCs4yQ6d7adrZY_10nexus_core8executorNtB2_8Executor23compare_values_for_sort
FN:227,_RNvMNtCs4yQ6d7adrZY_10nexus_core8executorNtB2_8Executor3new
FN:242,_RNvMNtCs4yQ6d7adrZY_10nexus_core8executorNtB2_8Executor7execute
FN:1595,_RNvMs_NtCs4yQ6d7adrZY_10nexus_core8executorNtB4_16ExecutionContext12get_variable
FN:1591,_RNvMs_NtCs4yQ6d7adrZY_10nexus_core8executorNtB4_16ExecutionContext12set_variable
FN:1580,_RNvMs_NtCs4yQ6d7adrZY_10nexus_core8executorNtB4_16ExecutionContext3new
FN:1601,_RNvXs0_NtCs4yQ6d7adrZY_10nexus_core8executorNtB5_8ExecutorNtNtCs9Kp62OsN3pY_4core7default7Default7default
FN:1108,_RNvMNtCs7bzfDg8Kx2o_10nexus_core8executorNtB2_8Executor10rows_match
FN:963,_RNvMNtCs7bzfDg8Kx2o_10nexus_core8executorNtB2_8Executor12execute_join
FN:618,_RNvMNtCs7bzfDg8Kx2o_10nexus_core8executorNtB2_8Executor12execute_sort
FN:599,_RNvMNtCs7bzfDg8Kx2o_10nexus_core8executorNtB2_8Executor13execute_limit
FN:867,_RNvMNtCs7bzfDg8Kx2o_10nexus_core8executorNtB2_8Executor13execute_union
FN:1401,_RNvMNtCs7bzfDg8Kx2o_10nexus_core8executorNtB2_8Executor13value_to_bool
FN:503,_RNvMNtCs7bzfDg8Kx2o_10nexus_core8executorNtB2_8Executor14execute_expand
FN:474,_RNvMNtCs7bzfDg8Kx2o_10nexus_core8executorNtB2_8Executor14execute_filter
FN:327,_RNvMNtCs7bzfDg8Kx2o_10nexus_core8executorNtB2_8Executor14parse_and_plan
FN:581,_RNvMNtCs7bzfDg8Kx2o_10nexus_core8executorNtB2_8Executor15execute_project
FN:1381,_RNvMNtCs7bzfDg8Kx2o_10nexus_core8executorNtB2_8Executor15value_to_number
FN:1547,_RNvMNtCs7bzfDg8Kx2o_10nexus_core8executorNtB2_8Executor15value_to_string
FN:344,_RNvMNtCs7bzfDg8Kx2o_10nexus_core8executorNtB2_8Executor16ast_to_operators
FN:1210,_RNvMNtCs7bzfDg8Kx2o_10nexus_core8executorNtB2_8Executor16execute_distinct
FN:900,_RNvMNtCs7bzfDg8Kx2o_10nexus_core8executorNtB2_8Executor16execute_operator
FN:1257,_RNvMNtCs7bzfDg8Kx2o_10nexus_core8executorNtB2_8Executor16get_column_index
FN:1487,_RNvMNtCs7bzfDg8Kx2o_10nexus_core8executorNtB2_8Executor16get_column_value
FN:671,_RNvMNtCs7bzfDg8Kx2o_10nexus_core8executorNtB2_8Executor17execute_aggregate
FN:1262,_RNvMNtCs7bzfDg8Kx2o_10nexus_core8executorNtB2_8Executor18evaluate_predicate
FN:1132,_RNvMNtCs7bzfDg8Kx2o_10nexus_core8executorNtB2_8Executor18execute_index_scan
FN:1413,_RNvMNtCs7bzfDg8Kx2o_10nexus_core8executorNtB2_8Executor18find_relationships
FN:1464,_RNvMNtCs7bzfDg8Kx2o_10nexus_core8executorNtB2_8Executor18read_node_as_value
FN:1319,_RNvMNtCs7bzfDg8Kx2o_10nexus_core8executorNtB2_8Executor19evaluate_expression
FN:412,_RNvMNtCs7bzfDg8Kx2o_10nexus_core8executorNtB2_8Executor20expression_to_string
FN:451,_RNvMNtCs7bzfDg8Kx2o_10nexus_core8executorNtB2_8Executor21execute_node_by_label
FN:1511,_RNvMNtCs7bzfDg8Kx2o_10nexus_core8executorNtB2_8Executor23compare_values_for_sort
FN:227,_RNvMNtCs7bzfDg8Kx2o_10nexus_core8executorNtB2_8Executor3new
FN:242,_RNvMNtCs7bzfDg8Kx2o_10nexus_core8executorNtB2_8Executor7execute
FN:1595,_RNvMs_NtCs7bzfDg8Kx2o_10nexus_core8executorNtB4_16ExecutionContext12get_variable
FN:1591,_RNvMs_NtCs7bzfDg8Kx2o_10nexus_core8executorNtB4_16ExecutionContext12set_variable
FN:1580,_RNvMs_NtCs7bzfDg8Kx2o_10nexus_core8executorNtB4_16ExecutionContext3new
FN:1601,_RNvXs0_NtCs7bzfDg8Kx2o_10nexus_core8executorNtB5_8ExecutorNtNtCs9Kp62OsN3pY_4core7default7Default7default
FN:1371,_RINvMNtCs7bzfDg8Kx2o_10nexus_core8executorNtB3_8Executor14compare_valuesNCNvB2_18evaluate_predicate0EB5_
FN:1371,_RINvMNtCs7bzfDg8Kx2o_10nexus_core8executorNtB3_8Executor14compare_valuesNCNvB2_18evaluate_predicates0_0EB5_
FN:1371,_RINvMNtCs7bzfDg8Kx2o_10nexus_core8executorNtB3_8Executor14compare_valuesNCNvB2_18evaluate_predicates1_0EB5_
FN:1371,_RINvMNtCs7bzfDg8Kx2o_10nexus_core8executorNtB3_8Executor14compare_valuesNCNvB2_18evaluate_predicates_0EB5_
FN:636,_RNCNvMNtCs7bzfDg8Kx2o_10nexus_core8executorNtB4_8Executor12execute_sort0B6_
FN:1384,_RNCNvMNtCs7bzfDg8Kx2o_10nexus_core8executorNtB4_8Executor15value_to_number0B6_
FN:1388,_RNCNvMNtCs7bzfDg8Kx2o_10nexus_core8executorNtB4_8Executor15value_to_numbers_0B6_
FN:381,_RNCNvMNtCs7bzfDg8Kx2o_10nexus_core8executorNtB4_8Executor16ast_to_operators0B6_
FN:1258,_RNCNvMNtCs7bzfDg8Kx2o_10nexus_core8executorNtB4_8Executor16get_column_index0B6_
FN:689,_RNCNvMNtCs7bzfDg8Kx2o_10nexus_core8executorNtB4_8Executor17execute_aggregate0B6_
FN:729,_RNCNvMNtCs7bzfDg8Kx2o_10nexus_core8executorNtB4_8Executor17execute_aggregates0_0B6_
FN:745,_RNCNvMNtCs7bzfDg8Kx2o_10nexus_core8executorNtB4_8Executor17execute_aggregates1_0B6_
FN:749,_RNCNvMNtCs7bzfDg8Kx2o_10nexus_core8executorNtB4_8Executor17execute_aggregates2_0B6_
FN:771,_RNCNvMNtCs7bzfDg8Kx2o_10nexus_core8executorNtB4_8Executor17execute_aggregates3_0B6_
FN:775,_RNCNvMNtCs7bzfDg8Kx2o_10nexus_core8executorNtB4_8Executor17execute_aggregates4_0B6_
FN:802,_RNCNvMNtCs7bzfDg8Kx2o_10nexus_core8executorNtB4_8Executor17execute_aggregates5_0B6_
FN:806,_RNCNvMNtCs7bzfDg8Kx2o_10nexus_core8executorNtB4_8Executor17execute_aggregates6_0B6_
FN:813,_RNCNvMNtCs7bzfDg8Kx2o_10nexus_core8executorNtB4_8Executor17execute_aggregates7_0B6_
FN:832,_RNCNvMNtCs7bzfDg8Kx2o_10nexus_core8executorNtB4_8Executor17execute_aggregates8_0B6_
FN:836,_RNCNvMNtCs7bzfDg8Kx2o_10nexus_core8executorNtB4_8Executor17execute_aggregates9_0B6_
FN:725,_RNCNvMNtCs7bzfDg8Kx2o_10nexus_core8executorNtB4_8Executor17execute_aggregates_0B6_
FN:843,_RNCNvMNtCs7bzfDg8Kx2o_10nexus_core8executorNtB4_8Executor17execute_aggregatesa_0B6_
FN:1277,_RNCNvMNtCs7bzfDg8Kx2o_10nexus_core8executorNtB4_8Executor18evaluate_predicate0B6_
FN:1283,_RNCNvMNtCs7bzfDg8Kx2o_10nexus_core8executorNtB4_8Executor18evaluate_predicates0_0B6_
FN:1286,_RNCNvMNtCs7bzfDg8Kx2o_10nexus_core8executorNtB4_8Executor18evaluate_predicates1_0B6_
FN:1280,_RNCNvMNtCs7bzfDg8Kx2o_10nexus_core8executorNtB4_8Executor18evaluate_predicates_0B6_
FN:2048,_RNCNvNtNtCs7bzfDg8Kx2o_10nexus_core8executor5testss_23test_aggregate_group_by0B7_
FN:1621,_RNvNtNtCs7bzfDg8Kx2o_10nexus_core8executor5tests20create_test_executor
FN:1740,_RNvNtNtCs7bzfDg8Kx2o_10nexus_core8executor5testss_15test_result_set
FN:2202,_RNvNtNtCs7bzfDg8Kx2o_10nexus_core8executor5testss_17test_execute_sort
FN:2678,_RNvNtNtCs7bzfDg8Kx2o_10nexus_core8executor5testss_17test_row_creation
FN:1895,_RNvNtNtCs7bzfDg8Kx2o_10nexus_core8executor5testss_18test_aggregate_avg
FN:1850,_RNvNtNtCs7bzfDg8Kx2o_10nexus_core8executor5testss_18test_aggregate_sum
FN:2494,_RNvNtNtCs7bzfDg8Kx2o_10nexus_core8executor5testss_18test_enum_variants
FN:2633,_RNvNtNtCs7bzfDg8Kx2o_10nexus_core8executor5testss_18test_mvp_operators
FN:1716,_RNvNtNtCs7bzfDg8Kx2o_10nexus_core8executor5testss_19test_direction_enum
FN:2153,_RNvNtNtCs7bzfDg8Kx2o_10nexus_core8executor5testss_19test_execute_expand
FN:2114,_RNvNtNtCs7bzfDg8Kx2o_10nexus_core8executor5testss_19test_execute_filter
FN:2703,_RNvNtNtCs7bzfDg8Kx2o_10nexus_core8executor5testss_19test_join_type_enum
FN:1639,_RNvNtNtCs7bzfDg8Kx2o_10nexus_core8executor5testss_19test_query_creation
FN:2181,_RNvNtNtCs7bzfDg8Kx2o_10nexus_core8executor5testss_20test_execute_project
FN:2711,_RNvNtNtCs7bzfDg8Kx2o_10nexus_core8executor5testss_20test_index_type_enum
FN:2583,_RNvNtNtCs7bzfDg8Kx2o_10nexus_core8executor5testss_21test_ast_to_operators
FN:1756,_RNvNtNtCs7bzfDg8Kx2o_10nexus_core8executor5testss_21test_executor_default
FN:1723,_RNvNtNtCs7bzfDg8Kx2o_10nexus_core8executor5testss_21test_operator_cloning
FN:2333,_RNvNtNtCs7bzfDg8Kx2o_10nexus_core8executor5testss_21test_value_conversion
FN:1942,_RNvNtNtCs7bzfDg8Kx2o_10nexus_core8executor5testss_22test_aggregate_min_max
FN:1699,_RNvNtNtCs7bzfDg8Kx2o_10nexus_core8executor5testss_22test_execution_context
FN:1633,_RNvNtNtCs7bzfDg8Kx2o_10nexus_core8executor5testss_22test_executor_creation
FN:2421,_RNvNtNtCs7bzfDg8Kx2o_10nexus_core8executor5testss_22test_operator_variants
FN:1656,_RNvNtNtCs7bzfDg8Kx2o_10nexus_core8executor5testss_22test_parse_match_query
FN:2003,_RNvNtNtCs7bzfDg8Kx2o_10nexus_core8executor5testss_23test_aggregate_group_by
FN:2255,_RNvNtNtCs7bzfDg8Kx2o_10nexus_core8executor5testss_23test_evaluate_predicate
FN:2293,_RNvNtNtCs7bzfDg8Kx2o_10nexus_core8executor5testss_24test_evaluate_expression
FN:1689,_RNvNtNtCs7bzfDg8Kx2o_10nexus_core8executor5testss_24test_parse_invalid_query
FN:2686,_RNvNtNtCs7bzfDg8Kx2o_10nexus_core8executor5testss_24test_result_set_creation
FN:1763,_RNvNtNtCs7bzfDg8Kx2o_10nexus_core8executor5testss_25test_aggregate_count_star
FN:2545,_RNvNtNtCs7bzfDg8Kx2o_10nexus_core8executor5testss_25test_expression_to_string
FN:2078,_RNvNtNtCs7bzfDg8Kx2o_10nexus_core8executor5testss_26test_execute_node_by_label
FN:1808,_RNvNtNtCs7bzfDg8Kx2o_10nexus_core8executor5testss_27test_aggregate_count_column
FN:2370,_RNvNtNtCs7bzfDg8Kx2o_10nexus_core8executor5testss_28test_compare_values_for_sort
FN:2758,_RNvNtNtCs7bzfDg8Kx2o_10nexus_core8executor5testss_28test_execution_context_clear
FN:2719,_RNvNtNtCs7bzfDg8Kx2o_10nexus_core8executor5testss_31test_execution_context_creation
FN:2727,_RNvNtNtCs7bzfDg8Kx2o_10nexus_core8executor5testss_42test_execution_context_variable_operations
FN:2742,_RNvNtNtCs7bzfDg8Kx2o_10nexus_core8executor5testss_43test_execution_context_parameter_operations
FNDA:0,_RINvMNtCs4yQ6d7adrZY_10nexus_core8executorNtB3_8Executor14compare_valuesNCNvB2_18evaluate_predicate0EB5_
FNDA:0,_RINvMNtCs4yQ6d7adrZY_10nexus_core8executorNtB3_8Executor14compare_valuesNCNvB2_18evaluate_predicates0_0EB5_
FNDA:0,_RINvMNtCs4yQ6d7adrZY_10nexus_core8executorNtB3_8Executor14compare_valuesNCNvB2_18evaluate_predicates1_0EB5_
FNDA:0,_RINvMNtCs4yQ6d7adrZY_10nexus_core8executorNtB3_8Executor14compare_valuesNCNvB2_18evaluate_predicates_0EB5_
FNDA:0,_RNCNvMNtCs4yQ6d7adrZY_10nexus_core8executorNtB4_8Executor12execute_sort0B6_
FNDA:0,_RNCNvMNtCs4yQ6d7adrZY_10nexus_core8executorNtB4_8Executor15value_to_number0B6_
FNDA:0,_RNCNvMNtCs4yQ6d7adrZY_10nexus_core8executorNtB4_8Executor15value_to_numbers_0B6_
FNDA:0,_RNCNvMNtCs4yQ6d7adrZY_10nexus_core8executorNtB4_8Executor16get_column_index0B6_
FNDA:0,_RNCNvMNtCs4yQ6d7adrZY_10nexus_core8executorNtB4_8Executor17execute_aggregate0B6_
FNDA:0,_RNCNvMNtCs4yQ6d7adrZY_10nexus_core8executorNtB4_8Executor17execute_aggregates0_0B6_
FNDA:0,_RNCNvMNtCs4yQ6d7adrZY_10nexus_core8executorNtB4_8Executor17execute_aggregates1_0B6_
FNDA:0,_RNCNvMNtCs4yQ6d7adrZY_10nexus_core8executorNtB4_8Executor17execute_aggregates2_0B6_
FNDA:0,_RNCNvMNtCs4yQ6d7adrZY_10nexus_core8executorNtB4_8Executor17execute_aggregates3_0B6_
FNDA:0,_RNCNvMNtCs4yQ6d7adrZY_10nexus_core8executorNtB4_8Executor17execute_aggregates4_0B6_
FNDA:0,_RNCNvMNtCs4yQ6d7adrZY_10nexus_core8executorNtB4_8Executor17execute_aggregates5_0B6_
FNDA:0,_RNCNvMNtCs4yQ6d7adrZY_10nexus_core8executorNtB4_8Executor17execute_aggregates6_0B6_
FNDA:0,_RNCNvMNtCs4yQ6d7adrZY_10nexus_core8executorNtB4_8Executor17execute_aggregates7_0B6_
FNDA:0,_RNCNvMNtCs4yQ6d7adrZY_10nexus_core8executorNtB4_8Executor17execute_aggregates8_0B6_
FNDA:0,_RNCNvMNtCs4yQ6d7adrZY_10nexus_core8executorNtB4_8Executor17execute_aggregates9_0B6_
FNDA:0,_RNCNvMNtCs4yQ6d7adrZY_10nexus_core8executorNtB4_8Executor17execute_aggregates_0B6_
FNDA:0,_RNCNvMNtCs4yQ6d7adrZY_10nexus_core8executorNtB4_8Executor17execute_aggregatesa_0B6_
FNDA:0,_RNCNvMNtCs4yQ6d7adrZY_10nexus_core8executorNtB4_8Executor18evaluate_predicate0B6_
FNDA:0,_RNCNvMNtCs4yQ6d7adrZY_10nexus_core8executorNtB4_8Executor18evaluate_predicates0_0B6_
FNDA:0,_RNCNvMNtCs4yQ6d7adrZY_10nexus_core8executorNtB4_8Executor18evaluate_predicates1_0B6_
FNDA:0,_RNCNvMNtCs4yQ6d7adrZY_10nexus_core8executorNtB4_8Executor18evaluate_predicates_0B6_
FNDA:0,_RNvMNtCs4yQ6d7adrZY_10nexus_core8executorNtB2_8Executor10rows_match
FNDA:0,_RNvMNtCs4yQ6d7adrZY_10nexus_core8executorNtB2_8Executor12execute_join
FNDA:0,_RNvMNtCs4yQ6d7adrZY_10nexus_core8executorNtB2_8Executor12execute_sort
FNDA:0,_RNvMNtCs4yQ6d7adrZY_10nexus_core8executorNtB2_8Executor13execute_limit
FNDA:0,_RNvMNtCs4yQ6d7adrZY_10nexus_core8executorNtB2_8Executor13execute_union
FNDA:0,_RNvMNtCs4yQ6d7adrZY_10nexus_core8executorNtB2_8Executor13value_to_bool
FNDA:0,_RNvMNtCs4yQ6d7adrZY_10nexus_core8executorNtB2_8Executor14execute_expand
FNDA:0,_RNvMNtCs4yQ6d7adrZY_10nexus_core8executorNtB2_8Executor14execute_filter
FNDA:1,_RNvMNtCs4yQ6d7adrZY_10nexus_core8executorNtB2_8Executor14parse_and_plan
FNDA:0,_RNvMNtCs4yQ6d7adrZY_10nexus_core8executorNtB2_8Executor15execute_project
FNDA:0,_RNvMNtCs4yQ6d7adrZY_10nexus_core8executorNtB2_8Executor15value_to_number
FNDA:0,_RNvMNtCs4yQ6d7adrZY_10nexus_core8executorNtB2_8Executor15value_to_string
FNDA:0,_RNvMNtCs4yQ6d7adrZY_10nexus_core8executorNtB2_8Executor16execute_distinct
FNDA:0,_RNvMNtCs4yQ6d7adrZY_10nexus_core8executorNtB2_8Executor16execute_operator
FNDA:0,_RNvMNtCs4yQ6d7adrZY_10nexus_core8executorNtB2_8Executor16get_column_index
FNDA:0,_RNvMNtCs4yQ6d7adrZY_10nexus_core8executorNtB2_8Executor16get_column_value
FNDA:0,_RNvMNtCs4yQ6d7adrZY_10nexus_core8executorNtB2_8Executor17execute_aggregate
FNDA:0,_RNvMNtCs4yQ6d7adrZY_10nexus_core8executorNtB2_8Executor18evaluate_predicate
FNDA:0,_RNvMNtCs4yQ6d7adrZY_10nexus_core8executorNtB2_8Executor18execute_index_scan
FNDA:0,_RNvMNtCs4yQ6d7adrZY_10nexus_core8executorNtB2_8Executor18find_relationships
FNDA:0,_RNvMNtCs4yQ6d7adrZY_10nexus_core8executorNtB2_8Executor18read_node_as_value
FNDA:0,_RNvMNtCs4yQ6d7adrZY_10nexus_core8executorNtB2_8Executor19evaluate_expression
FNDA:0,_RNvMNtCs4yQ6d7adrZY_10nexus_core8executorNtB2_8Executor21execute_node_by_label
FNDA:0,_RNvMNtCs4yQ6d7adrZY_10nexus_core8executorNtB2_8Executor23compare_values_for_sort
FNDA:33,_RNvMNtCs4yQ6d7adrZY_10nexus_core8executorNtB2_8Executor3new
FNDA:1,_RNvMNtCs4yQ6d7adrZY_10nexus_core8executorNtB2_8Executor7execute
FNDA:0,_RNvMs_NtCs4yQ6d7adrZY_10nexus_core8executorNtB4_16ExecutionContext12get_variable
FNDA:0,_RNvMs_NtCs4yQ6d7adrZY_10nexus_core8executorNtB4_16ExecutionContext12set_variable
FNDA:0,_RNvMs_NtCs4yQ6d7adrZY_10nexus_core8executorNtB4_16ExecutionContext3new
FNDA:11,_RNvXs0_NtCs4yQ6d7adrZY_10nexus_core8executorNtB5_8ExecutorNtNtCs9Kp62OsN3pY_4core7default7Default7default
FNDA:0,_RNvMNtCs7bzfDg8Kx2o_10nexus_core8executorNtB2_8Executor10rows_match
FNDA:1,_RNvMNtCs7bzfDg8Kx2o_10nexus_core8executorNtB2_8Executor12execute_join
FNDA:1,_RNvMNtCs7bzfDg8Kx2o_10nexus_core8executorNtB2_8Executor12execute_sort
FNDA:0,_RNvMNtCs7bzfDg8Kx2o_10nexus_core8executorNtB2_8Executor13execute_limit
FNDA:1,_RNvMNtCs7bzfDg8Kx2o_10nexus_core8executorNtB2_8Executor13execute_union
FNDA:7,_RNvMNtCs7bzfDg8Kx2o_10nexus_core8executorNtB2_8Executor13value_to_bool
FNDA:1,_RNvMNtCs7bzfDg8Kx2o_10nexus_core8executorNtB2_8Executor14execute_expand
FNDA:1,_RNvMNtCs7bzfDg8Kx2o_10nexus_core8executorNtB2_8Executor14execute_filter
FNDA:4,_RNvMNtCs7bzfDg8Kx2o_10nexus_core8executorNtB2_8Executor14parse_and_plan
FNDA:3,_RNvMNtCs7bzfDg8Kx2o_10nexus_core8executorNtB2_8Executor15execute_project
FNDA:29,_RNvMNtCs7bzfDg8Kx2o_10nexus_core8executorNtB2_8Executor15value_to_number
FNDA:0,_RNvMNtCs7bzfDg8Kx2o_10nexus_core8executorNtB2_8Executor15value_to_string
FNDA:1,_RNvMNtCs7bzfDg8Kx2o_10nexus_core8executorNtB2_8Executor16ast_to_operators
FNDA:1,_RNvMNtCs7bzfDg8Kx2o_10nexus_core8executorNtB2_8Executor16execute_distinct
FNDA:4,_RNvMNtCs7bzfDg8Kx2o_10nexus_core8executorNtB2_8Executor16execute_operator
FNDA:0,_RNvMNtCs7bzfDg8Kx2o_10nexus_core8executorNtB2_8Executor16get_column_index
FNDA:6,_RNvMNtCs7bzfDg8Kx2o_10nexus_core8executorNtB2_8Executor16get_column_value
FNDA:6,_RNvMNtCs7bzfDg8Kx2o_10nexus_core8executorNtB2_8Executor17execute_aggregate
FNDA:5,_RNvMNtCs7bzfDg8Kx2o_10nexus_core8executorNtB2_8Executor18evaluate_predicate
FNDA:1,_RNvMNtCs7bzfDg8Kx2o_10nexus_core8executorNtB2_8Executor18execute_index_scan
FNDA:1,_RNvMNtCs7bzfDg8Kx2o_10nexus_core8executorNtB2_8Executor18find_relationships
FNDA:0,_RNvMNtCs7bzfDg8Kx2o_10nexus_core8executorNtB2_8Executor18read_node_as_value
FNDA:13,_RNvMNtCs7bzfDg8Kx2o_10nexus_core8executorNtB2_8Executor19evaluate_expression
FNDA:13,_RNvMNtCs7bzfDg8Kx2o_10nexus_core8executorNtB2_8Executor20expression_to_string
FNDA:6,_RNvMNtCs7bzfDg8Kx2o_10nexus_core8executorNtB2_8Executor21execute_node_by_label
FNDA:11,_RNvMNtCs7bzfDg8Kx2o_10nexus_core8executorNtB2_8Executor23compare_values_for_sort
FNDA:39,_RNvMNtCs7bzfDg8Kx2o_10nexus_core8executorNtB2_8Executor3new
FNDA:2,_RNvMNtCs7bzfDg8Kx2o_10nexus_core8executorNtB2_8Executor7execute
FNDA:11,_RNvMs_NtCs7bzfDg8Kx2o_10nexus_core8executorNtB4_16ExecutionContext12get_variable
FNDA:15,_RNvMs_NtCs7bzfDg8Kx2o_10nexus_core8executorNtB4_16ExecutionContext12set_variable
FNDA:24,_RNvMs_NtCs7bzfDg8Kx2o_10nexus_core8executorNtB4_16ExecutionContext3new
FNDA:1,_RNvXs0_NtCs7bzfDg8Kx2o_10nexus_core8executorNtB5_8ExecutorNtNtCs9Kp62OsN3pY_4core7default7Default7default
FNDA:1,_RINvMNtCs7bzfDg8Kx2o_10nexus_core8executorNtB3_8Executor14compare_valuesNCNvB2_18evaluate_predicate0EB5_
FNDA:3,_RINvMNtCs7bzfDg8Kx2o_10nexus_core8executorNtB3_8Executor14compare_valuesNCNvB2_18evaluate_predicates0_0EB5_
FNDA:0,_RINvMNtCs7bzfDg8Kx2o_10nexus_core8executorNtB3_8Executor14compare_valuesNCNvB2_18evaluate_predicates1_0EB5_
FNDA:0,_RINvMNtCs7bzfDg8Kx2o_10nexus_core8executorNtB3_8Executor14compare_valuesNCNvB2_18evaluate_predicates_0EB5_
FNDA:3,_RNCNvMNtCs7bzfDg8Kx2o_10nexus_core8executorNtB4_8Executor12execute_sort0B6_
FNDA:0,_RNCNvMNtCs7bzfDg8Kx2o_10nexus_core8executorNtB4_8Executor15value_to_number0B6_
FNDA:0,_RNCNvMNtCs7bzfDg8Kx2o_10nexus_core8executorNtB4_8Executor15value_to_numbers_0B6_
FNDA:1,_RNCNvMNtCs7bzfDg8Kx2o_10nexus_core8executorNtB4_8Executor16ast_to_operators0B6_
FNDA:0,_RNCNvMNtCs7bzfDg8Kx2o_10nexus_core8executorNtB4_8Executor16get_column_index0B6_
FNDA:4,_RNCNvMNtCs7bzfDg8Kx2o_10nexus_core8executorNtB4_8Executor17execute_aggregate0B6_
FNDA:3,_RNCNvMNtCs7bzfDg8Kx2o_10nexus_core8executorNtB4_8Executor17execute_aggregates0_0B6_
FNDA:6,_RNCNvMNtCs7bzfDg8Kx2o_10nexus_core8executorNtB4_8Executor17execute_aggregates1_0B6_
FNDA:7,_RNCNvMNtCs7bzfDg8Kx2o_10nexus_core8executorNtB4_8Executor17execute_aggregates2_0B6_
FNDA:2,_RNCNvMNtCs7bzfDg8Kx2o_10nexus_core8executorNtB4_8Executor17execute_aggregates3_0B6_
FNDA:3,_RNCNvMNtCs7bzfDg8Kx2o_10nexus_core8executorNtB4_8Executor17execute_aggregates4_0B6_
FNDA:2,_RNCNvMNtCs7bzfDg8Kx2o_10nexus_core8executorNtB4_8Executor17execute_aggregates5_0B6_
FNDA:3,_RNCNvMNtCs7bzfDg8Kx2o_10nexus_core8executorNtB4_8Executor17execute_aggregates6_0B6_
FNDA:3,_RNCNvMNtCs7bzfDg8Kx2o_10nexus_core8executorNtB4_8Executor17execute_aggregates7_0B6_
FNDA:2,_RNCNvMNtCs7bzfDg8Kx2o_10nexus_core8executorNtB4_8Executor17execute_aggregates8_0B6_
FNDA:3,_RNCNvMNtCs7bzfDg8Kx2o_10nexus_core8executorNtB4_8Executor17execute_aggregates9_0B6_
FNDA:2,_RNCNvMNtCs7bzfDg8Kx2o_10nexus_core8executorNtB4_8Executor17execute_aggregates_0B6_
FNDA:3,_RNCNvMNtCs7bzfDg8Kx2o_10nexus_core8executorNtB4_8Executor17execute_aggregatesa_0B6_
FNDA:1,_RNCNvMNtCs7bzfDg8Kx2o_10nexus_core8executorNtB4_8Executor18evaluate_predicate0B6_
FNDA:3,_RNCNvMNtCs7bzfDg8Kx2o_10nexus_core8executorNtB4_8Executor18evaluate_predicates0_0B6_
FNDA:0,_RNCNvMNtCs7bzfDg8Kx2o_10nexus_core8executorNtB4_8Executor18evaluate_predicates1_0B6_
FNDA:0,_RNCNvMNtCs7bzfDg8Kx2o_10nexus_core8executorNtB4_8Executor18evaluate_predicates_0B6_
FNDA:1,_RNCNvNtNtCs7bzfDg8Kx2o_10nexus_core8executor5testss_23test_aggregate_group_by0B7_
FNDA:21,_RNvNtNtCs7bzfDg8Kx2o_10nexus_core8executor5tests20create_test_executor
FNDA:1,_RNvNtNtCs7bzfDg8Kx2o_10nexus_core8executor5testss_15test_result_set
FNDA:1,_RNvNtNtCs7bzfDg8Kx2o_10nexus_core8executor5testss_17test_execute_sort
FNDA:1,_RNvNtNtCs7bzfDg8Kx2o_10nexus_core8executor5testss_17test_row_creation
FNDA:1,_RNvNtNtCs7bzfDg8Kx2o_10nexus_core8executor5testss_18test_aggregate_avg
FNDA:1,_RNvNtNtCs7bzfDg8Kx2o_10nexus_core8executor5testss_18test_aggregate_sum
FNDA:1,_RNvNtNtCs7bzfDg8Kx2o_10nexus_core8executor5testss_18test_enum_variants
FNDA:1,_RNvNtNtCs7bzfDg8Kx2o_10nexus_core8executor5testss_18test_mvp_operators
FNDA:1,_RNvNtNtCs7bzfDg8Kx2o_10nexus_core8executor5testss_19test_direction_enum
FNDA:1,_RNvNtNtCs7bzfDg8Kx2o_10nexus_core8executor5testss_19test_execute_expand
FNDA:1,_RNvNtNtCs7bzfDg8Kx2o_10nexus_core8executor5testss_19test_execute_filter
FNDA:1,_RNvNtNtCs7bzfDg8Kx2o_10nexus_core8executor5testss_19test_join_type_enum
FNDA:1,_RNvNtNtCs7bzfDg8Kx2o_10nexus_core8executor5testss_19test_query_creation
FNDA:1,_RNvNtNtCs7bzfDg8Kx2o_10nexus_core8executor5testss_20test_execute_project
FNDA:1,_RNvNtNtCs7bzfDg8Kx2o_10nexus_core8executor5testss_20test_index_type_enum
FNDA:1,_RNvNtNtCs7bzfDg8Kx2o_10nexus_core8executor5testss_21test_ast_to_operators
FNDA:1,_RNvNtNtCs7bzfDg8Kx2o_10nexus_core8executor5testss_21test_executor_default
FNDA:1,_RNvNtNtCs7bzfDg8Kx2o_10nexus_core8executor5testss_21test_operator_cloning
FNDA:1,_RNvNtNtCs7bzfDg8Kx2o_10nexus_core8executor5testss_21test_value_conversion
FNDA:1,_RNvNtNtCs7bzfDg8Kx2o_10nexus_core8executor5testss_22test_aggregate_min_max
FNDA:1,_RNvNtNtCs7bzfDg8Kx2o_10nexus_core8executor5testss_22test_execution_context
FNDA:1,_RNvNtNtCs7bzfDg8Kx2o_10nexus_core8executor5testss_22test_executor_creation
FNDA:1,_RNvNtNtCs7bzfDg8Kx2o_10nexus_core8executor5testss_22test_operator_variants
FNDA:1,_RNvNtNtCs7bzfDg8Kx2o_10nexus_core8executor5testss_22test_parse_match_query
FNDA:1,_RNvNtNtCs7bzfDg8Kx2o_10nexus_core8executor5testss_23test_aggregate_group_by
FNDA:1,_RNvNtNtCs7bzfDg8Kx2o_10nexus_core8executor5testss_23test_evaluate_predicate
FNDA:1,_RNvNtNtCs7bzfDg8Kx2o_10nexus_core8executor5testss_24test_evaluate_expression
FNDA:1,_RNvNtNtCs7bzfDg8Kx2o_10nexus_core8executor5testss_24test_parse_invalid_query
FNDA:1,_RNvNtNtCs7bzfDg8Kx2o_10nexus_core8executor5testss_24test_result_set_creation
FNDA:1,_RNvNtNtCs7bzfDg8Kx2o_10nexus_core8executor5testss_25test_aggregate_count_star
FNDA:1,_RNvNtNtCs7bzfDg8Kx2o_10nexus_core8executor5testss_25test_expression_to_string
FNDA:1,_RNvNtNtCs7bzfDg8Kx2o_10nexus_core8executor5testss_26test_execute_node_by_label
FNDA:1,_RNvNtNtCs7bzfDg8Kx2o_10nexus_core8executor5testss_27test_aggregate_count_column
FNDA:1,_RNvNtNtCs7bzfDg8Kx2o_10nexus_core8executor5testss_28test_compare_values_for_sort
FNDA:1,_RNvNtNtCs7bzfDg8Kx2o_10nexus_core8executor5testss_28test_execution_context_clear
FNDA:1,_RNvNtNtCs7bzfDg8Kx2o_10nexus_core8executor5testss_31test_execution_context_creation
FNDA:1,_RNvNtNtCs7bzfDg8Kx2o_10nexus_core8executor5testss_42test_execution_context_variable_operations
FNDA:1,_RNvNtNtCs7bzfDg8Kx2o_10nexus_core8executor5testss_43test_execution_context_parameter_operations
FNF:94
FNH:84
DA:227,72
DA:228,72
DA:229,72
DA:230,72
DA:231,72
DA:232,72
DA:233,72
DA:234,72
DA:235,72
DA:236,72
DA:237,72
DA:238,72
DA:239,72
DA:242,3
DA:244,3
DA:247,2
DA:248,2
DA:250,4
DA:251,2
DA:252,0
DA:253,0
DA:254,0
DA:256,0
DA:257,0
DA:260,0
DA:261,0
DA:262,0
DA:263,0
DA:264,0
DA:266,0
DA:267,0
DA:268,0
DA:269,0
DA:270,0
DA:271,0
DA:272,0
DA:273,0
DA:275,2
DA:276,2
DA:278,0
DA:279,0
DA:280,0
DA:281,0
DA:282,0
DA:285,0
DA:286,0
DA:288,0
DA:290,0
DA:291,0
DA:294,0
DA:295,0
DA:296,0
DA:297,0
DA:299,0
DA:300,0
DA:301,0
DA:302,0
DA:303,0
DA:304,0
DA:305,0
DA:308,0
DA:309,0
DA:310,0
DA:312,0
DA:314,0
DA:315,0
DA:320,2
DA:321,2
DA:322,2
DA:323,2
DA:324,3
DA:327,5
DA:329,5
DA:330,5
DA:333,5
DA:335,5
DA:338,3
DA:340,3
DA:341,5
DA:344,1
DA:345,1
DA:347,5
DA:348,4
DA:349,1
DA:351,2
DA:352,1
DA:353,1
DA:354,1
DA:355,1
DA:356,1
DA:357,1
DA:358,1
DA:359,1
DA:360,0
DA:361,0
DA:362,0
DA:366,1
DA:367,0
DA:368,0
DA:370,1
DA:372,1
DA:373,1
DA:374,1
DA:377,1
DA:378,1
DA:379,1
DA:380,1
DA:381,1
DA:382,1
DA:383,0
DA:385,1
DA:386,1
DA:388,1
DA:389,1
DA:391,1
DA:393,1
DA:394,1
DA:395,1
DA:396,1
DA:397,1
DA:398,1
DA:399,1
DA:400,1
DA:402,0
DA:403,0
DA:404,0
DA:408,1
DA:409,1
DA:412,13
DA:413,13
DA:414,2
DA:415,3
DA:416,3
DA:418,5
DA:419,1
DA:420,3
DA:421,0
DA:422,1
DA:423,0
DA:425,2
DA:426,2
DA:427,2
DA:428,2
DA:429,1
DA:430,0
DA:431,0
DA:432,0
DA:433,1
DA:434,0
DA:435,0
DA:436,0
DA:437,0
DA:438,0
DA:439,0
DA:440,0
DA:441,0
DA:443,2
DA:445,1
DA:446,0
DA:448,13
DA:451,6
DA:452,6
DA:453,6
DA:455,6
DA:456,3
DA:459,3
DA:460,3
DA:461,3
DA:462,3
DA:463,3
DA:465,3
DA:467,3
DA:470,6
DA:471,6
DA:474,1
DA:476,1
DA:477,1
DA:480,1
DA:482,2
DA:483,1
DA:484,1
DA:486,3
DA:487,2
DA:488,1
DA:489,1
DA:492,1
DA:493,0
DA:494,0
DA:495,0
DA:498,1
DA:499,1
DA:500,1
DA:503,1
DA:504,1
DA:505,1
DA:506,1
DA:507,1
DA:508,1
DA:509,1
DA:510,1
DA:511,1
DA:513,1
DA:514,1
DA:516,0
DA:519,1
DA:520,1
DA:522,2
DA:523,1
DA:524,1
DA:525,1
DA:528,1
DA:530,1
DA:532,0
DA:533,0
DA:534,0
DA:537,0
DA:538,0
DA:540,0
DA:545,0
DA:546,0
DA:547,0
DA:548,0
DA:549,0
DA:550,0
DA:551,0
DA:552,0
DA:553,0
DA:554,0
DA:555,0
DA:556,0
DA:557,0
DA:558,0
DA:559,0
DA:560,0
DA:561,0
DA:562,0
DA:563,0
DA:564,0
DA:565,0
DA:567,0
DA:568,0
DA:572,1
DA:573,1
DA:574,1
DA:575,1
DA:577,1
DA:578,1
DA:581,3
DA:583,3
DA:585,3
DA:586,1
DA:587,2
DA:588,1
DA:589,1
DA:590,1
DA:591,1
DA:592,0
DA:595,3
DA:596,3
DA:599,0
DA:601,0
DA:602,0
DA:603,0
DA:606,0
DA:607,0
DA:608,0
DA:609,0
DA:610,0
DA:611,0
DA:614,0
DA:615,0
DA:618,1
DA:619,1
DA:620,1
DA:621,1
DA:622,1
DA:623,1
DA:625,1
DA:627,2
DA:628,1
DA:629,3
DA:630,3
DA:631,3
DA:632,0
DA:636,3
DA:637,3
DA:638,3
DA:640,3
DA:641,3
DA:643,3
DA:644,3
DA:645,3
DA:646,3
DA:648,0
DA:650,0
DA:652,0
DA:653,3
DA:656,1
DA:658,4
DA:659,3
DA:660,3
DA:663,2
DA:664,1
DA:665,1
DA:667,1
DA:668,1
DA:671,6
DA:672,6
DA:673,6
DA:674,6
DA:675,6
DA:676,6
DA:681,6
DA:682,6
DA:685,25
DA:687,19
DA:688,23
DA:689,4
DA:690,4
DA:691,4
DA:692,4
DA:693,0
DA:694,0
DA:695,0
DA:696,0
DA:697,0
DA:701,19
DA:705,6
DA:708,13
DA:709,7
DA:712,15
DA:713,8
DA:714,2
DA:715,2
DA:717,1
DA:720,1
DA:721,1
DA:722,1
DA:723,1
DA:724,1
DA:725,2
DA:726,1
DA:727,1
DA:728,1
DA:729,3
DA:730,3
DA:731,3
DA:732,1
DA:734,0
DA:736,1
DA:739,3
DA:740,3
DA:741,3
DA:742,3
DA:743,3
DA:744,3
DA:745,6
DA:746,3
DA:747,3
DA:748,3
DA:749,7
DA:750,7
DA:751,7
DA:753,0
DA:755,7
DA:756,3
DA:757,3
DA:758,3
DA:759,3
DA:760,3
DA:762,0
DA:765,1
DA:766,1
DA:767,1
DA:768,1
DA:769,1
DA:770,1
DA:771,2
DA:772,1
DA:773,1
DA:774,1
DA:775,3
DA:776,3
DA:777,3
DA:779,0
DA:781,3
DA:782,1
DA:783,1
DA:784,0
DA:786,1
DA:787,1
DA:788,1
DA:789,1
DA:790,1
DA:793,0
DA:796,1
DA:797,1
DA:798,1
DA:799,1
DA:800,1
DA:801,1
DA:802,2
DA:803,1
DA:804,1
DA:805,1
DA:806,3
DA:807,3
DA:808,3
DA:810,0
DA:812,3
DA:813,3
DA:814,1
DA:815,0
DA:817,1
DA:818,1
DA:819,1
DA:820,1
DA:823,0
DA:826,1
DA:827,1
DA:828,1
DA:829,1
DA:830,1
DA:831,1
DA:832,2
DA:833,1
DA:834,1
DA:835,1
DA:836,3
DA:837,3
DA:838,3
DA:840,0
DA:842,3
DA:843,3
DA:844,1
DA:845,0
DA:847,1
DA:848,1
DA:849,1
DA:850,1
DA:853,0
DA:857,8
DA:860,7
DA:863,6
DA:864,6
DA:867,1
DA:868,1
DA:869,1
DA:870,1
DA:871,1
DA:872,1
DA:874,1
DA:875,1
DA:878,1
DA:879,1
DA:882,1
DA:883,1
DA:884,1
DA:887,1
DA:890,1
DA:891,0
DA:892,1
DA:893,0
DA:894,1
DA:896,1
DA:897,1
DA:900,4
DA:901,4
DA:902,4
DA:903,4
DA:904,4
DA:906,0
DA:907,0
DA:910,0
DA:911,0
DA:912,0
DA:913,0
DA:914,0
DA:916,0
DA:917,0
DA:918,0
DA:920,0
DA:921,0
DA:922,0
DA:923,0
DA:925,0
DA:926,0
DA:928,0
DA:929,0
DA:932,0
DA:933,0
DA:935,0
DA:937,0
DA:938,0
DA:941,0
DA:942,0
DA:943,0
DA:944,0
DA:946,0
DA:949,0
DA:950,0
DA:951,0
DA:953,0
DA:955,0
DA:956,0
DA:959,4
DA:960,4
DA:963,1
DA:964,1
DA:965,1
DA:966,1
DA:967,1
DA:968,1
DA:969,1
DA:970,1
DA:972,1
DA:973,1
DA:976,1
DA:977,1
DA:979,1
DA:982,1
DA:985,1
DA:986,0
DA:987,0
DA:988,0
DA:989,0
DA:990,0
DA:991,0
DA:992,0
DA:993,0
DA:999,0
DA:1000,0
DA:1001,0
DA:1002,0
DA:1003,0
DA:1004,0
DA:1005,0
DA:1006,0
DA:1007,0
DA:1008,0
DA:1009,0
DA:1011,0
DA:1012,0
DA:1013,0
DA:1014,0
DA:1015,0
DA:1016,0
DA:1017,0
DA:1018,0
DA:1019,0
DA:1020,0
DA:1021,0
DA:1026,0
DA:1027,0
DA:1028,0
DA:1029,0
DA:1030,0
DA:1031,0
DA:1032,0
DA:1033,0
DA:1034,0
DA:1035,0
DA:1036,0
DA:1038,0
DA:1039,0
DA:1040,0
DA:1041,0
DA:1042,0
DA:1043,0
DA:1044,0
DA:1045,0
DA:1046,0
DA:1051,0
DA:1052,0
DA:1054,0
DA:1055,0
DA:1056,0
DA:1057,0
DA:1058,0
DA:1059,0
DA:1060,0
DA:1061,0
DA:1062,0
DA:1063,0
DA:1064,0
DA:1069,0
DA:1070,0
DA:1071,0
DA:1072,0
DA:1073,0
DA:1074,0
DA:1075,0
DA:1076,0
DA:1077,0
DA:1078,0
DA:1079,0
DA:1083,0
DA:1084,0
DA:1085,0
DA:1086,0
DA:1087,0
DA:1088,0
DA:1089,0
DA:1090,0
DA:1091,0
DA:1097,1
DA:1100,1
DA:1101,1
DA:1102,1
DA:1104,1
DA:1105,1
DA:1108,0
DA:1109,0
DA:1110,0
DA:1113,0
DA:1114,0
DA:1115,0
DA:1117,0
DA:1118,0
DA:1119,0
DA:1120,0
DA:1122,0
DA:1126,0
DA:1129,0
DA:1132,1
DA:1133,1
DA:1134,1
DA:1135,1
DA:1136,1
DA:1137,1
DA:1138,1
DA:1139,1
DA:1141,1
DA:1144,1
DA:1145,1
DA:1146,1
DA:1147,0
DA:1153,0
DA:1154,0
DA:1155,0
DA:1156,0
DA:1157,0
DA:1158,0
DA:1159,0
DA:1160,0
DA:1161,0
DA:1162,0
DA:1164,0
DA:1165,0
DA:1166,0
DA:1167,0
DA:1168,0
DA:1171,0
DA:1172,0
DA:1173,0
DA:1174,0
DA:1175,0
DA:1176,0
DA:1180,0
DA:1181,0
DA:1182,0
DA:1183,0
DA:1184,0
DA:1185,0
DA:1186,0
DA:1187,0
DA:1188,0
DA:1189,0
DA:1190,0
DA:1191,0
DA:1192,0
DA:1194,0
DA:1195,0
DA:1196,0
DA:1197,0
DA:1198,0
DA:1204,1
DA:1206,1
DA:1207,1
DA:1210,1
DA:1211,1
DA:1212,1
DA:1213,0
DA:1216,0
DA:1217,0
DA:1219,0
DA:1221,0
DA:1223,0
DA:1224,0
DA:1225,0
DA:1226,0
DA:1228,0
DA:1229,0
DA:1231,0
DA:1232,0
DA:1233,0
DA:1234,0
DA:1235,0
DA:1236,0
DA:1237,0
DA:1238,0
DA:1243,0
DA:1245,0
DA:1246,0
DA:1247,0
DA:1251,0
DA:1253,0
DA:1254,1
DA:1257,0
DA:1258,0
DA:1259,0
DA:1262,5
DA:1263,5
DA:1264,5
DA:1265,5
DA:1266,5
DA:1267,5
DA:1268,5
DA:1269,5
DA:1270,5
DA:1271,5
DA:1273,5
DA:1274,1
DA:1275,0
DA:1277,1
DA:1280,0
DA:1283,3
DA:1286,0
DA:1289,0
DA:1290,0
DA:1291,0
DA:1294,0
DA:1295,0
DA:1296,0
DA:1298,0
DA:1301,0
DA:1302,0
DA:1303,0
DA:1305,0
DA:1306,0
DA:1308,0
DA:1312,0
DA:1313,0
DA:1316,5
DA:1319,13
DA:1320,13
DA:1321,13
DA:1322,13
DA:1323,13
DA:1324,13
DA:1325,13
DA:1326,0
DA:1327,0
DA:1328,0
DA:1330,0
DA:1333,6
DA:1334,6
DA:1336,6
DA:1337,6
DA:1339,0
DA:1343,0
DA:1344,0
DA:1346,0
DA:1350,5
DA:1351,0
DA:1352,5
DA:1353,0
DA:1354,0
DA:1355,0
DA:1356,0
DA:1357,0
DA:1359,2
DA:1360,2
DA:1361,2
DA:1363,0
DA:1366,0
DA:1368,13
DA:1371,4
DA:1372,4
DA:1373,4
DA:1375,4
DA:1376,4
DA:1377,4
DA:1378,4
DA:1381,29
DA:1382,29
DA:1383,25
DA:1384,0
DA:1385,0
DA:1386,0
DA:1387,1
DA:1388,0
DA:1389,0
DA:1390,0
DA:1391,2
DA:1392,1
DA:1393,0
DA:1394,0
DA:1395,0
DA:1396,0
DA:1398,29
DA:1401,7
DA:1402,7
DA:1403,2
DA:1404,2
DA:1405,2
DA:1406,1
DA:1407,0
DA:1408,0
DA:1410,7
DA:1413,1
DA:1414,1
DA:1415,1
DA:1416,1
DA:1417,1
DA:1418,1
DA:1419,1
DA:1425,1
DA:1426,1
DA:1429,1
DA:1430,0
DA:1432,0
DA:1433,0
DA:1434,0
DA:1435,0
DA:1436,0
DA:1439,0
DA:1440,0
DA:1441,0
DA:1442,0
DA:1443,0
DA:1444,0
DA:1445,0
DA:1446,0
DA:1449,0
DA:1450,0
DA:1452,0
DA:1455,0
DA:1458,0
DA:1460,1
DA:1461,1
DA:1464,0
DA:1465,0
DA:1468,0
DA:1469,0
DA:1472,0
DA:1473,0
DA:1474,0
DA:1475,0
DA:1476,0
DA:1478,0
DA:1481,0
DA:1483,0
DA:1484,0
DA:1487,6
DA:1488,6
DA:1489,6
DA:1490,6
DA:1493,0
DA:1494,0
DA:1495,0
DA:1497,0
DA:1498,0
DA:1499,0
DA:1500,0
DA:1501,0
DA:1502,0
DA:1503,0
DA:1506,0
DA:1508,6
DA:1511,11
DA:1512,11
DA:1513,1
DA:1514,1
DA:1515,1
DA:1516,6
DA:1517,6
DA:1518,6
DA:1519,6
DA:1520,6
DA:1521,6
DA:1523,2
DA:1524,0
DA:1525,0
DA:1527,0
DA:1528,0
DA:1529,0
DA:1530,0
DA:1531,0
DA:1533,0
DA:1535,0
DA:1539,0
DA:1540,0
DA:1541,0
DA:1544,11
DA:1547,0
DA:1548,0
DA:1549,0
DA:1550,0
DA:1551,0
DA:1552,0
DA:1553,0
DA:1554,0
DA:1556,0
DA:1580,24
DA:1581,24
DA:1582,24
DA:1583,24
DA:1584,24
DA:1585,24
DA:1586,24
DA:1587,24
DA:1588,24
DA:1589,24
DA:1591,15
DA:1592,15
DA:1593,15
DA:1595,11
DA:1596,11
DA:1597,11
DA:1601,12
DA:1603,12
DA:1604,12
DA:1605,12
DA:1607,12
DA:1608,12
DA:1609,12
DA:1611,12
DA:1612,12
DA:1613,12
DA:1621,21
DA:1622,21
DA:1623,21
DA:1624,21
DA:1625,21
DA:1626,21
DA:1628,21
DA:1629,21
DA:1630,21
DA:1633,1
DA:1634,1
DA:1636,1
DA:1639,1
DA:1640,1
DA:1641,1
DA:1643,1
DA:1644,1
DA:1645,1
DA:1646,1
DA:1648,1
DA:1649,1
DA:1650,1
DA:1651,1
DA:1653,1
DA:1656,1
DA:1657,1
DA:1660,1
DA:1661,1
DA:1664,1
DA:1665,1
DA:1666,1
DA:1667,1
DA:1669,1
DA:1671,1
DA:1672,1
DA:1674,1
DA:1675,1
DA:1677,0
DA:1680,1
DA:1681,1
DA:1682,1
DA:1684,0
DA:1686,1
DA:1689,1
DA:1690,1
DA:1692,1
DA:1695,1
DA:1696,1
DA:1699,1
DA:1700,1
DA:1701,1
DA:1703,1
DA:1706,1
DA:1708,1
DA:1709,1
DA:1710,1
DA:1712,1
DA:1713,1
DA:1716,1
DA:1717,1
DA:1718,1
DA:1719,1
DA:1720,1
DA:1723,1
DA:1724,1
DA:1725,1
DA:1726,1
DA:1727,1
DA:1729,1
DA:1730,1
DA:1731,1
DA:1732,1
DA:1733,1
DA:1735,0
DA:1737,1
DA:1740,1
DA:1741,1
DA:1742,1
DA:1743,1
DA:1744,1
DA:1746,1
DA:1747,1
DA:1748,1
DA:1750,1
DA:1751,1
DA:1752,1
DA:1753,1
DA:1756,1
DA:1757,1
DA:1759,1
DA:1760,1
DA:1763,1
DA:1764,1
DA:1767,1
DA:1768,1
DA:1769,1
DA:1770,1
DA:1771,1
DA:1772,1
DA:1773,1
DA:1774,1
DA:1775,1
DA:1776,1
DA:1777,1
DA:1778,1
DA:1779,1
DA:1780,1
DA:1781,1
DA:1782,1
DA:1783,1
DA:1784,1
DA:1785,1
DA:1786,1
DA:1787,1
DA:1791,1
DA:1792,1
DA:1793,1
DA:1794,1
DA:1795,1
DA:1796,1
DA:1797,1
DA:1799,1
DA:1800,1
DA:1801,1
DA:1802,1
DA:1803,1
DA:1805,1
DA:1808,1
DA:1809,1
DA:1812,1
DA:1813,1
DA:1814,1
DA:1815,1
DA:1816,1
DA:1817,1
DA:1818,1
DA:1819,1
DA:1820,1
DA:1821,1
DA:1822,1
DA:1823,1
DA:1824,1
DA:1825,1
DA:1826,1
DA:1827,1
DA:1828,1
DA:1829,1
DA:1833,1
DA:1834,1
DA:1835,1
DA:1836,1
DA:1837,1
DA:1838,1
DA:1839,1
DA:1841,1
DA:1842,1
DA:1843,1
DA:1844,1
DA:1845,1
DA:1847,1
DA:1850,1
DA:1851,1
DA:1854,1
DA:1855,1
DA:1856,1
DA:1857,1
DA:1858,1
DA:1859,1
DA:1860,1
DA:1861,1
DA:1862,1
DA:1863,1
DA:1864,1
DA:1865,1
DA:1866,1
DA:1867,1
DA:1868,1
DA:1869,1
DA:1870,1
DA:1871,1
DA:1872,1
DA:1873,1
DA:1874,1
DA:1878,1
DA:1879,1
DA:1880,1
DA:1881,1
DA:1882,1
DA:1883,1
DA:1884,1
DA:1886,1
DA:1887,1
DA:1888,1
DA:1889,1
DA:1890,1
DA:1892,1
DA:1895,1
DA:1896,1
DA:1899,1
DA:1900,1
DA:1901,1
DA:1902,1
DA:1903,1
DA:1904,1
DA:1905,1
DA:1906,1
DA:1907,1
DA:1908,1
DA:1909,1
DA:1910,1
DA:1911,1
DA:1912,1
DA:1913,1
DA:1914,1
DA:1915,1
DA:1916,1
DA:1917,1
DA:1918,1
DA:1919,1
DA:1923,1
DA:1924,1
DA:1925,1
DA:1926,1
DA:1927,1
DA:1928,1
DA:1929,1
DA:1931,1
DA:1932,1
DA:1934,1
DA:1935,1
DA:1937,0
DA:1939,1
DA:1942,1
DA:1943,1
DA:1946,1
DA:1947,1
DA:1948,1
DA:1949,1
DA:1950,1
DA:1951,1
DA:1952,1
DA:1953,1
DA:1954,1
DA:1955,1
DA:1956,1
DA:1957,1
DA:1958,1
DA:1959,1
DA:1960,1
DA:1961,1
DA:1962,1
DA:1963,1
DA:1964,1
DA:1965,1
DA:1966,1
DA:1970,1
DA:1971,1
DA:1972,1
DA:1973,1
DA:1974,1
DA:1975,1
DA:1976,1
DA:1977,1
DA:1978,1
DA:1980,1
DA:1981,1
DA:1982,1
DA:1984,1
DA:1985,1
DA:1988,1
DA:1989,1
DA:1991,0
DA:1995,1
DA:1996,1
DA:1998,0
DA:2000,1
DA:2003,1
DA:2004,1
DA:2007,1
DA:2008,1
DA:2009,1
DA:2010,1
DA:2011,1
DA:2012,1
DA:2013,1
DA:2014,1
DA:2015,1
DA:2016,1
DA:2017,1
DA:2018,1
DA:2019,1
DA:2020,1
DA:2021,1
DA:2022,1
DA:2023,1
DA:2024,1
DA:2025,1
DA:2026,1
DA:2027,1
DA:2028,1
DA:2029,1
DA:2030,1
DA:2031,1
DA:2032,1
DA:2033,1
DA:2037,1
DA:2038,1
DA:2039,1
DA:2040,1
DA:2041,1
DA:2042,1
DA:2043,1
DA:2045,1
DA:2048,1
DA:2049,1
DA:2050,1
DA:2051,1
DA:2052,1
DA:2055,1
DA:2056,1
DA:2057,1
DA:2059,1
DA:2060,1
DA:2062,0
DA:2066,1
DA:2067,1
DA:2068,1
DA:2070,1
DA:2071,1
DA:2073,0
DA:2075,1
DA:2078,1
DA:2079,1
DA:2082,1
DA:2083,1
DA:2086,1
DA:2087,1
DA:2088,1
DA:2089,1
DA:2092,1
DA:2093,1
DA:2094,1
DA:2095,1
DA:2098,1
DA:2099,1
DA:2102,4
DA:2103,3
DA:2104,3
DA:2105,3
DA:2106,3
DA:2108,0
DA:2111,1
DA:2114,1
DA:2115,1
DA:2117,1
DA:2120,1
DA:2121,1
DA:2122,1
DA:2123,1
DA:2125,1
DA:2126,1
DA:2127,1
DA:2128,1
DA:2130,1
DA:2131,1
DA:2132,1
DA:2136,1
DA:2139,1
DA:2140,1
DA:2141,1
DA:2142,1
DA:2143,1
DA:2144,1
DA:2146,0
DA:2148,0
DA:2150,1
DA:2153,1
DA:2154,1
DA:2156,1
DA:2159,1
DA:2160,1
DA:2161,1
DA:2164,1
DA:2165,1
DA:2166,1
DA:2167,1
DA:2168,1
DA:2169,1
DA:2170,1
DA:2171,1
DA:2173,1
DA:2176,1
DA:2177,1
DA:2178,1
DA:2181,1
DA:2182,1
DA:2184,1
DA:2187,1
DA:2188,1
DA:2189,1
DA:2191,1
DA:2194,1
DA:2195,1
DA:2196,1
DA:2197,1
DA:2198,1
DA:2199,1
DA:2202,1
DA:2203,1
DA:2205,1
DA:2208,1
DA:2209,1
DA:2210,1
DA:2212,1
DA:2213,1
DA:2214,1
DA:2216,1
DA:2217,1
DA:2218,1
DA:2220,1
DA:2221,1
DA:2222,1
DA:2223,1
DA:2224,1
DA:2225,1
DA:2226,1
DA:2230,1
DA:2231,1
DA:2232,1
DA:2235,1
DA:2236,1
DA:2238,1
DA:2239,1
DA:2240,0
DA:2242,1
DA:2243,1
DA:2244,0
DA:2246,1
DA:2247,1
DA:2248,0
DA:2250,0
DA:2252,1
DA:2255,1
DA:2256,1
DA:2258,1
DA:2259,1
DA:2260,1
DA:2261,1
DA:2264,1
DA:2265,1
DA:2266,1
DA:2267,1
DA:2270,1
DA:2271,1
DA:2272,1
DA:2273,1
DA:2274,1
DA:2275,1
DA:2277,1
DA:2278,1
DA:2279,1
DA:2280,1
DA:2281,1
DA:2282,1
DA:2284,1
DA:2285,1
DA:2286,1
DA:2287,1
DA:2288,1
DA:2289,1
DA:2290,1
DA:2293,1
DA:2294,1
DA:2296,1
DA:2297,1
DA:2298,1
DA:2299,1
DA:2302,1
DA:2303,1
DA:2304,1
DA:2305,1
DA:2308,1
DA:2309,1
DA:2310,1
DA:2311,1
DA:2312,1
DA:2313,1
DA:2316,1
DA:2317,1
DA:2318,1
DA:2319,1
DA:2320,1
DA:2321,1
DA:2324,1
DA:2325,1
DA:2326,1
DA:2327,1
DA:2328,1
DA:2329,1
DA:2330,1
DA:2333,1
DA:2334,1
DA:2337,1
DA:2338,1
DA:2341,1
DA:2342,1
DA:2343,1
DA:2344,1
DA:2347,1
DA:2348,1
DA:2349,1
DA:2352,1
DA:2353,1
DA:2354,1
DA:2355,1
DA:2356,1
DA:2357,1
DA:2358,1
DA:2359,1
DA:2361,1
DA:2362,1
DA:2363,1
DA:2364,1
DA:2366,1
DA:2367,1
DA:2370,1
DA:2371,1
DA:2376,1
DA:2377,1
DA:2380,1
DA:2381,1
DA:2384,1
DA:2385,1
DA:2390,1
DA:2391,1
DA:2394,1
DA:2395,1
DA:2398,1
DA:2399,1
DA:2404,1
DA:2405,1
DA:2406,1
DA:2407,1
DA:2411,1
DA:2412,1
DA:2413,1
DA:2414,1
DA:2418,1
DA:2421,1
DA:2423,1
DA:2424,1
DA:2425,1
DA:2426,1
DA:2427,1
DA:2429,1
DA:2430,1
DA:2431,1
DA:2432,1
DA:2434,1
DA:2435,1
DA:2436,1
DA:2437,1
DA:2438,1
DA:2439,1
DA:2440,1
DA:2441,1
DA:2443,1
DA:2444,1
DA:2445,1
DA:2446,1
DA:2448,1
DA:2449,1
DA:2451,1
DA:2452,1
DA:2453,1
DA:2454,1
DA:2455,1
DA:2457,1
DA:2458,1
DA:2459,1
DA:2460,1
DA:2461,1
DA:2462,1
DA:2463,1
DA:2464,1
DA:2466,1
DA:2467,1
DA:2468,1
DA:2469,1
DA:2470,1
DA:2472,1
DA:2473,1
DA:2474,1
DA:2475,1
DA:2476,1
DA:2477,1
DA:2478,1
DA:2480,1
DA:2481,1
DA:2482,1
DA:2483,1
DA:2484,1
DA:2485,1
DA:2487,1
DA:2488,1
DA:2489,1
DA:2490,1
DA:2491,1
DA:2494,1
DA:2496,1
DA:2497,1
DA:2498,1
DA:2501,1
DA:2502,1
DA:2503,1
DA:2504,1
DA:2507,1
DA:2508,1
DA:2509,1
DA:2510,1
DA:2513,1
DA:2514,1
DA:2515,1
DA:2516,1
DA:2517,1
DA:2519,1
DA:2520,1
DA:2521,1
DA:2522,1
DA:2523,1
DA:2525,1
DA:2526,1
DA:2527,1
DA:2528,1
DA:2529,1
DA:2531,1
DA:2532,1
DA:2533,1
DA:2534,1
DA:2535,1
DA:2537,1
DA:2538,1
DA:2539,1
DA:2540,1
DA:2541,1
DA:2542,1
DA:2545,1
DA:2546,1
DA:2549,1
DA:2550,1
DA:2551,1
DA:2554,1
DA:2555,1
DA:2556,1
DA:2559,1
DA:2560,1
DA:2561,1
DA:2563,1
DA:2564,1
DA:2565,1
DA:2567,1
DA:2568,1
DA:2569,1
DA:2572,1
DA:2573,1
DA:2574,1
DA:2577,1
DA:2578,1
DA:2579,1
DA:2580,1
DA:2583,1
DA:2584,1
DA:2587,1
DA:2588,1
DA:2591,1
DA:2592,1
DA:2594,1
DA:2595,1
DA:2597,1
DA:2599,1
DA:2601,1
DA:2602,1
DA:2604,1
DA:2605,1
DA:2607,0
DA:2610,1
DA:2611,1
DA:2612,1
DA:2614,0
DA:2617,1
DA:2618,1
DA:2619,1
DA:2621,0
DA:2624,1
DA:2625,1
DA:2626,1
DA:2628,0
DA:2630,1
DA:2633,1
DA:2634,1
DA:2636,1
DA:2639,1
DA:2640,1
DA:2641,1
DA:2642,1
DA:2643,1
DA:2644,1
DA:2645,1
DA:2646,1
DA:2647,1
DA:2648,1
DA:2649,1
DA:2653,1
DA:2654,1
DA:2655,1
DA:2656,1
DA:2657,1
DA:2658,1
DA:2659,1
DA:2661,1
DA:2665,1
DA:2666,1
DA:2667,1
DA:2671,1
DA:2672,1
DA:2673,1
DA:2675,1
DA:2678,1
DA:2679,1
DA:2680,1
DA:2681,1
DA:2682,1
DA:2683,1
DA:2686,1
DA:2687,1
DA:2688,1
DA:2689,1
DA:2690,1
DA:2691,1
DA:2692,1
DA:2693,1
DA:2694,1
DA:2695,1
DA:2696,1
DA:2697,1
DA:2698,1
DA:2699,1
DA:2700,1
DA:2703,1
DA:2704,1
DA:2705,1
DA:2706,1
DA:2707,1
DA:2708,1
DA:2711,1
DA:2712,1
DA:2713,1
DA:2714,1
DA:2715,1
DA:2716,1
DA:2719,1
DA:2720,1
DA:2721,1
DA:2722,1
DA:2723,1
DA:2724,1
DA:2727,1
DA:2728,1
DA:2731,1
DA:2732,1
DA:2733,1
DA:2734,1
DA:2738,1
DA:2739,1
DA:2742,1
DA:2743,1
DA:2744,1
DA:2745,1
DA:2748,1
DA:2749,1
DA:2750,1
DA:2754,1
DA:2755,1
DA:2758,1
DA:2759,1
DA:2760,1
DA:2761,1
DA:2763,1
DA:2764,1
DA:2765,1
BRF:0
BRH:0
LF:1741
LH:1274
end_of_record
SF:/mnt/f/Node/hivellm/nexus/nexus-core/src/executor/parser.rs
FN:1266,_RNCNvMNtNtCs4yQ6d7adrZY_10nexus_core8executor6parserNtB4_12CypherParser12parse_number0B8_
FN:1375,_RNCNvMNtNtCs4yQ6d7adrZY_10nexus_core8executor6parserNtB4_12CypherParser12peek_keyword0B8_
FN:1272,_RNCNvMNtNtCs4yQ6d7adrZY_10nexus_core8executor6parserNtB4_12CypherParser15is_keyword_char0B8_
FN:1297,_RNCNvMNtNtCs4yQ6d7adrZY_10nexus_core8executor6parserNtB4_12CypherParser18is_identifier_char0B8_
FN:1290,_RNCNvMNtNtCs4yQ6d7adrZY_10nexus_core8executor6parserNtB4_12CypherParser19is_identifier_start0B8_
FN:1009,_RNCNvMNtNtCs4yQ6d7adrZY_10nexus_core8executor6parserNtB4_12CypherParser21parse_numeric_literal0B8_
FN:1015,_RNCNvMNtNtCs4yQ6d7adrZY_10nexus_core8executor6parserNtB4_12CypherParser21parse_numeric_literals_0B8_
FN:1304,_RNCNvMNtNtCs4yQ6d7adrZY_10nexus_core8executor6parserNtB4_12CypherParser8is_digit0B8_
FN:1333,_RNvMNtNtCs4yQ6d7adrZY_10nexus_core8executor6parserNtB2_12CypherParser11expect_char
FN:602,_RNvMNtNtCs4yQ6d7adrZY_10nexus_core8executor6parserNtB2_12CypherParser11parse_types
FN:1314,_RNvMNtNtCs4yQ6d7adrZY_10nexus_core8executor6parserNtB2_12CypherParser12consume_char
FN:374,_RNvMNtNtCs4yQ6d7adrZY_10nexus_core8executor6parserNtB2_12CypherParser12parse_clause
FN:589,_RNvMNtNtCs4yQ6d7adrZY_10nexus_core8executor6parserNtB2_12CypherParser12parse_labels
FN:1257,_RNvMNtNtCs4yQ6d7adrZY_10nexus_core8executor6parserNtB2_12CypherParser12parse_number
FN:922,_RNvMNtNtCs4yQ6d7adrZY_10nexus_core8executor6parserNtB2_12CypherParser12peek_char_at
FN:1352,_RNvMNtNtCs4yQ6d7adrZY_10nexus_core8executor6parserNtB2_12CypherParser12peek_keyword
FN:1225,_RNvMNtNtCs4yQ6d7adrZY_10nexus_core8executor6parserNtB2_12CypherParser13parse_keyword
FN:419,_RNvMNtNtCs4yQ6d7adrZY_10nexus_core8executor6parserNtB2_12CypherParser13parse_pattern
FN:1342,_RNvMNtNtCs4yQ6d7adrZY_10nexus_core8executor6parserNtB2_12CypherParser14expect_keyword
FN:1270,_RNvMNtNtCs4yQ6d7adrZY_10nexus_core8executor6parserNtB2_12CypherParser15is_keyword_char
FN:958,_RNvMNtNtCs4yQ6d7adrZY_10nexus_core8executor6parserNtB2_12CypherParser15parse_parameter
FN:1379,_RNvMNtNtCs4yQ6d7adrZY_10nexus_core8executor6parserNtB2_12CypherParser15skip_whitespace
FN:798,_RNvMNtNtCs4yQ6d7adrZY_10nexus_core8executor6parserNtB2_12CypherParser16parse_expression
FN:1240,_RNvMNtNtCs4yQ6d7adrZY_10nexus_core8executor6parserNtB2_12CypherParser16parse_identifier
FN:734,_RNvMNtNtCs4yQ6d7adrZY_10nexus_core8executor6parserNtB2_12CypherParser17parse_return_item
FN:790,_RNvMNtNtCs4yQ6d7adrZY_10nexus_core8executor6parserNtB2_12CypherParser17parse_skip_clause
FN:1277,_RNvMNtNtCs4yQ6d7adrZY_10nexus_core8executor6parserNtB2_12CypherParser18is_clause_boundary
FN:1295,_RNvMNtNtCs4yQ6d7adrZY_10nexus_core8executor6parserNtB2_12CypherParser18is_identifier_char
FN:783,_RNvMNtNtCs4yQ6d7adrZY_10nexus_core8executor6parserNtB2_12CypherParser18parse_limit_clause
FN:408,_RNvMNtNtCs4yQ6d7adrZY_10nexus_core8executor6parserNtB2_12CypherParser18parse_match_clause
FN:461,_RNvMNtNtCs4yQ6d7adrZY_10nexus_core8executor6parserNtB2_12CypherParser18parse_node_pattern
FN:1070,_RNvMNtNtCs4yQ6d7adrZY_10nexus_core8executor6parserNtB2_12CypherParser18parse_null_literal
FN:615,_RNvMNtNtCs4yQ6d7adrZY_10nexus_core8executor6parserNtB2_12CypherParser18parse_property_map
FN:697,_RNvMNtNtCs4yQ6d7adrZY_10nexus_core8executor6parserNtB2_12CypherParser18parse_where_clause
FN:1288,_RNvMNtNtCs4yQ6d7adrZY_10nexus_core8executor6parserNtB2_12CypherParser19is_identifier_start
FN:704,_RNvMNtNtCs4yQ6d7adrZY_10nexus_core8executor6parserNtB2_12CypherParser19parse_return_clause
FN:1096,_RNvMNtNtCs4yQ6d7adrZY_10nexus_core8executor6parserNtB2_12CypherParser20parse_map_expression
FN:965,_RNvMNtNtCs4yQ6d7adrZY_10nexus_core8executor6parserNtB2_12CypherParser20parse_string_literal
FN:1210,_RNvMNtNtCs4yQ6d7adrZY_10nexus_core8executor6parserNtB2_12CypherParser20parse_unary_operator
FN:860,_RNvMNtNtCs4yQ6d7adrZY_10nexus_core8executor6parserNtB2_12CypherParser21parse_binary_operator
FN:1060,_RNvMNtNtCs4yQ6d7adrZY_10nexus_core8executor6parserNtB2_12CypherParser21parse_boolean_literal
FN:1102,_RNvMNtNtCs4yQ6d7adrZY_10nexus_core8executor6parserNtB2_12CypherParser21parse_case_expression
FN:1076,_RNvMNtNtCs4yQ6d7adrZY_10nexus_core8executor6parserNtB2_12CypherParser21parse_list_expression
FN:991,_RNvMNtNtCs4yQ6d7adrZY_10nexus_core8executor6parserNtB2_12CypherParser21parse_numeric_literal
FN:748,_RNvMNtNtCs4yQ6d7adrZY_10nexus_core8executor6parserNtB2_12CypherParser21parse_order_by_clause
FN:658,_RNvMNtNtCs4yQ6d7adrZY_10nexus_core8executor6parserNtB2_12CypherParser22parse_range_quantifier
FN:831,_RNvMNtNtCs4yQ6d7adrZY_10nexus_core8executor6parserNtB2_12CypherParser23parse_simple_expression
FN:492,_RNvMNtNtCs4yQ6d7adrZY_10nexus_core8executor6parserNtB2_12CypherParser26parse_relationship_pattern
FN:1021,_RNvMNtNtCs4yQ6d7adrZY_10nexus_core8executor6parserNtB2_12CypherParser27parse_identifier_expression
FN:638,_RNvMNtNtCs4yQ6d7adrZY_10nexus_core8executor6parserNtB2_12CypherParser29parse_relationship_quantifier
FN:950,_RNvMNtNtCs4yQ6d7adrZY_10nexus_core8executor6parserNtB2_12CypherParser30parse_parenthesized_expression
FN:333,_RNvMNtNtCs4yQ6d7adrZY_10nexus_core8executor6parserNtB2_12CypherParser3new
FN:1391,_RNvMNtNtCs4yQ6d7adrZY_10nexus_core8executor6parserNtB2_12CypherParser5error
FN:343,_RNvMNtNtCs4yQ6d7adrZY_10nexus_core8executor6parserNtB2_12CypherParser5parse
FN:1302,_RNvMNtNtCs4yQ6d7adrZY_10nexus_core8executor6parserNtB2_12CypherParser8is_digit
FN:1309,_RNvMNtNtCs4yQ6d7adrZY_10nexus_core8executor6parserNtB2_12CypherParser9peek_char
FN:1333,_RNvMNtNtCs7bzfDg8Kx2o_10nexus_core8executor6parserNtB2_12CypherParser11expect_char
FN:602,_RNvMNtNtCs7bzfDg8Kx2o_10nexus_core8executor6parserNtB2_12CypherParser11parse_types
FN:1314,_RNvMNtNtCs7bzfDg8Kx2o_10nexus_core8executor6parserNtB2_12CypherParser12consume_char
FN:374,_RNvMNtNtCs7bzfDg8Kx2o_10nexus_core8executor6parserNtB2_12CypherParser12parse_clause
FN:589,_RNvMNtNtCs7bzfDg8Kx2o_10nexus_core8executor6parserNtB2_12CypherParser12parse_labels
FN:1257,_RNvMNtNtCs7bzfDg8Kx2o_10nexus_core8executor6parserNtB2_12CypherParser12parse_number
FN:922,_RNvMNtNtCs7bzfDg8Kx2o_10nexus_core8executor6parserNtB2_12CypherParser12peek_char_at
FN:1352,_RNvMNtNtCs7bzfDg8Kx2o_10nexus_core8executor6parserNtB2_12CypherParser12peek_keyword
FN:1225,_RNvMNtNtCs7bzfDg8Kx2o_10nexus_core8executor6parserNtB2_12CypherParser13parse_keyword
FN:419,_RNvMNtNtCs7bzfDg8Kx2o_10nexus_core8executor6parserNtB2_12CypherParser13parse_pattern
FN:1342,_RNvMNtNtCs7bzfDg8Kx2o_10nexus_core8executor6parserNtB2_12CypherParser14expect_keyword
FN:1270,_RNvMNtNtCs7bzfDg8Kx2o_10nexus_core8executor6parserNtB2_12CypherParser15is_keyword_char
FN:958,_RNvMNtNtCs7bzfDg8Kx2o_10nexus_core8executor6parserNtB2_12CypherParser15parse_parameter
FN:1379,_RNvMNtNtCs7bzfDg8Kx2o_10nexus_core8executor6parserNtB2_12CypherParser15skip_whitespace
FN:798,_RNvMNtNtCs7bzfDg8Kx2o_10nexus_core8executor6parserNtB2_12CypherParser16parse_expression
FN:1240,_RNvMNtNtCs7bzfDg8Kx2o_10nexus_core8executor6parserNtB2_12CypherParser16parse_identifier
FN:734,_RNvMNtNtCs7bzfDg8Kx2o_10nexus_core8executor6parserNtB2_12CypherParser17parse_return_item
FN:790,_RNvMNtNtCs7bzfDg8Kx2o_10nexus_core8executor6parserNtB2_12CypherParser17parse_skip_clause
FN:1277,_RNvMNtNtCs7bzfDg8Kx2o_10nexus_core8executor6parserNtB2_12CypherParser18is_clause_boundary
FN:1295,_RNvMNtNtCs7bzfDg8Kx2o_10nexus_core8executor6parserNtB2_12CypherParser18is_identifier_char
FN:783,_RNvMNtNtCs7bzfDg8Kx2o_10nexus_core8executor6parserNtB2_12CypherParser18parse_limit_clause
FN:408,_RNvMNtNtCs7bzfDg8Kx2o_10nexus_core8executor6parserNtB2_12CypherParser18parse_match_clause
FN:461,_RNvMNtNtCs7bzfDg8Kx2o_10nexus_core8executor6parserNtB2_12CypherParser18parse_node_pattern
FN:1070,_RNvMNtNtCs7bzfDg8Kx2o_10nexus_core8executor6parserNtB2_12CypherParser18parse_null_literal
FN:615,_RNvMNtNtCs7bzfDg8Kx2o_10nexus_core8executor6parserNtB2_12CypherParser18parse_property_map
FN:697,_RNvMNtNtCs7bzfDg8Kx2o_10nexus_core8executor6parserNtB2_12CypherParser18parse_where_clause
FN:1288,_RNvMNtNtCs7bzfDg8Kx2o_10nexus_core8executor6parserNtB2_12CypherParser19is_identifier_start
FN:704,_RNvMNtNtCs7bzfDg8Kx2o_10nexus_core8executor6parserNtB2_12CypherParser19parse_return_clause
FN:1096,_RNvMNtNtCs7bzfDg8Kx2o_10nexus_core8executor6parserNtB2_12CypherParser20parse_map_expression
FN:965,_RNvMNtNtCs7bzfDg8Kx2o_10nexus_core8executor6parserNtB2_12CypherParser20parse_string_literal
FN:1210,_RNvMNtNtCs7bzfDg8Kx2o_10nexus_core8executor6parserNtB2_12CypherParser20parse_unary_operator
FN:860,_RNvMNtNtCs7bzfDg8Kx2o_10nexus_core8executor6parserNtB2_12CypherParser21parse_binary_operator
FN:1060,_RNvMNtNtCs7bzfDg8Kx2o_10nexus_core8executor6parserNtB2_12CypherParser21parse_boolean_literal
FN:1102,_RNvMNtNtCs7bzfDg8Kx2o_10nexus_core8executor6parserNtB2_12CypherParser21parse_case_expression
FN:1076,_RNvMNtNtCs7bzfDg8Kx2o_10nexus_core8executor6parserNtB2_12CypherParser21parse_list_expression
FN:991,_RNvMNtNtCs7bzfDg8Kx2o_10nexus_core8executor6parserNtB2_12CypherParser21parse_numeric_literal
FN:748,_RNvMNtNtCs7bzfDg8Kx2o_10nexus_core8executor6parserNtB2_12CypherParser21parse_order_by_clause
FN:658,_RNvMNtNtCs7bzfDg8Kx2o_10nexus_core8executor6parserNtB2_12CypherParser22parse_range_quantifier
FN:1172,_RNvMNtNtCs7bzfDg8Kx2o_10nexus_core8executor6parserNtB2_12CypherParser23parse_additive_operator
FN:831,_RNvMNtNtCs7bzfDg8Kx2o_10nexus_core8executor6parserNtB2_12CypherParser23parse_simple_expression
FN:927,_RNvMNtNtCs7bzfDg8Kx2o_10nexus_core8executor6parserNtB2_12CypherParser24parse_primary_expression
FN:1138,_RNvMNtNtCs7bzfDg8Kx2o_10nexus_core8executor6parserNtB2_12CypherParser25parse_comparison_operator
FN:492,_RNvMNtNtCs7bzfDg8Kx2o_10nexus_core8executor6parserNtB2_12CypherParser26parse_relationship_pattern
FN:1021,_RNvMNtNtCs7bzfDg8Kx2o_10nexus_core8executor6parserNtB2_12CypherParser27parse_identifier_expression
FN:564,_RNvMNtNtCs7bzfDg8Kx2o_10nexus_core8executor6parserNtB2_12CypherParser28parse_relationship_direction
FN:1187,_RNvMNtNtCs7bzfDg8Kx2o_10nexus_core8executor6parserNtB2_12CypherParser29parse_multiplicative_operator
FN:638,_RNvMNtNtCs7bzfDg8Kx2o_10nexus_core8executor6parserNtB2_12CypherParser29parse_relationship_quantifier
FN:950,_RNvMNtNtCs7bzfDg8Kx2o_10nexus_core8executor6parserNtB2_12CypherParser30parse_parenthesized_expression
FN:333,_RNvMNtNtCs7bzfDg8Kx2o_10nexus_core8executor6parserNtB2_12CypherParser3new
FN:1391,_RNvMNtNtCs7bzfDg8Kx2o_10nexus_core8executor6parserNtB2_12CypherParser5error
FN:343,_RNvMNtNtCs7bzfDg8Kx2o_10nexus_core8executor6parserNtB2_12CypherParser5parse
FN:1302,_RNvMNtNtCs7bzfDg8Kx2o_10nexus_core8executor6parserNtB2_12CypherParser8is_digit
FN:1309,_RNvMNtNtCs7bzfDg8Kx2o_10nexus_core8executor6parserNtB2_12CypherParser9peek_char
FN:1749,_RNCNvNtNtNtCs7bzfDg8Kx2o_10nexus_core8executor6parser5testss_24test_parse_complex_query0B9_
FN:2598,_RNvNtNtNtCs7bzfDg8Kx2o_10nexus_core8executor6parser5testss_17test_parse_number
FN:2622,_RNvNtNtNtCs7bzfDg8Kx2o_10nexus_core8executor6parser5testss_18test_parse_keyword
FN:1513,_RNvNtNtNtCs7bzfDg8Kx2o_10nexus_core8executor6parser5testss_19test_parse_order_by
FN:1554,_RNvNtNtNtCs7bzfDg8Kx2o_10nexus_core8executor6parser5testss_20test_parse_parameter
FN:2578,_RNvNtNtNtCs7bzfDg8Kx2o_10nexus_core8executor6parser5testss_20test_parse_peek_char
FN:2608,_RNvNtNtNtCs7bzfDg8Kx2o_10nexus_core8executor6parser5testss_21test_parse_identifier
FN:1530,_RNvNtNtNtCs7bzfDg8Kx2o_10nexus_core8executor6parser5testss_21test_parse_limit_skip
FN:2551,_RNvNtNtNtCs7bzfDg8Kx2o_10nexus_core8executor6parser5testss_22test_parse_expect_char
FN:1951,_RNvNtNtNtCs7bzfDg8Kx2o_10nexus_core8executor6parser5testss_22test_parse_skip_clause
FN:1619,_RNvNtNtNtCs7bzfDg8Kx2o_10nexus_core8executor6parser5testss_23test_debug_when_keyword
FN:2512,_RNvNtNtNtCs7bzfDg8Kx2o_10nexus_core8executor6parser5testss_23test_parse_consume_char
FN:2042,_RNvNtNtNtCs7bzfDg8Kx2o_10nexus_core8executor6parser5testss_23test_parse_null_literal
FN:2588,_RNvNtNtNtCs7bzfDg8Kx2o_10nexus_core8executor6parser5testss_23test_parse_peek_char_at
FN:2486,_RNvNtNtNtCs7bzfDg8Kx2o_10nexus_core8executor6parser5testss_23test_parse_peek_keyword
FN:1404,_RNvNtNtNtCs7bzfDg8Kx2o_10nexus_core8executor6parser5testss_23test_parse_simple_match
FN:1731,_RNvNtNtNtCs7bzfDg8Kx2o_10nexus_core8executor6parser5testss_24test_parse_complex_query
FN:2081,_RNvNtNtNtCs7bzfDg8Kx2o_10nexus_core8executor6parser5testss_24test_parse_function_call
FN:2502,_RNvNtNtNtCs7bzfDg8Kx2o_10nexus_core8executor6parser5testss_25test_parse_error_handling
FN:2561,_RNvNtNtNtCs7bzfDg8Kx2o_10nexus_core8executor6parser5testss_25test_parse_expect_keyword
FN:2004,_RNvNtNtNtCs7bzfDg8Kx2o_10nexus_core8executor6parser5testss_25test_parse_float_literals
FN:2066,_RNvNtNtNtCs7bzfDg8Kx2o_10nexus_core8executor6parser5testss_25test_parse_map_expression
FN:1991,_RNvNtNtNtCs7bzfDg8Kx2o_10nexus_core8executor6parser5testss_25test_parse_string_escapes
FN:1600,_RNvNtNtNtCs7bzfDg8Kx2o_10nexus_core8executor6parser5testss_26test_debug_case_expression
FN:1657,_RNvNtNtNtCs7bzfDg8Kx2o_10nexus_core8executor6parser5testss_26test_parse_case_expression
FN:2461,_RNvNtNtNtCs7bzfDg8Kx2o_10nexus_core8executor6parser5testss_26test_parse_clause_boundary
FN:1720,_RNvNtNtNtCs7bzfDg8Kx2o_10nexus_core8executor6parser5testss_26test_parse_error_reporting
FN:2053,_RNvNtNtNtCs7bzfDg8Kx2o_10nexus_core8executor6parser5testss_26test_parse_list_expression
FN:1859,_RNvNtNtNtCs7bzfDg8Kx2o_10nexus_core8executor6parser5testss_26test_parse_multiple_labels
FN:1824,_RNvNtNtNtCs7bzfDg8Kx2o_10nexus_core8executor6parser5testss_26test_parse_node_properties
FN:1893,_RNvNtNtNtCs7bzfDg8Kx2o_10nexus_core8executor6parser5testss_26test_parse_return_distinct
FN:2569,_RNvNtNtNtCs7bzfDg8Kx2o_10nexus_core8executor6parser5testss_26test_parse_skip_whitespace
FN:1965,_RNvNtNtNtCs7bzfDg8Kx2o_10nexus_core8executor6parser5testss_26test_parse_string_literals
FN:2218,_RNvNtNtNtCs7bzfDg8Kx2o_10nexus_core8executor6parser5testss_26test_parse_unary_operators
FN:2095,_RNvNtNtNtCs7bzfDg8Kx2o_10nexus_core8executor6parser5testss_27test_parse_binary_operators
FN:2017,_RNvNtNtNtCs7bzfDg8Kx2o_10nexus_core8executor6parser5testss_27test_parse_boolean_literals
FN:1434,_RNvNtNtNtCs7bzfDg8Kx2o_10nexus_core8executor6parser5testss_27test_parse_match_with_where
FN:1574,_RNvNtNtNtCs7bzfDg8Kx2o_10nexus_core8executor6parser5testss_28test_debug_binary_expression
FN:1934,_RNvNtNtNtCs7bzfDg8Kx2o_10nexus_core8executor6parser5testss_28test_parse_multiple_order_by
FN:1486,_RNvNtNtNtCs7bzfDg8Kx2o_10nexus_core8executor6parser5testss_28test_parse_return_with_alias
FN:2347,_RNvNtNtNtCs7bzfDg8Kx2o_10nexus_core8executor6parser5testss_29test_parse_additive_operators
FN:1920,_RNvNtNtNtCs7bzfDg8Kx2o_10nexus_core8executor6parser5testss_29test_parse_order_by_ascending
FN:2391,_RNvNtNtNtCs7bzfDg8Kx2o_10nexus_core8executor6parser5testss_29test_parse_primary_expression
FN:2319,_RNvNtNtNtCs7bzfDg8Kx2o_10nexus_core8executor6parser5testss_31test_parse_comparison_operators
FN:2534,_RNvNtNtNtCs7bzfDg8Kx2o_10nexus_core8executor6parser5testss_31test_parse_consume_char_newline
FN:1463,_RNvNtNtNtCs7bzfDg8Kx2o_10nexus_core8executor6parser5testss_31test_parse_relationship_pattern
FN:2424,_RNvNtNtNtCs7bzfDg8Kx2o_10nexus_core8executor6parser5testss_32test_parse_identifier_validation
FN:1906,_RNvNtNtNtCs7bzfDg8Kx2o_10nexus_core8executor6parser5testss_32test_parse_multiple_return_items
FN:2379,_RNvNtNtNtCs7bzfDg8Kx2o_10nexus_core8executor6parser5testss_33test_parse_unary_operators_method
FN:1766,_RNvNtNtNtCs7bzfDg8Kx2o_10nexus_core8executor6parser5testss_34test_parse_relationship_directions
FN:1841,_RNvNtNtNtCs7bzfDg8Kx2o_10nexus_core8executor6parser5testss_34test_parse_relationship_properties
FN:2359,_RNvNtNtNtCs7bzfDg8Kx2o_10nexus_core8executor6parser5testss_35test_parse_multiplicative_operators
FN:2241,_RNvNtNtNtCs7bzfDg8Kx2o_10nexus_core8executor6parser5testss_35test_parse_parenthesized_expression
FN:1808,_RNvNtNtNtCs7bzfDg8Kx2o_10nexus_core8executor6parser5testss_35test_parse_relationship_quantifiers
FN:2254,_RNvNtNtNtCs7bzfDg8Kx2o_10nexus_core8executor6parser5testss_37test_parse_case_expression_with_input
FN:1876,_RNvNtNtNtCs7bzfDg8Kx2o_10nexus_core8executor6parser5testss_38test_parse_multiple_relationship_types
FN:2411,_RNvNtNtNtCs7bzfDg8Kx2o_10nexus_core8executor6parser5testss_38test_parse_range_quantifier_edge_cases
FN:2273,_RNvNtNtNtCs7bzfDg8Kx2o_10nexus_core8executor6parser5testss_40test_parse_case_expression_without_input
FN:2295,_RNvNtNtNtCs7bzfDg8Kx2o_10nexus_core8executor6parser5testss_40test_parse_relationship_direction_errors
FN:1978,_RNvNtNtNtCs7bzfDg8Kx2o_10nexus_core8executor6parser5testss_40test_parse_string_literals_single_quotes
FN:2303,_RNvNtNtNtCs7bzfDg8Kx2o_10nexus_core8executor6parser5testss_41test_parse_relationship_direction_parsing
FN:1266,_RNCNvMNtNtCs7bzfDg8Kx2o_10nexus_core8executor6parserNtB4_12CypherParser12parse_number0B8_
FN:1375,_RNCNvMNtNtCs7bzfDg8Kx2o_10nexus_core8executor6parserNtB4_12CypherParser12peek_keyword0B8_
FN:1272,_RNCNvMNtNtCs7bzfDg8Kx2o_10nexus_core8executor6parserNtB4_12CypherParser15is_keyword_char0B8_
FN:1297,_RNCNvMNtNtCs7bzfDg8Kx2o_10nexus_core8executor6parserNtB4_12CypherParser18is_identifier_char0B8_
FN:1290,_RNCNvMNtNtCs7bzfDg8Kx2o_10nexus_core8executor6parserNtB4_12CypherParser19is_identifier_start0B8_
FN:1009,_RNCNvMNtNtCs7bzfDg8Kx2o_10nexus_core8executor6parserNtB4_12CypherParser21parse_numeric_literal0B8_
FN:1015,_RNCNvMNtNtCs7bzfDg8Kx2o_10nexus_core8executor6parserNtB4_12CypherParser21parse_numeric_literals_0B8_
FN:1304,_RNCNvMNtNtCs7bzfDg8Kx2o_10nexus_core8executor6parserNtB4_12CypherParser8is_digit0B8_
FNDA:0,_RNCNvMNtNtCs4yQ6d7adrZY_10nexus_core8executor6parserNtB4_12CypherParser12parse_number0B8_
FNDA:2,_RNCNvMNtNtCs4yQ6d7adrZY_10nexus_core8executor6parserNtB4_12CypherParser12peek_keyword0B8_
FNDA:10,_RNCNvMNtNtCs4yQ6d7adrZY_10nexus_core8executor6parserNtB4_12CypherParser15is_keyword_char0B8_
FNDA:3,_RNCNvMNtNtCs4yQ6d7adrZY_10nexus_core8executor6parserNtB4_12CypherParser18is_identifier_char0B8_
FNDA:1,_RNCNvMNtNtCs4yQ6d7adrZY_10nexus_core8executor6parserNtB4_12CypherParser19is_identifier_start0B8_
FNDA:0,_RNCNvMNtNtCs4yQ6d7adrZY_10nexus_core8executor6parserNtB4_12CypherParser21parse_numeric_literal0B8_
FNDA:0,_RNCNvMNtNtCs4yQ6d7adrZY_10nexus_core8executor6parserNtB4_12CypherParser21parse_numeric_literals_0B8_
FNDA:2,_RNCNvMNtNtCs4yQ6d7adrZY_10nexus_core8executor6parserNtB4_12CypherParser8is_digit0B8_
FNDA:0,_RNvMNtNtCs4yQ6d7adrZY_10nexus_core8executor6parserNtB2_12CypherParser11expect_char
FNDA:0,_RNvMNtNtCs4yQ6d7adrZY_10nexus_core8executor6parserNtB2_12CypherParser11parse_types
FNDA:16,_RNvMNtNtCs4yQ6d7adrZY_10nexus_core8executor6parserNtB2_12CypherParser12consume_char
FNDA:1,_RNvMNtNtCs4yQ6d7adrZY_10nexus_core8executor6parserNtB2_12CypherParser12parse_clause
FNDA:0,_RNvMNtNtCs4yQ6d7adrZY_10nexus_core8executor6parserNtB2_12CypherParser12parse_labels
FNDA:0,_RNvMNtNtCs4yQ6d7adrZY_10nexus_core8executor6parserNtB2_12CypherParser12parse_number
FNDA:0,_RNvMNtNtCs4yQ6d7adrZY_10nexus_core8executor6parserNtB2_12CypherParser12peek_char_at
FNDA:7,_RNvMNtNtCs4yQ6d7adrZY_10nexus_core8executor6parserNtB2_12CypherParser12peek_keyword
FNDA:2,_RNvMNtNtCs4yQ6d7adrZY_10nexus_core8executor6parserNtB2_12CypherParser13parse_keyword
FNDA:0,_RNvMNtNtCs4yQ6d7adrZY_10nexus_core8executor6parserNtB2_12CypherParser13parse_pattern
FNDA:0,_RNvMNtNtCs4yQ6d7adrZY_10nexus_core8executor6parserNtB2_12CypherParser14expect_keyword
FNDA:10,_RNvMNtNtCs4yQ6d7adrZY_10nexus_core8executor6parserNtB2_12CypherParser15is_keyword_char
FNDA:0,_RNvMNtNtCs4yQ6d7adrZY_10nexus_core8executor6parserNtB2_12CypherParser15parse_parameter
FNDA:11,_RNvMNtNtCs4yQ6d7adrZY_10nexus_core8executor6parserNtB2_12CypherParser15skip_whitespace
FNDA:1,_RNvMNtNtCs4yQ6d7adrZY_10nexus_core8executor6parserNtB2_12CypherParser16parse_expression
FNDA:1,_RNvMNtNtCs4yQ6d7adrZY_10nexus_core8executor6parserNtB2_12CypherParser16parse_identifier
FNDA:1,_RNvMNtNtCs4yQ6d7adrZY_10nexus_core8executor6parserNtB2_12CypherParser17parse_return_item
FNDA:0,_RNvMNtNtCs4yQ6d7adrZY_10nexus_core8executor6parserNtB2_12CypherParser17parse_skip_clause
FNDA:1,_RNvMNtNtCs4yQ6d7adrZY_10nexus_core8executor6parserNtB2_12CypherParser18is_clause_boundary
FNDA:3,_RNvMNtNtCs4yQ6d7adrZY_10nexus_core8executor6parserNtB2_12CypherParser18is_identifier_char
FNDA:0,_RNvMNtNtCs4yQ6d7adrZY_10nexus_core8executor6parserNtB2_12CypherParser18parse_limit_clause
FNDA:0,_RNvMNtNtCs4yQ6d7adrZY_10nexus_core8executor6parserNtB2_12CypherParser18parse_match_clause
FNDA:0,_RNvMNtNtCs4yQ6d7adrZY_10nexus_core8executor6parserNtB2_12CypherParser18parse_node_pattern
FNDA:0,_RNvMNtNtCs4yQ6d7adrZY_10nexus_core8executor6parserNtB2_12CypherParser18parse_null_literal
FNDA:0,_RNvMNtNtCs4yQ6d7adrZY_10nexus_core8executor6parserNtB2_12CypherParser18parse_property_map
FNDA:0,_RNvMNtNtCs4yQ6d7adrZY_10nexus_core8executor6parserNtB2_12CypherParser18parse_where_clause
FNDA:1,_RNvMNtNtCs4yQ6d7adrZY_10nexus_core8executor6parserNtB2_12CypherParser19is_identifier_start
FNDA:1,_RNvMNtNtCs4yQ6d7adrZY_10nexus_core8executor6parserNtB2_12CypherParser19parse_return_clause
FNDA:0,_RNvMNtNtCs4yQ6d7adrZY_10nexus_core8executor6parserNtB2_12CypherParser20parse_map_expression
FNDA:0,_RNvMNtNtCs4yQ6d7adrZY_10nexus_core8executor6parserNtB2_12CypherParser20parse_string_literal
FNDA:1,_RNvMNtNtCs4yQ6d7adrZY_10nexus_core8executor6parserNtB2_12CypherParser20parse_unary_operator
FNDA:1,_RNvMNtNtCs4yQ6d7adrZY_10nexus_core8executor6parserNtB2_12CypherParser21parse_binary_operator
FNDA:0,_RNvMNtNtCs4yQ6d7adrZY_10nexus_core8executor6parserNtB2_12CypherParser21parse_boolean_literal
FNDA:0,_RNvMNtNtCs4yQ6d7adrZY_10nexus_core8executor6parserNtB2_12CypherParser21parse_case_expression
FNDA:0,_RNvMNtNtCs4yQ6d7adrZY_10nexus_core8executor6parserNtB2_12CypherParser21parse_list_expression
FNDA:1,_RNvMNtNtCs4yQ6d7adrZY_10nexus_core8executor6parserNtB2_12CypherParser21parse_numeric_literal
FNDA:0,_RNvMNtNtCs4yQ6d7adrZY_10nexus_core8executor6parserNtB2_12CypherParser21parse_order_by_clause
FNDA:0,_RNvMNtNtCs4yQ6d7adrZY_10nexus_core8executor6parserNtB2_12CypherParser22parse_range_quantifier
FNDA:1,_RNvMNtNtCs4yQ6d7adrZY_10nexus_core8executor6parserNtB2_12CypherParser23parse_simple_expression
FNDA:0,_RNvMNtNtCs4yQ6d7adrZY_10nexus_core8executor6parserNtB2_12CypherParser26parse_relationship_pattern
FNDA:0,_RNvMNtNtCs4yQ6d7adrZY_10nexus_core8executor6parserNtB2_12CypherParser27parse_identifier_expression
FNDA:0,_RNvMNtNtCs4yQ6d7adrZY_10nexus_core8executor6parserNtB2_12CypherParser29parse_relationship_quantifier
FNDA:0,_RNvMNtNtCs4yQ6d7adrZY_10nexus_core8executor6parserNtB2_12CypherParser30parse_parenthesized_expression
FNDA:1,_RNvMNtNtCs4yQ6d7adrZY_10nexus_core8executor6parserNtB2_12CypherParser3new
FNDA:0,_RNvMNtNtCs4yQ6d7adrZY_10nexus_core8executor6parserNtB2_12CypherParser5error
FNDA:1,_RNvMNtNtCs4yQ6d7adrZY_10nexus_core8executor6parserNtB2_12CypherParser5parse
FNDA:2,_RNvMNtNtCs4yQ6d7adrZY_10nexus_core8executor6parserNtB2_12CypherParser8is_digit
FNDA:21,_RNvMNtNtCs4yQ6d7adrZY_10nexus_core8executor6parserNtB2_12CypherParser9peek_char
FNDA:130,_RNvMNtNtCs7bzfDg8Kx2o_10nexus_core8executor6parserNtB2_12CypherParser11expect_char
FNDA:4,_RNvMNtNtCs7bzfDg8Kx2o_10nexus_core8executor6parserNtB2_12CypherParser11parse_types
FNDA:2030,_RNvMNtNtCs7bzfDg8Kx2o_10nexus_core8executor6parserNtB2_12CypherParser12consume_char
FNDA:69,_RNvMNtNtCs7bzfDg8Kx2o_10nexus_core8executor6parserNtB2_12CypherParser12parse_clause
FNDA:21,_RNvMNtNtCs7bzfDg8Kx2o_10nexus_core8executor6parserNtB2_12CypherParser12parse_labels
FNDA:2,_RNvMNtNtCs7bzfDg8Kx2o_10nexus_core8executor6parserNtB2_12CypherParser12parse_number
FNDA:6,_RNvMNtNtCs7bzfDg8Kx2o_10nexus_core8executor6parserNtB2_12CypherParser12peek_char_at
FNDA:965,_RNvMNtNtCs7bzfDg8Kx2o_10nexus_core8executor6parserNtB2_12CypherParser12peek_keyword
FNDA:126,_RNvMNtNtCs7bzfDg8Kx2o_10nexus_core8executor6parserNtB2_12CypherParser13parse_keyword
FNDA:29,_RNvMNtNtCs7bzfDg8Kx2o_10nexus_core8executor6parserNtB2_12CypherParser13parse_pattern
FNDA:41,_RNvMNtNtCs7bzfDg8Kx2o_10nexus_core8executor6parserNtB2_12CypherParser14expect_keyword
FNDA:690,_RNvMNtNtCs7bzfDg8Kx2o_10nexus_core8executor6parserNtB2_12CypherParser15is_keyword_char
FNDA:7,_RNvMNtNtCs7bzfDg8Kx2o_10nexus_core8executor6parserNtB2_12CypherParser15parse_parameter
FNDA:994,_RNvMNtNtCs7bzfDg8Kx2o_10nexus_core8executor6parserNtB2_12CypherParser15skip_whitespace
FNDA:121,_RNvMNtNtCs7bzfDg8Kx2o_10nexus_core8executor6parserNtB2_12CypherParser16parse_expression
FNDA:215,_RNvMNtNtCs7bzfDg8Kx2o_10nexus_core8executor6parserNtB2_12CypherParser16parse_identifier
FNDA:32,_RNvMNtNtCs7bzfDg8Kx2o_10nexus_core8executor6parserNtB2_12CypherParser17parse_return_item
FNDA:2,_RNvMNtNtCs7bzfDg8Kx2o_10nexus_core8executor6parserNtB2_12CypherParser17parse_skip_clause
FNDA:77,_RNvMNtNtCs7bzfDg8Kx2o_10nexus_core8executor6parserNtB2_12CypherParser18is_clause_boundary
FNDA:516,_RNvMNtNtCs7bzfDg8Kx2o_10nexus_core8executor6parserNtB2_12CypherParser18is_identifier_char
FNDA:3,_RNvMNtNtCs7bzfDg8Kx2o_10nexus_core8executor6parserNtB2_12CypherParser18parse_limit_clause
FNDA:29,_RNvMNtNtCs7bzfDg8Kx2o_10nexus_core8executor6parserNtB2_12CypherParser18parse_match_clause
FNDA:38,_RNvMNtNtCs7bzfDg8Kx2o_10nexus_core8executor6parserNtB2_12CypherParser18parse_node_pattern
FNDA:1,_RNvMNtNtCs7bzfDg8Kx2o_10nexus_core8executor6parserNtB2_12CypherParser18parse_null_literal
FNDA:1,_RNvMNtNtCs7bzfDg8Kx2o_10nexus_core8executor6parserNtB2_12CypherParser18parse_property_map
FNDA:4,_RNvMNtNtCs7bzfDg8Kx2o_10nexus_core8executor6parserNtB2_12CypherParser18parse_where_clause
FNDA:366,_RNvMNtNtCs7bzfDg8Kx2o_10nexus_core8executor6parserNtB2_12CypherParser19is_identifier_start
FNDA:27,_RNvMNtNtCs7bzfDg8Kx2o_10nexus_core8executor6parserNtB2_12CypherParser19parse_return_clause
FNDA:1,_RNvMNtNtCs7bzfDg8Kx2o_10nexus_core8executor6parserNtB2_12CypherParser20parse_map_expression
FNDA:20,_RNvMNtNtCs7bzfDg8Kx2o_10nexus_core8executor6parserNtB2_12CypherParser20parse_string_literal
FNDA:123,_RNvMNtNtCs7bzfDg8Kx2o_10nexus_core8executor6parserNtB2_12CypherParser20parse_unary_operator
FNDA:155,_RNvMNtNtCs7bzfDg8Kx2o_10nexus_core8executor6parserNtB2_12CypherParser21parse_binary_operator
FNDA:3,_RNvMNtNtCs7bzfDg8Kx2o_10nexus_core8executor6parserNtB2_12CypherParser21parse_boolean_literal
FNDA:5,_RNvMNtNtCs7bzfDg8Kx2o_10nexus_core8executor6parserNtB2_12CypherParser21parse_case_expression
FNDA:1,_RNvMNtNtCs7bzfDg8Kx2o_10nexus_core8executor6parserNtB2_12CypherParser21parse_list_expression
FNDA:28,_RNvMNtNtCs7bzfDg8Kx2o_10nexus_core8executor6parserNtB2_12CypherParser21parse_numeric_literal
FNDA:4,_RNvMNtNtCs7bzfDg8Kx2o_10nexus_core8executor6parserNtB2_12CypherParser21parse_order_by_clause
FNDA:0,_RNvMNtNtCs7bzfDg8Kx2o_10nexus_core8executor6parserNtB2_12CypherParser22parse_range_quantifier
FNDA:2,_RNvMNtNtCs7bzfDg8Kx2o_10nexus_core8executor6parserNtB2_12CypherParser23parse_additive_operator
FNDA:155,_RNvMNtNtCs7bzfDg8Kx2o_10nexus_core8executor6parserNtB2_12CypherParser23parse_simple_expression
FNDA:2,_RNvMNtNtCs7bzfDg8Kx2o_10nexus_core8executor6parserNtB2_12CypherParser24parse_primary_expression
FNDA:6,_RNvMNtNtCs7bzfDg8Kx2o_10nexus_core8executor6parserNtB2_12CypherParser25parse_comparison_operator
FNDA:10,_RNvMNtNtCs7bzfDg8Kx2o_10nexus_core8executor6parserNtB2_12CypherParser26parse_relationship_pattern
FNDA:89,_RNvMNtNtCs7bzfDg8Kx2o_10nexus_core8executor6parserNtB2_12CypherParser27parse_identifier_expression
FNDA:3,_RNvMNtNtCs7bzfDg8Kx2o_10nexus_core8executor6parserNtB2_12CypherParser28parse_relationship_direction
FNDA:4,_RNvMNtNtCs7bzfDg8Kx2o_10nexus_core8executor6parserNtB2_12CypherParser29parse_multiplicative_operator
FNDA:10,_RNvMNtNtCs7bzfDg8Kx2o_10nexus_core8executor6parserNtB2_12CypherParser29parse_relationship_quantifier
FNDA:2,_RNvMNtNtCs7bzfDg8Kx2o_10nexus_core8executor6parserNtB2_12CypherParser30parse_parenthesized_expression
FNDA:132,_RNvMNtNtCs7bzfDg8Kx2o_10nexus_core8executor6parserNtB2_12CypherParser3new
FNDA:6,_RNvMNtNtCs7bzfDg8Kx2o_10nexus_core8executor6parserNtB2_12CypherParser5error
FNDA:30,_RNvMNtNtCs7bzfDg8Kx2o_10nexus_core8executor6parserNtB2_12CypherParser5parse
FNDA:84,_RNvMNtNtCs7bzfDg8Kx2o_10nexus_core8executor6parserNtB2_12CypherParser8is_digit
FNDA:2675,_RNvMNtNtCs7bzfDg8Kx2o_10nexus_core8executor6parserNtB2_12CypherParser9peek_char
FNDA:5,_RNCNvNtNtNtCs7bzfDg8Kx2o_10nexus_core8executor6parser5testss_24test_parse_complex_query0B9_
FNDA:1,_RNvNtNtNtCs7bzfDg8Kx2o_10nexus_core8executor6parser5testss_17test_parse_number
FNDA:1,_RNvNtNtNtCs7bzfDg8Kx2o_10nexus_core8executor6parser5testss_18test_parse_keyword
FNDA:1,_RNvNtNtNtCs7bzfDg8Kx2o_10nexus_core8executor6parser5testss_19test_parse_order_by
FNDA:1,_RNvNtNtNtCs7bzfDg8Kx2o_10nexus_core8executor6parser5testss_20test_parse_parameter
FNDA:1,_RNvNtNtNtCs7bzfDg8Kx2o_10nexus_core8executor6parser5testss_20test_parse_peek_char
FNDA:1,_RNvNtNtNtCs7bzfDg8Kx2o_10nexus_core8executor6parser5testss_21test_parse_identifier
FNDA:1,_RNvNtNtNtCs7bzfDg8Kx2o_10nexus_core8executor6parser5testss_21test_parse_limit_skip
FNDA:1,_RNvNtNtNtCs7bzfDg8Kx2o_10nexus_core8executor6parser5testss_22test_parse_expect_char
FNDA:1,_RNvNtNtNtCs7bzfDg8Kx2o_10nexus_core8executor6parser5testss_22test_parse_skip_clause
FNDA:1,_RNvNtNtNtCs7bzfDg8Kx2o_10nexus_core8executor6parser5testss_23test_debug_when_keyword
FNDA:1,_RNvNtNtNtCs7bzfDg8Kx2o_10nexus_core8executor6parser5testss_23test_parse_consume_char
FNDA:1,_RNvNtNtNtCs7bzfDg8Kx2o_10nexus_core8executor6parser5testss_23test_parse_null_literal
FNDA:1,_RNvNtNtNtCs7bzfDg8Kx2o_10nexus_core8executor6parser5testss_23test_parse_peek_char_at
FNDA:1,_RNvNtNtNtCs7bzfDg8Kx2o_10nexus_core8executor6parser5testss_23test_parse_peek_keyword
FNDA:1,_RNvNtNtNtCs7bzfDg8Kx2o_10nexus_core8executor6parser5testss_23test_parse_simple_match
FNDA:1,_RNvNtNtNtCs7bzfDg8Kx2o_10nexus_core8executor6parser5testss_24test_parse_complex_query
FNDA:1,_RNvNtNtNtCs7bzfDg8Kx2o_10nexus_core8executor6parser5testss_24test_parse_function_call
FNDA:1,_RNvNtNtNtCs7bzfDg8Kx2o_10nexus_core8executor6parser5testss_25test_parse_error_handling
FNDA:1,_RNvNtNtNtCs7bzfDg8Kx2o_10nexus_core8executor6parser5testss_25test_parse_expect_keyword
FNDA:1,_RNvNtNtNtCs7bzfDg8Kx2o_10nexus_core8executor6parser5testss_25test_parse_float_literals
FNDA:1,_RNvNtNtNtCs7bzfDg8Kx2o_10nexus_core8executor6parser5testss_25test_parse_map_expression
FNDA:1,_RNvNtNtNtCs7bzfDg8Kx2o_10nexus_core8executor6parser5testss_25test_parse_string_escapes
FNDA:1,_RNvNtNtNtCs7bzfDg8Kx2o_10nexus_core8executor6parser5testss_26test_debug_case_expression
FNDA:1,_RNvNtNtNtCs7bzfDg8Kx2o_10nexus_core8executor6parser5testss_26test_parse_case_expression
FNDA:1,_RNvNtNtNtCs7bzfDg8Kx2o_10nexus_core8executor6parser5testss_26test_parse_clause_boundary
FNDA:1,_RNvNtNtNtCs7bzfDg8Kx2o_10nexus_core8executor6parser5testss_26test_parse_error_reporting
FNDA:1,_RNvNtNtNtCs7bzfDg8Kx2o_10nexus_core8executor6parser5testss_26test_parse_list_expression
FNDA:1,_RNvNtNtNtCs7bzfDg8Kx2o_10nexus_core8executor6parser5testss_26test_parse_multiple_labels
FNDA:1,_RNvNtNtNtCs7bzfDg8Kx2o_10nexus_core8executor6parser5testss_26test_parse_node_properties
FNDA:1,_RNvNtNtNtCs7bzfDg8Kx2o_10nexus_core8executor6parser5testss_26test_parse_return_distinct
FNDA:1,_RNvNtNtNtCs7bzfDg8Kx2o_10nexus_core8executor6parser5testss_26test_parse_skip_whitespace
FNDA:1,_RNvNtNtNtCs7bzfDg8Kx2o_10nexus_core8executor6parser5testss_26test_parse_string_literals
FNDA:1,_RNvNtNtNtCs7bzfDg8Kx2o_10nexus_core8executor6parser5testss_26test_parse_unary_operators
FNDA:1,_RNvNtNtNtCs7bzfDg8Kx2o_10nexus_core8executor6parser5testss_27test_parse_binary_operators
FNDA:1,_RNvNtNtNtCs7bzfDg8Kx2o_10nexus_core8executor6parser5testss_27test_parse_boolean_literals
FNDA:1,_RNvNtNtNtCs7bzfDg8Kx2o_10nexus_core8executor6parser5testss_27test_parse_match_with_where
FNDA:1,_RNvNtNtNtCs7bzfDg8Kx2o_10nexus_core8executor6parser5testss_28test_debug_binary_expression
FNDA:1,_RNvNtNtNtCs7bzfDg8Kx2o_10nexus_core8executor6parser5testss_28test_parse_multiple_order_by
FNDA:1,_RNvNtNtNtCs7bzfDg8Kx2o_10nexus_core8executor6parser5testss_28test_parse_return_with_alias
FNDA:1,_RNvNtNtNtCs7bzfDg8Kx2o_10nexus_core8executor6parser5testss_29test_parse_additive_operators
FNDA:1,_RNvNtNtNtCs7bzfDg8Kx2o_10nexus_core8executor6parser5testss_29test_parse_order_by_ascending
FNDA:1,_RNvNtNtNtCs7bzfDg8Kx2o_10nexus_core8executor6parser5testss_29test_parse_primary_expression
FNDA:1,_RNvNtNtNtCs7bzfDg8Kx2o_10nexus_core8executor6parser5testss_31test_parse_comparison_operators
FNDA:1,_RNvNtNtNtCs7bzfDg8Kx2o_10nexus_core8executor6parser5testss_31test_parse_consume_char_newline
FNDA:1,_RNvNtNtNtCs7bzfDg8Kx2o_10nexus_core8executor6parser5testss_31test_parse_relationship_pattern
FNDA:1,_RNvNtNtNtCs7bzfDg8Kx2o_10nexus_core8executor6parser5testss_32test_parse_identifier_validation
FNDA:1,_RNvNtNtNtCs7bzfDg8Kx2o_10nexus_core8executor6parser5testss_32test_parse_multiple_return_items
FNDA:1,_RNvNtNtNtCs7bzfDg8Kx2o_10nexus_core8executor6parser5testss_33test_parse_unary_operators_method
FNDA:1,_RNvNtNtNtCs7bzfDg8Kx2o_10nexus_core8executor6parser5testss_34test_parse_relationship_directions
FNDA:1,_RNvNtNtNtCs7bzfDg8Kx2o_10nexus_core8executor6parser5testss_34test_parse_relationship_properties
FNDA:1,_RNvNtNtNtCs7bzfDg8Kx2o_10nexus_core8executor6parser5testss_35test_parse_multiplicative_operators
FNDA:1,_RNvNtNtNtCs7bzfDg8Kx2o_10nexus_core8executor6parser5testss_35test_parse_parenthesized_expression
FNDA:1,_RNvNtNtNtCs7bzfDg8Kx2o_10nexus_core8executor6parser5testss_35test_parse_relationship_quantifiers
FNDA:1,_RNvNtNtNtCs7bzfDg8Kx2o_10nexus_core8executor6parser5testss_37test_parse_case_expression_with_input
FNDA:1,_RNvNtNtNtCs7bzfDg8Kx2o_10nexus_core8executor6parser5testss_38test_parse_multiple_relationship_types
FNDA:1,_RNvNtNtNtCs7bzfDg8Kx2o_10nexus_core8executor6parser5testss_38test_parse_range_quantifier_edge_cases
FNDA:1,_RNvNtNtNtCs7bzfDg8Kx2o_10nexus_core8executor6parser5testss_40test_parse_case_expression_without_input
FNDA:1,_RNvNtNtNtCs7bzfDg8Kx2o_10nexus_core8executor6parser5testss_40test_parse_relationship_direction_errors
FNDA:1,_RNvNtNtNtCs7bzfDg8Kx2o_10nexus_core8executor6parser5testss_40test_parse_string_literals_single_quotes
FNDA:1,_RNvNtNtNtCs7bzfDg8Kx2o_10nexus_core8executor6parser5testss_41test_parse_relationship_direction_parsing
FNDA:1,_RNCNvMNtNtCs7bzfDg8Kx2o_10nexus_core8executor6parserNtB4_12CypherParser12parse_number0B8_
FNDA:107,_RNCNvMNtNtCs7bzfDg8Kx2o_10nexus_core8executor6parserNtB4_12CypherParser12peek_keyword0B8_
FNDA:690,_RNCNvMNtNtCs7bzfDg8Kx2o_10nexus_core8executor6parserNtB4_12CypherParser15is_keyword_char0B8_
FNDA:516,_RNCNvMNtNtCs7bzfDg8Kx2o_10nexus_core8executor6parserNtB4_12CypherParser18is_identifier_char0B8_
FNDA:366,_RNCNvMNtNtCs7bzfDg8Kx2o_10nexus_core8executor6parserNtB4_12CypherParser19is_identifier_start0B8_
FNDA:0,_RNCNvMNtNtCs7bzfDg8Kx2o_10nexus_core8executor6parserNtB4_12CypherParser21parse_numeric_literal0B8_
FNDA:0,_RNCNvMNtNtCs7bzfDg8Kx2o_10nexus_core8executor6parserNtB4_12CypherParser21parse_numeric_literals_0B8_
FNDA:84,_RNCNvMNtNtCs7bzfDg8Kx2o_10nexus_core8executor6parserNtB4_12CypherParser8is_digit0B8_
FNF:122
FNH:119
DA:333,133
DA:334,133
DA:335,133
DA:336,133
DA:337,133
DA:338,133
DA:339,133
DA:340,133
DA:343,31
DA:344,31
DA:345,31
DA:348,31
DA:351,71
DA:353,71
DA:354,70
DA:355,68
DA:358,68
DA:361,68
DA:362,28
DA:363,40
DA:366,1
DA:370,29
DA:371,31
DA:374,70
DA:375,70
DA:377,70
DA:378,70
DA:379,29
DA:380,27
DA:382,41
DA:383,4
DA:384,4
DA:386,37
DA:387,28
DA:388,28
DA:390,9
DA:391,4
DA:392,4
DA:393,4
DA:395,5
DA:396,3
DA:397,3
DA:399,2
DA:400,2
DA:401,2
DA:403,0
DA:405,70
DA:408,29
DA:409,29
DA:410,29
DA:412,27
DA:413,27
DA:414,27
DA:415,27
DA:416,29
DA:419,29
DA:420,29
DA:423,29
DA:424,28
DA:427,37
DA:429,37
DA:430,37
DA:431,37
DA:434,37
DA:437,37
DA:438,29
DA:439,27
DA:442,10
DA:443,9
DA:446,9
DA:447,9
DA:450,27
DA:451,27
DA:452,27
DA:453,27
DA:457,27
DA:458,29
DA:461,38
DA:462,38
DA:464,38
DA:465,38
DA:467,0
DA:470,38
DA:471,21
DA:473,17
DA:476,38
DA:477,0
DA:479,38
DA:482,38
DA:484,37
DA:485,37
DA:486,37
DA:487,37
DA:488,37
DA:489,38
DA:492,10
DA:494,10
DA:495,2
DA:496,2
DA:497,2
DA:498,8
DA:499,8
DA:500,8
DA:502,0
DA:503,0
DA:504,0
DA:505,0
DA:508,10
DA:510,10
DA:511,10
DA:513,0
DA:516,10
DA:517,4
DA:519,6
DA:522,10
DA:523,0
DA:525,10
DA:528,10
DA:530,10
DA:533,10
DA:534,10
DA:535,8
DA:536,8
DA:538,2
DA:542,10
DA:543,1
DA:544,7
DA:545,1
DA:547,1
DA:548,1
DA:549,1
DA:550,1
DA:554,9
DA:555,9
DA:556,9
DA:557,9
DA:558,9
DA:559,9
DA:560,9
DA:561,10
DA:564,3
DA:565,3
DA:567,2
DA:568,2
DA:569,1
DA:570,1
DA:572,1
DA:576,1
DA:577,1
DA:578,1
DA:579,1
DA:581,0
DA:584,0
DA:586,3
DA:589,21
DA:590,21
DA:592,44
DA:593,23
DA:594,23
DA:595,23
DA:598,21
DA:599,21
DA:602,4
DA:603,4
DA:605,9
DA:606,5
DA:607,5
DA:608,5
DA:611,4
DA:612,4
DA:615,1
DA:616,1
DA:618,1
DA:620,3
DA:621,2
DA:622,2
DA:623,2
DA:624,2
DA:626,2
DA:627,1
DA:628,1
DA:629,1
DA:632,1
DA:634,1
DA:635,1
DA:638,10
DA:639,10
DA:641,0
DA:642,0
DA:645,0
DA:646,0
DA:649,0
DA:650,0
DA:652,0
DA:653,10
DA:655,10
DA:658,0
DA:659,0
DA:661,0
DA:662,0
DA:664,0
DA:667,0
DA:668,0
DA:669,0
DA:670,0
DA:672,0
DA:675,0
DA:677,0
DA:678,0
DA:679,0
DA:681,0
DA:682,0
DA:683,0
DA:686,0
DA:688,0
DA:689,0
DA:691,0
DA:694,0
DA:697,4
DA:698,4
DA:699,4
DA:700,4
DA:701,4
DA:704,28
DA:705,28
DA:707,28
DA:708,1
DA:709,1
DA:711,27
DA:714,28
DA:716,28
DA:719,33
DA:720,33
DA:722,33
DA:723,5
DA:724,5
DA:725,5
DA:726,28
DA:730,28
DA:731,28
DA:734,33
DA:735,33
DA:737,33
DA:738,6
DA:739,6
DA:741,27
DA:744,33
DA:745,33
DA:748,4
DA:749,4
DA:751,4
DA:754,5
DA:756,5
DA:757,2
DA:758,2
DA:759,3
DA:760,3
DA:761,3
DA:763,0
DA:766,5
DA:767,5
DA:768,5
DA:769,5
DA:771,5
DA:772,1
DA:773,1
DA:774,1
DA:775,4
DA:779,4
DA:780,4
DA:783,3
DA:784,3
DA:785,3
DA:786,3
DA:787,3
DA:790,2
DA:791,2
DA:792,2
DA:793,2
DA:794,2
DA:798,122
DA:799,122
DA:802,122
DA:805,122
DA:808,122
DA:809,2
DA:810,2
DA:811,2
DA:812,2
DA:813,120
DA:816,156
DA:817,34
DA:818,34
DA:819,34
DA:820,34
DA:821,34
DA:822,34
DA:823,34
DA:824,34
DA:827,122
DA:828,122
DA:831,156
DA:832,156
DA:834,156
DA:835,1
DA:836,6
DA:837,20
DA:838,129
DA:839,100
DA:841,98
DA:842,5
DA:843,93
DA:844,2
DA:845,91
DA:846,1
DA:847,90
DA:848,1
DA:850,89
DA:853,1
DA:854,1
DA:855,0
DA:857,156
DA:860,156
DA:861,156
DA:864,156
DA:865,2
DA:866,2
DA:867,154
DA:868,1
DA:869,1
DA:870,153
DA:873,153
DA:875,5
DA:876,5
DA:878,1
DA:879,1
DA:880,1
DA:881,1
DA:884,11
DA:885,11
DA:886,1
DA:887,1
DA:889,10
DA:893,7
DA:894,7
DA:895,1
DA:896,1
DA:898,6
DA:902,3
DA:903,3
DA:906,1
DA:907,1
DA:910,2
DA:911,2
DA:914,1
DA:915,1
DA:917,122
DA:919,156
DA:922,6
DA:923,6
DA:924,6
DA:927,2
DA:928,2
DA:930,2
DA:931,1
DA:932,1
DA:933,0
DA:934,0
DA:935,0
DA:937,0
DA:938,0
DA:940,0
DA:943,0
DA:944,0
DA:945,0
DA:947,2
DA:950,2
DA:951,2
DA:952,2
DA:953,2
DA:954,2
DA:955,2
DA:958,7
DA:959,7
DA:960,7
DA:961,7
DA:962,7
DA:965,20
DA:966,20
DA:967,20
DA:969,150
DA:970,150
DA:971,150
DA:972,20
DA:973,130
DA:974,2
DA:975,2
DA:976,1
DA:977,1
DA:978,0
DA:979,0
DA:980,0
DA:982,128
DA:983,128
DA:984,128
DA:987,20
DA:988,20
DA:991,29
DA:992,29
DA:995,78
DA:996,49
DA:997,49
DA:1000,29
DA:1001,1
DA:1002,16
DA:1003,15
DA:1004,15
DA:1007,1
DA:1008,1
DA:1009,1
DA:1010,1
DA:1013,28
DA:1014,28
DA:1015,28
DA:1016,28
DA:1018,29
DA:1021,89
DA:1022,89
DA:1025,89
DA:1026,1
DA:1027,1
DA:1030,2
DA:1031,1
DA:1032,1
DA:1034,1
DA:1035,0
DA:1036,0
DA:1037,1
DA:1040,1
DA:1041,1
DA:1042,1
DA:1043,1
DA:1044,1
DA:1047,88
DA:1048,33
DA:1049,33
DA:1050,33
DA:1051,33
DA:1052,33
DA:1053,33
DA:1055,55
DA:1057,89
DA:1060,3
DA:1061,3
DA:1062,2
DA:1064,1
DA:1066,3
DA:1067,3
DA:1070,1
DA:1071,1
DA:1072,1
DA:1073,1
DA:1076,1
DA:1077,1
DA:1079,1
DA:1081,5
DA:1082,4
DA:1083,4
DA:1085,4
DA:1086,3
DA:1087,3
DA:1088,3
DA:1091,1
DA:1092,1
DA:1093,1
DA:1096,1
DA:1097,1
DA:1098,1
DA:1099,1
DA:1102,5
DA:1103,5
DA:1105,5
DA:1106,1
DA:1108,4
DA:1111,5
DA:1113,12
DA:1114,7
DA:1115,7
DA:1116,7
DA:1117,7
DA:1118,7
DA:1121,5
DA:1122,5
DA:1123,5
DA:1125,0
DA:1128,5
DA:1130,5
DA:1131,5
DA:1132,5
DA:1133,5
DA:1134,5
DA:1135,5
DA:1138,6
DA:1139,6
DA:1141,1
DA:1142,1
DA:1144,1
DA:1145,1
DA:1146,1
DA:1147,1
DA:1150,2
DA:1151,2
DA:1152,1
DA:1153,1
DA:1155,1
DA:1159,2
DA:1160,2
DA:1161,1
DA:1162,1
DA:1164,1
DA:1167,0
DA:1169,6
DA:1172,2
DA:1173,2
DA:1175,1
DA:1176,1
DA:1179,1
DA:1180,1
DA:1182,0
DA:1184,2
DA:1187,4
DA:1188,4
DA:1190,1
DA:1191,1
DA:1194,1
DA:1195,1
DA:1198,1
DA:1199,1
DA:1202,1
DA:1203,1
DA:1205,0
DA:1207,4
DA:1210,124
DA:1211,124
DA:1213,2
DA:1214,2
DA:1217,2
DA:1218,2
DA:1220,120
DA:1222,124
DA:1225,128
DA:1226,128
DA:1228,128
DA:1230,709
DA:1231,581
DA:1232,581
DA:1234,128
DA:1235,128
DA:1236,128
DA:1237,128
DA:1240,216
DA:1241,216
DA:1243,216
DA:1244,1
DA:1245,215
DA:1247,215
DA:1249,560
DA:1250,345
DA:1251,345
DA:1253,215
DA:1254,216
DA:1257,2
DA:1258,2
DA:1260,5
DA:1261,3
DA:1262,3
DA:1264,2
DA:1265,2
DA:1266,2
DA:1267,2
DA:1270,700
DA:1271,700
DA:1272,700
DA:1273,700
DA:1274,700
DA:1277,78
DA:1279,78
DA:1280,48
DA:1281,43
DA:1282,14
DA:1283,9
DA:1284,5
DA:1285,78
DA:1288,367
DA:1289,367
DA:1290,367
DA:1291,367
DA:1292,367
DA:1295,519
DA:1296,519
DA:1297,519
DA:1298,519
DA:1299,519
DA:1302,86
DA:1303,86
DA:1304,86
DA:1305,86
DA:1306,86
DA:1309,2696
DA:1310,2696
DA:1311,2696
DA:1314,2046
DA:1315,2046
DA:1316,2044
DA:1317,2044
DA:1319,2044
DA:1320,9
DA:1321,9
DA:1322,2035
DA:1323,2035
DA:1324,2035
DA:1326,2044
DA:1328,2
DA:1330,2046
DA:1333,130
DA:1334,130
DA:1335,128
DA:1337,2
DA:1339,130
DA:1342,41
DA:1343,41
DA:1344,41
DA:1345,40
DA:1347,1
DA:1349,41
DA:1352,972
DA:1353,972
DA:1354,972
DA:1357,974
DA:1358,822
DA:1359,822
DA:1360,2
DA:1361,2
DA:1362,820
DA:1367,972
DA:1368,972
DA:1369,972
DA:1370,972
DA:1371,122
DA:1372,109
DA:1373,109
DA:1374,109
DA:1375,109
DA:1376,972
DA:1379,1005
DA:1380,1385
DA:1381,1257
DA:1382,1257
DA:1383,380
DA:1384,380
DA:1385,877
DA:1388,1005
DA:1391,6
DA:1392,6
DA:1393,6
DA:1394,6
DA:1395,6
DA:1396,6
DA:1404,1
DA:1405,1
DA:1406,1
DA:1408,1
DA:1410,1
DA:1411,1
DA:1412,1
DA:1413,1
DA:1414,1
DA:1415,1
DA:1416,1
DA:1418,0
DA:1421,0
DA:1424,1
DA:1425,1
DA:1426,1
DA:1427,1
DA:1429,0
DA:1431,1
DA:1434,1
DA:1435,1
DA:1436,1
DA:1437,1
DA:1439,1
DA:1441,1
DA:1442,1
DA:1443,1
DA:1445,0
DA:1448,1
DA:1449,1
DA:1451,1
DA:1452,1
DA:1453,1
DA:1455,0
DA:1458,0
DA:1460,1
DA:1463,1
DA:1464,1
DA:1465,1
DA:1466,1
DA:1468,1
DA:1469,1
DA:1470,1
DA:1472,1
DA:1473,1
DA:1474,1
DA:1475,1
DA:1476,1
DA:1478,0
DA:1481,0
DA:1483,1
DA:1486,1
DA:1487,1
DA:1488,1
DA:1489,1
DA:1491,1
DA:1492,1
DA:1493,1
DA:1495,1
DA:1497,1
DA:1499,1
DA:1500,1
DA:1501,1
DA:1502,1
DA:1504,0
DA:1508,0
DA:1510,1
DA:1513,1
DA:1514,1
DA:1515,1
DA:1516,1
DA:1518,1
DA:1520,1
DA:1521,1
DA:1522,1
DA:1523,1
DA:1525,0
DA:1527,1
DA:1530,1
DA:1531,1
DA:1532,1
DA:1534,1
DA:1536,1
DA:1537,1
DA:1538,1
DA:1539,0
DA:1541,0
DA:1544,1
DA:1545,1
DA:1546,1
DA:1547,0
DA:1549,0
DA:1551,1
DA:1554,1
DA:1555,1
DA:1556,1
DA:1557,1
DA:1559,1
DA:1560,1
DA:1561,1
DA:1562,1
DA:1563,1
DA:1565,0
DA:1567,0
DA:1569,0
DA:1571,1
DA:1574,1
DA:1575,1
DA:1576,1
DA:1578,1
DA:1579,1
DA:1580,1
DA:1581,1
DA:1582,1
DA:1583,1
DA:1584,1
DA:1586,0
DA:1588,1
DA:1589,1
DA:1590,1
DA:1592,0
DA:1595,0
DA:1597,1
DA:1600,1
DA:1601,1
DA:1602,1
DA:1603,1
DA:1605,1
DA:1607,1
DA:1608,1
DA:1611,1
DA:1612,1
DA:1614,0
DA:1616,1
DA:1619,1
DA:1620,1
DA:1621,1
DA:1624,1
DA:1625,1
DA:1628,1
DA:1629,1
DA:1632,1
DA:1633,1
DA:1636,1
DA:1639,1
DA:1641,0
DA:1645,1
DA:1646,1
DA:1649,1
DA:1652,1
DA:1653,1
DA:1654,1
DA:1657,1
DA:1659,1
DA:1660,1
DA:1662,1
DA:1663,1
DA:1664,1
DA:1665,1
DA:1666,1
DA:1667,1
DA:1668,1
DA:1670,0
DA:1672,1
DA:1673,1
DA:1674,1
DA:1676,0
DA:1679,0
DA:1683,1
DA:1684,1
DA:1685,1
DA:1687,1
DA:1689,1
DA:1690,1
DA:1693,1
DA:1694,1
DA:1696,0
DA:1700,1
DA:1701,1
DA:1703,1
DA:1704,1
DA:1706,1
DA:1707,1
DA:1710,1
DA:1711,1
DA:1713,0
DA:1715,0
DA:1717,1
DA:1720,1
DA:1721,1
DA:1722,1
DA:1724,1
DA:1725,1
DA:1726,1
DA:1727,1
DA:1728,1
DA:1731,1
DA:1732,1
DA:1733,1
DA:1734,1
DA:1735,1
DA:1736,1
DA:1737,1
DA:1738,1
DA:1740,1
DA:1741,1
DA:1743,1
DA:1746,1
DA:1747,1
DA:1748,1
DA:1749,5
DA:1750,1
DA:1751,1
DA:1752,1
DA:1753,1
DA:1754,1
DA:1755,0
DA:1756,5
DA:1757,1
DA:1759,1
DA:1761,1
DA:1763,1
DA:1766,1
DA:1768,1
DA:1769,1
DA:1770,1
DA:1771,1
DA:1772,1
DA:1773,1
DA:1775,0
DA:1777,0
DA:1781,1
DA:1782,1
DA:1783,1
DA:1784,1
DA:1785,1
DA:1786,1
DA:1788,0
DA:1790,0
DA:1794,1
DA:1795,1
DA:1796,1
DA:1797,1
DA:1798,1
DA:1799,1
DA:1801,0
DA:1803,0
DA:1805,1
DA:1808,1
DA:1810,1
DA:1811,1
DA:1812,1
DA:1813,1
DA:1814,1
DA:1815,1
DA:1817,0
DA:1819,0
DA:1821,1
DA:1824,1
DA:1826,1
DA:1827,1
DA:1829,1
DA:1830,1
DA:1831,1
DA:1832,1
DA:1834,0
DA:1836,0
DA:1838,1
DA:1841,1
DA:1843,1
DA:1844,1
DA:1846,1
DA:1847,1
DA:1848,1
DA:1849,1
DA:1850,1
DA:1852,0
DA:1854,0
DA:1856,1
DA:1859,1
DA:1860,1
DA:1861,1
DA:1862,1
DA:1864,1
DA:1865,1
DA:1866,1
DA:1867,1
DA:1869,0
DA:1871,0
DA:1873,1
DA:1876,1
DA:1877,1
DA:1878,1
DA:1879,1
DA:1881,1
DA:1882,1
DA:1883,1
DA:1884,1
DA:1886,0
DA:1888,0
DA:1890,1
DA:1893,1
DA:1894,1
DA:1895,1
DA:1897,1
DA:1898,1
DA:1899,1
DA:1901,0
DA:1903,1
DA:1906,1
DA:1907,1
DA:1908,1
DA:1909,1
DA:1911,1
DA:1912,1
DA:1913,1
DA:1915,0
DA:1917,1
DA:1920,1
DA:1921,1
DA:1922,1
DA:1923,1
DA:1925,1
DA:1926,1
DA:1927,1
DA:1929,0
DA:1931,1
DA:1934,1
DA:1935,1
DA:1936,1
DA:1938,1
DA:1940,1
DA:1941,1
DA:1942,1
DA:1943,1
DA:1944,1
DA:1946,0
DA:1948,1
DA:1951,1
DA:1952,1
DA:1953,1
DA:1955,1
DA:1956,1
DA:1957,1
DA:1958,0
DA:1960,0
DA:1962,1
DA:1965,1
DA:1966,1
DA:1967,1
DA:1969,1
DA:1970,1
DA:1971,1
DA:1973,0
DA:1975,1
DA:1978,1
DA:1979,1
DA:1980,1
DA:1982,1
DA:1983,1
DA:1984,1
DA:1986,0
DA:1988,1
DA:1991,1
DA:1992,1
DA:1993,1
DA:1995,1
DA:1996,1
DA:1997,1
DA:1999,0
DA:2001,1
DA:2004,1
DA:2005,1
DA:2006,1
DA:2008,1
DA:2009,1
DA:2010,1
DA:2012,0
DA:2014,1
DA:2017,1
DA:2019,1
DA:2020,1
DA:2022,1
DA:2023,1
DA:2024,1
DA:2026,0
DA:2030,1
DA:2031,1
DA:2033,1
DA:2034,1
DA:2035,1
DA:2037,0
DA:2039,1
DA:2042,1
DA:2043,1
DA:2044,1
DA:2046,1
DA:2047,1
DA:2048,0
DA:2050,1
DA:2053,1
DA:2054,1
DA:2055,1
DA:2057,1
DA:2058,1
DA:2059,1
DA:2061,0
DA:2063,1
DA:2066,1
DA:2067,1
DA:2068,1
DA:2070,1
DA:2071,1
DA:2072,1
DA:2073,1
DA:2074,1
DA:2076,0
DA:2078,1
DA:2081,1
DA:2082,1
DA:2083,1
DA:2085,1
DA:2086,1
DA:2087,1
DA:2088,1
DA:2090,0
DA:2092,1
DA:2095,1
DA:2097,1
DA:2098,1
DA:2099,1
DA:2100,1
DA:2101,1
DA:2103,0
DA:2107,1
DA:2108,1
DA:2109,1
DA:2110,1
DA:2111,1
DA:2113,0
DA:2117,1
DA:2118,1
DA:2119,1
DA:2120,1
DA:2121,1
DA:2123,0
DA:2127,1
DA:2128,1
DA:2129,1
DA:2130,1
DA:2131,1
DA:2133,0
DA:2137,1
DA:2138,1
DA:2139,1
DA:2140,1
DA:2141,1
DA:2143,0
DA:2147,1
DA:2148,1
DA:2149,1
DA:2150,1
DA:2151,1
DA:2153,0
DA:2157,1
DA:2158,1
DA:2159,1
DA:2160,1
DA:2161,1
DA:2163,0
DA:2167,1
DA:2168,1
DA:2169,1
DA:2170,1
DA:2171,1
DA:2173,0
DA:2177,1
DA:2178,1
DA:2179,1
DA:2180,1
DA:2181,1
DA:2183,0
DA:2187,1
DA:2188,1
DA:2189,1
DA:2190,1
DA:2191,1
DA:2193,0
DA:2197,1
DA:2198,1
DA:2199,1
DA:2200,1
DA:2201,1
DA:2203,0
DA:2207,1
DA:2208,1
DA:2209,1
DA:2210,1
DA:2211,1
DA:2213,0
DA:2215,1
DA:2218,1
DA:2220,1
DA:2221,1
DA:2222,1
DA:2223,1
DA:2224,1
DA:2226,0
DA:2230,1
DA:2231,1
DA:2232,1
DA:2233,1
DA:2234,1
DA:2236,0
DA:2238,1
DA:2241,1
DA:2242,1
DA:2243,1
DA:2245,1
DA:2246,1
DA:2247,1
DA:2249,0
DA:2251,1
DA:2254,1
DA:2255,1
DA:2256,1
DA:2258,1
DA:2260,1
DA:2261,1
DA:2262,1
DA:2264,1
DA:2265,1
DA:2266,1
DA:2268,0
DA:2270,1
DA:2273,1
DA:2274,1
DA:2275,1
DA:2276,1
DA:2278,1
DA:2280,1
DA:2282,1
DA:2283,1
DA:2284,1
DA:2286,1
DA:2287,1
DA:2288,1
DA:2290,0
DA:2292,1
DA:2295,1
DA:2297,1
DA:2298,1
DA:2299,1
DA:2300,1
DA:2303,1
DA:2305,1
DA:2306,1
DA:2307,1
DA:2309,1
DA:2310,1
DA:2311,1
DA:2313,1
DA:2314,1
DA:2315,1
DA:2316,1
DA:2319,1
DA:2321,1
DA:2322,1
DA:2323,1
DA:2325,1
DA:2326,1
DA:2327,1
DA:2329,1
DA:2330,1
DA:2331,1
DA:2333,1
DA:2334,1
DA:2335,1
DA:2337,1
DA:2338,1
DA:2339,1
DA:2341,1
DA:2342,1
DA:2343,1
DA:2344,1
DA:2347,1
DA:2349,1
DA:2350,1
DA:2351,1
DA:2353,1
DA:2354,1
DA:2355,1
DA:2356,1
DA:2359,1
DA:2361,1
DA:2362,1
DA:2363,1
DA:2365,1
DA:2366,1
DA:2367,1
DA:2369,1
DA:2370,1
DA:2371,1
DA:2373,1
DA:2374,1
DA:2375,1
DA:2376,1
DA:2379,1
DA:2381,1
DA:2382,1
DA:2383,1
DA:2385,1
DA:2386,1
DA:2387,1
DA:2388,1
DA:2391,1
DA:2393,1
DA:2394,1
DA:2395,1
DA:2396,1
DA:2397,0
DA:2400,1
DA:2401,1
DA:2402,1
DA:2403,1
DA:2404,1
DA:2406,0
DA:2408,1
DA:2411,1
DA:2413,1
DA:2414,1
DA:2415,1
DA:2416,1
DA:2417,1
DA:2419,0
DA:2421,1
DA:2424,1
DA:2426,1
DA:2427,1
DA:2429,1
DA:2430,1
DA:2432,1
DA:2433,1
DA:2436,1
DA:2437,1
DA:2439,1
DA:2440,1
DA:2443,1
DA:2444,1
DA:2446,1
DA:2447,1
DA:2450,1
DA:2451,1
DA:2453,1
DA:2454,1
DA:2456,1
DA:2457,1
DA:2458,1
DA:2461,1
DA:2463,1
DA:2464,1
DA:2466,1
DA:2467,1
DA:2469,1
DA:2470,1
DA:2472,1
DA:2473,1
DA:2475,1
DA:2476,1
DA:2478,1
DA:2479,1
DA:2481,1
DA:2482,1
DA:2483,1
DA:2486,1
DA:2488,1
DA:2489,1
DA:2491,1
DA:2492,1
DA:2494,1
DA:2495,1
DA:2497,1
DA:2498,1
DA:2499,1
DA:2502,1
DA:2504,1
DA:2505,1
DA:2506,1
DA:2507,1
DA:2508,1
DA:2509,1
DA:2512,1
DA:2513,1
DA:2515,1
DA:2516,1
DA:2517,1
DA:2518,1
DA:2520,1
DA:2521,1
DA:2522,1
DA:2523,1
DA:2525,1
DA:2526,1
DA:2527,1
DA:2528,1
DA:2530,1
DA:2531,1
DA:2534,1
DA:2535,1
DA:2537,1
DA:2538,1
DA:2539,1
DA:2541,1
DA:2542,1
DA:2543,1
DA:2545,1
DA:2546,1
DA:2547,1
DA:2548,1
DA:2551,1
DA:2552,1
DA:2554,1
DA:2555,1
DA:2556,1
DA:2557,1
DA:2558,1
DA:2561,1
DA:2562,1
DA:2564,1
DA:2565,1
DA:2566,1
DA:2569,1
DA:2570,1
DA:2572,1
DA:2573,1
DA:2574,1
DA:2575,1
DA:2578,1
DA:2579,1
DA:2581,1
DA:2583,1
DA:2584,1
DA:2585,1
DA:2588,1
DA:2589,1
DA:2591,1
DA:2592,1
DA:2593,1
DA:2594,1
DA:2595,1
DA:2598,1
DA:2599,1
DA:2600,1
DA:2601,1
DA:2603,1
DA:2604,1
DA:2605,1
DA:2608,1
DA:2609,1
DA:2610,1
DA:2611,1
DA:2613,1
DA:2614,1
DA:2615,1
DA:2617,1
DA:2618,1
DA:2619,1
DA:2622,1
DA:2623,1
DA:2624,1
DA:2625,1
DA:2627,1
DA:2628,1
DA:2629,1
DA:2630,1
BRF:0
BRH:0
LF:1452
LH:1308
end_of_record
SF:/mnt/f/Node/hivellm/nexus/nexus-core/src/executor/planner.rs
FN:115,_RNCNvMNtNtCs4yQ6d7adrZY_10nexus_core8executor7plannerNtB4_12QueryPlanner23plan_execution_strategy0B8_
FN:28,_RNvMNtNtCs4yQ6d7adrZY_10nexus_core8executor7plannerNtB2_12QueryPlanner10plan_query
FN:218,_RNvMNtNtCs4yQ6d7adrZY_10nexus_core8executor7plannerNtB2_12QueryPlanner13estimate_cost
FN:179,_RNvMNtNtCs4yQ6d7adrZY_10nexus_core8executor7plannerNtB2_12QueryPlanner20expression_to_string
FN:137,_RNvMNtNtCs4yQ6d7adrZY_10nexus_core8executor7plannerNtB2_12QueryPlanner20select_start_pattern
FN:282,_RNvMNtNtCs4yQ6d7adrZY_10nexus_core8executor7plannerNtB2_12QueryPlanner23optimize_operator_order
FN:75,_RNvMNtNtCs4yQ6d7adrZY_10nexus_core8executor7plannerNtB2_12QueryPlanner23plan_execution_strategy
FN:150,_RNvMNtNtCs4yQ6d7adrZY_10nexus_core8executor7plannerNtB2_12QueryPlanner26add_relationship_operators
FN:275,_RNvMNtNtCs4yQ6d7adrZY_10nexus_core8executor7plannerNtB2_12QueryPlanner26estimate_label_selectivity
FN:19,_RNvMNtNtCs4yQ6d7adrZY_10nexus_core8executor7plannerNtB2_12QueryPlanner3new
FN:535,_RNCNvNtNtNtCs7bzfDg8Kx2o_10nexus_core8executor7planner5testss_33test_plan_query_with_relationship0B9_
FN:28,_RNvMNtNtCs7bzfDg8Kx2o_10nexus_core8executor7plannerNtB2_12QueryPlanner10plan_query
FN:218,_RNvMNtNtCs7bzfDg8Kx2o_10nexus_core8executor7plannerNtB2_12QueryPlanner13estimate_cost
FN:179,_RNvMNtNtCs7bzfDg8Kx2o_10nexus_core8executor7plannerNtB2_12QueryPlanner20expression_to_string
FN:137,_RNvMNtNtCs7bzfDg8Kx2o_10nexus_core8executor7plannerNtB2_12QueryPlanner20select_start_pattern
FN:282,_RNvMNtNtCs7bzfDg8Kx2o_10nexus_core8executor7plannerNtB2_12QueryPlanner23optimize_operator_order
FN:75,_RNvMNtNtCs7bzfDg8Kx2o_10nexus_core8executor7plannerNtB2_12QueryPlanner23plan_execution_strategy
FN:150,_RNvMNtNtCs7bzfDg8Kx2o_10nexus_core8executor7plannerNtB2_12QueryPlanner26add_relationship_operators
FN:275,_RNvMNtNtCs7bzfDg8Kx2o_10nexus_core8executor7plannerNtB2_12QueryPlanner26estimate_label_selectivity
FN:19,_RNvMNtNtCs7bzfDg8Kx2o_10nexus_core8executor7plannerNtB2_12QueryPlanner3new
FN:351,_RNvNtNtNtCs7bzfDg8Kx2o_10nexus_core8executor7planner5testss_18test_estimate_cost
FN:302,_RNvNtNtNtCs7bzfDg8Kx2o_10nexus_core8executor7planner5testss_22test_plan_simple_query
FN:442,_RNvNtNtNtCs7bzfDg8Kx2o_10nexus_core8executor7planner5testss_26test_plan_query_with_limit
FN:724,_RNvNtNtNtCs7bzfDg8Kx2o_10nexus_core8executor7planner5testss_28test_optimize_operator_order
FN:540,_RNvNtNtNtCs7bzfDg8Kx2o_10nexus_core8executor7planner5testss_30test_plan_query_empty_patterns
FN:652,_RNvNtNtNtCs7bzfDg8Kx2o_10nexus_core8executor7planner5testss_32test_estimate_cost_all_operators
FN:486,_RNvNtNtNtCs7bzfDg8Kx2o_10nexus_core8executor7planner5testss_33test_plan_query_with_relationship
FN:748,_RNvNtNtNtCs7bzfDg8Kx2o_10nexus_core8executor7planner5testss_33test_plan_query_with_return_alias
FN:375,_RNvNtNtNtCs7bzfDg8Kx2o_10nexus_core8executor7planner5testss_33test_plan_query_with_where_clause
FN:583,_RNvNtNtNtCs7bzfDg8Kx2o_10nexus_core8executor7planner5testss_34test_expression_to_string_literals
FN:556,_RNvNtNtNtCs7bzfDg8Kx2o_10nexus_core8executor7planner5testss_34test_expression_to_string_variable
FN:640,_RNvNtNtNtCs7bzfDg8Kx2o_10nexus_core8executor7planner5testss_35test_expression_to_string_parameter
FN:568,_RNvNtNtNtCs7bzfDg8Kx2o_10nexus_core8executor7planner5testss_41test_expression_to_string_property_access
FN:616,_RNvNtNtNtCs7bzfDg8Kx2o_10nexus_core8executor7planner5testss_42test_expression_to_string_binary_operators
FN:115,_RNCNvMNtNtCs7bzfDg8Kx2o_10nexus_core8executor7plannerNtB4_12QueryPlanner23plan_execution_strategy0B8_
FNDA:0,_RNCNvMNtNtCs4yQ6d7adrZY_10nexus_core8executor7plannerNtB4_12QueryPlanner23plan_execution_strategy0B8_
FNDA:1,_RNvMNtNtCs4yQ6d7adrZY_10nexus_core8executor7plannerNtB2_12QueryPlanner10plan_query
FNDA:0,_RNvMNtNtCs4yQ6d7adrZY_10nexus_core8executor7plannerNtB2_12QueryPlanner13estimate_cost
FNDA:0,_RNvMNtNtCs4yQ6d7adrZY_10nexus_core8executor7plannerNtB2_12QueryPlanner20expression_to_string
FNDA:1,_RNvMNtNtCs4yQ6d7adrZY_10nexus_core8executor7plannerNtB2_12QueryPlanner20select_start_pattern
FNDA:0,_RNvMNtNtCs4yQ6d7adrZY_10nexus_core8executor7plannerNtB2_12QueryPlanner23optimize_operator_order
FNDA:1,_RNvMNtNtCs4yQ6d7adrZY_10nexus_core8executor7plannerNtB2_12QueryPlanner23plan_execution_strategy
FNDA:0,_RNvMNtNtCs4yQ6d7adrZY_10nexus_core8executor7plannerNtB2_12QueryPlanner26add_relationship_operators
FNDA:0,_RNvMNtNtCs4yQ6d7adrZY_10nexus_core8executor7plannerNtB2_12QueryPlanner26estimate_label_selectivity
FNDA:1,_RNvMNtNtCs4yQ6d7adrZY_10nexus_core8executor7plannerNtB2_12QueryPlanner3new
FNDA:3,_RNCNvNtNtNtCs7bzfDg8Kx2o_10nexus_core8executor7planner5testss_33test_plan_query_with_relationship0B9_
FNDA:10,_RNvMNtNtCs7bzfDg8Kx2o_10nexus_core8executor7plannerNtB2_12QueryPlanner10plan_query
FNDA:2,_RNvMNtNtCs7bzfDg8Kx2o_10nexus_core8executor7plannerNtB2_12QueryPlanner13estimate_cost
FNDA:24,_RNvMNtNtCs7bzfDg8Kx2o_10nexus_core8executor7plannerNtB2_12QueryPlanner20expression_to_string
FNDA:10,_RNvMNtNtCs7bzfDg8Kx2o_10nexus_core8executor7plannerNtB2_12QueryPlanner20select_start_pattern
FNDA:4,_RNvMNtNtCs7bzfDg8Kx2o_10nexus_core8executor7plannerNtB2_12QueryPlanner23optimize_operator_order
FNDA:10,_RNvMNtNtCs7bzfDg8Kx2o_10nexus_core8executor7plannerNtB2_12QueryPlanner23plan_execution_strategy
FNDA:8,_RNvMNtNtCs7bzfDg8Kx2o_10nexus_core8executor7plannerNtB2_12QueryPlanner26add_relationship_operators
FNDA:2,_RNvMNtNtCs7bzfDg8Kx2o_10nexus_core8executor7plannerNtB2_12QueryPlanner26estimate_label_selectivity
FNDA:18,_RNvMNtNtCs7bzfDg8Kx2o_10nexus_core8executor7plannerNtB2_12QueryPlanner3new
FNDA:1,_RNvNtNtNtCs7bzfDg8Kx2o_10nexus_core8executor7planner5testss_18test_estimate_cost
FNDA:1,_RNvNtNtNtCs7bzfDg8Kx2o_10nexus_core8executor7planner5testss_22test_plan_simple_query
FNDA:1,_RNvNtNtNtCs7bzfDg8Kx2o_10nexus_core8executor7planner5testss_26test_plan_query_with_limit
FNDA:1,_RNvNtNtNtCs7bzfDg8Kx2o_10nexus_core8executor7planner5testss_28test_optimize_operator_order
FNDA:1,_RNvNtNtNtCs7bzfDg8Kx2o_10nexus_core8executor7planner5testss_30test_plan_query_empty_patterns
FNDA:1,_RNvNtNtNtCs7bzfDg8Kx2o_10nexus_core8executor7planner5testss_32test_estimate_cost_all_operators
FNDA:1,_RNvNtNtNtCs7bzfDg8Kx2o_10nexus_core8executor7planner5testss_33test_plan_query_with_relationship
FNDA:1,_RNvNtNtNtCs7bzfDg8Kx2o_10nexus_core8executor7planner5testss_33test_plan_query_with_return_alias
FNDA:1,_RNvNtNtNtCs7bzfDg8Kx2o_10nexus_core8executor7planner5testss_33test_plan_query_with_where_clause
FNDA:1,_RNvNtNtNtCs7bzfDg8Kx2o_10nexus_core8executor7planner5testss_34test_expression_to_string_literals
FNDA:1,_RNvNtNtNtCs7bzfDg8Kx2o_10nexus_core8executor7planner5testss_34test_expression_to_string_variable
FNDA:1,_RNvNtNtNtCs7bzfDg8Kx2o_10nexus_core8executor7planner5testss_35test_expression_to_string_parameter
FNDA:1,_RNvNtNtNtCs7bzfDg8Kx2o_10nexus_core8executor7planner5testss_41test_expression_to_string_property_access
FNDA:1,_RNvNtNtNtCs7bzfDg8Kx2o_10nexus_core8executor7planner5testss_42test_expression_to_string_binary_operators
FNDA:8,_RNCNvMNtNtCs7bzfDg8Kx2o_10nexus_core8executor7plannerNtB4_12QueryPlanner23plan_execution_strategy0B8_
FNF:25
FNH:25
DA:19,19
DA:20,19
DA:21,19
DA:22,19
DA:23,19
DA:24,19
DA:25,19
DA:28,11
DA:29,11
DA:32,11
DA:33,11
DA:34,11
DA:35,11
DA:37,29
DA:38,18
DA:39,8
DA:40,8
DA:41,8
DA:42,1
DA:43,7
DA:45,0
DA:46,0
DA:47,0
DA:48,9
DA:49,9
DA:50,9
DA:51,1
DA:52,1
DA:53,1
DA:54,1
DA:56,0
DA:57,0
DA:58,0
DA:63,11
DA:64,11
DA:65,11
DA:66,11
DA:67,11
DA:68,11
DA:69,3
DA:71,8
DA:72,11
DA:75,11
DA:76,11
DA:77,11
DA:78,11
DA:79,11
DA:80,11
DA:81,11
DA:82,11
DA:84,11
DA:87,18
DA:88,10
DA:89,9
DA:90,9
DA:91,7
DA:92,7
DA:93,7
DA:94,7
DA:95,7
DA:96,2
DA:97,0
DA:98,1
DA:102,8
DA:105,9
DA:106,1
DA:107,1
DA:112,8
DA:113,8
DA:114,8
DA:115,8
DA:116,8
DA:117,1
DA:119,7
DA:120,7
DA:122,8
DA:123,8
DA:125,8
DA:126,0
DA:129,8
DA:130,1
DA:131,7
DA:133,8
DA:134,11
DA:137,11
DA:138,11
DA:139,3
DA:140,3
DA:141,3
DA:142,8
DA:146,8
DA:147,11
DA:150,8
DA:151,8
DA:152,8
DA:153,8
DA:154,8
DA:155,16
DA:156,18
DA:157,10
DA:158,1
DA:159,1
DA:160,0
DA:161,0
DA:164,1
DA:165,1
DA:166,1
DA:167,1
DA:168,1
DA:169,1
DA:170,1
DA:171,9
DA:175,8
DA:176,8
DA:179,24
DA:180,24
DA:181,11
DA:182,2
DA:183,2
DA:185,7
DA:186,1
DA:187,3
DA:188,1
DA:189,1
DA:190,1
DA:192,3
DA:193,3
DA:194,3
DA:195,3
DA:196,1
DA:197,0
DA:198,0
DA:199,0
DA:200,2
DA:201,0
DA:202,0
DA:203,0
DA:204,0
DA:205,0
DA:206,0
DA:207,0
DA:208,0
DA:210,3
DA:212,1
DA:213,0
DA:215,24
DA:218,2
DA:219,2
DA:221,16
DA:222,14
DA:223,2
DA:225,2
DA:226,2
DA:228,2
DA:229,2
DA:230,2
DA:231,2
DA:232,1
DA:233,1
DA:234,1
DA:235,1
DA:236,2
DA:237,2
DA:238,2
DA:239,2
DA:240,1
DA:241,1
DA:242,1
DA:243,1
DA:244,1
DA:245,1
DA:246,1
DA:247,1
DA:248,1
DA:249,1
DA:250,1
DA:251,1
DA:252,1
DA:253,1
DA:254,1
DA:255,1
DA:256,1
DA:257,1
DA:258,1
DA:259,1
DA:260,1
DA:261,1
DA:262,1
DA:263,1
DA:264,1
DA:265,1
DA:266,1
DA:267,1
DA:271,2
DA:272,2
DA:275,2
DA:278,2
DA:279,2
DA:282,4
DA:285,4
DA:286,4
DA:302,1
DA:303,1
DA:304,1
DA:305,1
DA:306,1
DA:308,1
DA:309,1
DA:310,1
DA:311,1
DA:312,1
DA:313,1
DA:314,1
DA:315,1
DA:316,1
DA:317,1
DA:318,1
DA:319,1
DA:320,1
DA:321,1
DA:322,1
DA:323,1
DA:324,1
DA:325,1
DA:326,1
DA:327,1
DA:328,1
DA:329,1
DA:331,1
DA:332,1
DA:334,1
DA:335,1
DA:336,1
DA:338,0
DA:341,1
DA:342,1
DA:343,1
DA:344,1
DA:346,0
DA:348,1
DA:351,1
DA:352,1
DA:353,1
DA:354,1
DA:355,1
DA:357,1
DA:358,1
DA:359,1
DA:360,1
DA:361,1
DA:362,1
DA:363,1
DA:364,1
DA:365,1
DA:366,1
DA:367,1
DA:370,1
DA:371,1
DA:372,1
DA:375,1
DA:376,1
DA:377,1
DA:378,1
DA:379,1
DA:381,1
DA:382,1
DA:383,1
DA:384,1
DA:385,1
DA:386,1
DA:387,1
DA:388,1
DA:389,1
DA:390,1
DA:391,1
DA:392,1
DA:393,1
DA:394,1
DA:395,1
DA:396,1
DA:397,1
DA:398,1
DA:399,1
DA:400,1
DA:401,1
DA:402,1
DA:403,1
DA:404,1
DA:405,1
DA:406,1
DA:407,1
DA:408,1
DA:409,1
DA:410,1
DA:411,1
DA:413,1
DA:414,1
DA:416,1
DA:417,1
DA:418,1
DA:420,0
DA:423,1
DA:424,1
DA:425,1
DA:426,1
DA:427,1
DA:429,0
DA:432,1
DA:433,1
DA:434,1
DA:435,1
DA:437,0
DA:439,1
DA:442,1
DA:443,1
DA:444,1
DA:445,1
DA:446,1
DA:448,1
DA:449,1
DA:450,1
DA:451,1
DA:452,1
DA:453,1
DA:454,1
DA:455,1
DA:456,1
DA:457,1
DA:458,1
DA:459,1
DA:460,1
DA:461,1
DA:462,1
DA:463,1
DA:464,1
DA:465,1
DA:466,1
DA:467,1
DA:468,1
DA:469,1
DA:470,1
DA:471,1
DA:472,1
DA:474,1
DA:475,1
DA:477,1
DA:478,1
DA:479,1
DA:481,0
DA:483,1
DA:486,1
DA:487,1
DA:488,1
DA:489,1
DA:490,1
DA:492,1
DA:493,1
DA:494,1
DA:495,1
DA:496,1
DA:497,1
DA:498,1
DA:499,1
DA:500,1
DA:501,1
DA:502,1
DA:503,1
DA:504,1
DA:505,1
DA:506,1
DA:507,1
DA:508,1
DA:509,1
DA:510,1
DA:511,1
DA:512,1
DA:513,1
DA:514,1
DA:515,1
DA:516,1
DA:517,1
DA:518,1
DA:519,1
DA:520,1
DA:521,1
DA:522,1
DA:523,1
DA:524,1
DA:525,1
DA:526,1
DA:527,1
DA:529,1
DA:530,1
DA:533,1
DA:534,1
DA:535,3
DA:536,1
DA:537,1
DA:540,1
DA:541,1
DA:542,1
DA:543,1
DA:544,1
DA:546,1
DA:547,1
DA:548,1
DA:549,1
DA:551,1
DA:552,1
DA:553,1
DA:556,1
DA:557,1
DA:558,1
DA:559,1
DA:560,1
DA:562,1
DA:563,1
DA:564,1
DA:565,1
DA:568,1
DA:569,1
DA:570,1
DA:571,1
DA:572,1
DA:574,1
DA:575,1
DA:576,1
DA:577,1
DA:578,1
DA:579,1
DA:580,1
DA:583,1
DA:584,1
DA:585,1
DA:586,1
DA:587,1
DA:590,1
DA:591,1
DA:592,1
DA:595,1
DA:596,1
DA:597,1
DA:600,1
DA:601,1
DA:602,1
DA:605,1
DA:606,1
DA:607,1
DA:610,1
DA:611,1
DA:612,1
DA:613,1
DA:616,1
DA:617,1
DA:618,1
DA:619,1
DA:620,1
DA:622,1
DA:623,1
DA:624,1
DA:625,1
DA:626,1
DA:627,1
DA:628,1
DA:630,1
DA:631,1
DA:632,1
DA:633,1
DA:634,1
DA:635,1
DA:636,1
DA:637,1
DA:640,1
DA:641,1
DA:642,1
DA:643,1
DA:644,1
DA:646,1
DA:647,1
DA:648,1
DA:649,1
DA:652,1
DA:653,1
DA:654,1
DA:655,1
DA:656,1
DA:658,1
DA:659,1
DA:660,1
DA:661,1
DA:662,1
DA:663,1
DA:664,1
DA:665,1
DA:666,1
DA:667,1
DA:668,1
DA:669,1
DA:670,1
DA:671,1
DA:672,1
DA:673,1
DA:674,1
DA:675,1
DA:676,1
DA:677,1
DA:678,1
DA:679,1
DA:680,1
DA:681,1
DA:682,1
DA:683,1
DA:684,1
DA:685,1
DA:686,1
DA:687,1
DA:688,1
DA:689,1
DA:690,1
DA:691,1
DA:692,1
DA:693,1
DA:694,1
DA:695,1
DA:696,1
DA:697,1
DA:698,1
DA:699,1
DA:700,1
DA:701,1
DA:702,1
DA:703,1
DA:704,1
DA:705,1
DA:706,1
DA:707,1
DA:708,1
DA:709,1
DA:710,1
DA:711,1
DA:712,1
DA:713,1
DA:714,1
DA:717,1
DA:718,1
DA:720,1
DA:721,1
DA:724,1
DA:725,1
DA:726,1
DA:727,1
DA:728,1
DA:730,1
DA:731,1
DA:732,1
DA:733,1
DA:734,1
DA:735,1
DA:736,1
DA:737,1
DA:740,1
DA:741,1
DA:744,1
DA:745,1
DA:748,1
DA:749,1
DA:750,1
DA:751,1
DA:752,1
DA:754,1
DA:755,1
DA:756,1
DA:757,1
DA:758,1
DA:759,1
DA:760,1
DA:761,1
DA:762,1
DA:763,1
DA:764,1
DA:765,1
DA:766,1
DA:767,1
DA:768,1
DA:769,1
DA:770,1
DA:771,1
DA:772,1
DA:773,1
DA:774,1
DA:775,1
DA:777,1
DA:778,1
DA:780,1
DA:781,1
DA:782,1
DA:783,1
DA:785,0
DA:787,1
BRF:0
BRH:0
LF:601
LH:572
end_of_record
SF:/mnt/f/Node/hivellm/nexus/nexus-core/src/graph.rs
FN:21,_RNvMNtCs4yQ6d7adrZY_10nexus_core5graphNtB2_6NodeId3new
FN:26,_RNvMNtCs4yQ6d7adrZY_10nexus_core5graphNtB2_6NodeId5value
FN:51,_RNvMs1_NtCs4yQ6d7adrZY_10nexus_core5graphNtB5_6EdgeId3new
FN:56,_RNvMs1_NtCs4yQ6d7adrZY_10nexus_core5graphNtB5_6EdgeId5value
FN:135,_RNvMs4_NtCs4yQ6d7adrZY_10nexus_core5graphNtB5_4Node12get_property
FN:145,_RNvMs4_NtCs4yQ6d7adrZY_10nexus_core5graphNtB5_4Node12has_property
FN:115,_RNvMs4_NtCs4yQ6d7adrZY_10nexus_core5graphNtB5_4Node12remove_label
FN:130,_RNvMs4_NtCs4yQ6d7adrZY_10nexus_core5graphNtB5_4Node12set_property
FN:150,_RNvMs4_NtCs4yQ6d7adrZY_10nexus_core5graphNtB5_4Node13property_keys
FN:140,_RNvMs4_NtCs4yQ6d7adrZY_10nexus_core5graphNtB5_4Node15remove_property
FN:95,_RNvMs4_NtCs4yQ6d7adrZY_10nexus_core5graphNtB5_4Node15with_properties
FN:86,_RNvMs4_NtCs4yQ6d7adrZY_10nexus_core5graphNtB5_4Node3new
FN:155,_RNvMs4_NtCs4yQ6d7adrZY_10nexus_core5graphNtB5_4Node8is_empty
FN:108,_RNvMs4_NtCs4yQ6d7adrZY_10nexus_core5graphNtB5_4Node9add_label
FN:125,_RNvMs4_NtCs4yQ6d7adrZY_10nexus_core5graphNtB5_4Node9has_label
FN:210,_RNvMs5_NtCs4yQ6d7adrZY_10nexus_core5graphNtB5_4Edge12get_property
FN:220,_RNvMs5_NtCs4yQ6d7adrZY_10nexus_core5graphNtB5_4Edge12has_property
FN:205,_RNvMs5_NtCs4yQ6d7adrZY_10nexus_core5graphNtB5_4Edge12set_property
FN:225,_RNvMs5_NtCs4yQ6d7adrZY_10nexus_core5graphNtB5_4Edge13property_keys
FN:215,_RNvMs5_NtCs4yQ6d7adrZY_10nexus_core5graphNtB5_4Edge15remove_property
FN:188,_RNvMs5_NtCs4yQ6d7adrZY_10nexus_core5graphNtB5_4Edge15with_properties
FN:177,_RNvMs5_NtCs4yQ6d7adrZY_10nexus_core5graphNtB5_4Edge3new
FN:230,_RNvMs5_NtCs4yQ6d7adrZY_10nexus_core5graphNtB5_4Edge8is_empty
FN:235,_RNvMs5_NtCs4yQ6d7adrZY_10nexus_core5graphNtB5_4Edge9other_end
FN:640,_RNvMs6_NtCs4yQ6d7adrZY_10nexus_core5graphNtB5_5Graph10edge_count
FN:635,_RNvMs6_NtCs4yQ6d7adrZY_10nexus_core5graphNtB5_5Graph10node_count
FN:645,_RNvMs6_NtCs4yQ6d7adrZY_10nexus_core5graphNtB5_5Graph11clear_cache
FN:406,_RNvMs6_NtCs4yQ6d7adrZY_10nexus_core5graphNtB5_5Graph11create_edge
FN:270,_RNvMs6_NtCs4yQ6d7adrZY_10nexus_core5graphNtB5_5Graph11create_node
FN:545,_RNvMs6_NtCs4yQ6d7adrZY_10nexus_core5graphNtB5_5Graph11delete_edge
FN:386,_RNvMs6_NtCs4yQ6d7adrZY_10nexus_core5graphNtB5_5Graph11delete_node
FN:506,_RNvMs6_NtCs4yQ6d7adrZY_10nexus_core5graphNtB5_5Graph11update_edge
FN:344,_RNvMs6_NtCs4yQ6d7adrZY_10nexus_core5graphNtB5_5Graph11update_node
FN:983,_RNvMs6_NtCs4yQ6d7adrZY_10nexus_core5graphNtB5_5Graph12health_check
FN:761,_RNvMs6_NtCs4yQ6d7adrZY_10nexus_core5graphNtB5_5Graph13dfs_component
FN:579,_RNvMs6_NtCs4yQ6d7adrZY_10nexus_core5graphNtB5_5Graph13get_all_edges
FN:565,_RNvMs6_NtCs4yQ6d7adrZY_10nexus_core5graphNtB5_5Graph13get_all_nodes
FN:995,_RNvMs6_NtCs4yQ6d7adrZY_10nexus_core5graphNtB5_5Graph15load_properties
FN:989,_RNvMs6_NtCs4yQ6d7adrZY_10nexus_core5graphNtB5_5Graph16validation_stats
FN:607,_RNvMs6_NtCs4yQ6d7adrZY_10nexus_core5graphNtB5_5Graph17get_edges_by_type
FN:885,_RNvMs6_NtCs4yQ6d7adrZY_10nexus_core5graphNtB5_5Graph18bfs_shortest_paths
FN:621,_RNvMs6_NtCs4yQ6d7adrZY_10nexus_core5graphNtB5_5Graph18get_edges_for_node
FN:593,_RNvMs6_NtCs4yQ6d7adrZY_10nexus_core5graphNtB5_5Graph18get_nodes_by_label
FN:974,_RNvMs6_NtCs4yQ6d7adrZY_10nexus_core5graphNtB5_5Graph20validate_with_config
FN:1013,_RNvMs6_NtCs4yQ6d7adrZY_10nexus_core5graphNtB5_5Graph22get_first_relationship
FN:728,_RNvMs6_NtCs4yQ6d7adrZY_10nexus_core5graphNtB5_5Graph23calculate_graph_density
FN:845,_RNvMs6_NtCs4yQ6d7adrZY_10nexus_core5graphNtB5_5Graph25calculate_path_statistics
FN:694,_RNvMs6_NtCs4yQ6d7adrZY_10nexus_core5graphNtB5_5Graph27calculate_degree_statistics
FN:741,_RNvMs6_NtCs4yQ6d7adrZY_10nexus_core5graphNtB5_5Graph30calculate_connected_components
FN:944,_RNvMs6_NtCs4yQ6d7adrZY_10nexus_core5graphNtB5_5Graph30calculate_edge_type_statistics
FN:917,_RNvMs6_NtCs4yQ6d7adrZY_10nexus_core5graphNtB5_5Graph30calculate_node_type_statistics
FN:1021,_RNvMs6_NtCs4yQ6d7adrZY_10nexus_core5graphNtB5_5Graph33update_node_relationship_pointers
FN:783,_RNvMs6_NtCs4yQ6d7adrZY_10nexus_core5graphNtB5_5Graph36calculate_avg_clustering_coefficient
FN:260,_RNvMs6_NtCs4yQ6d7adrZY_10nexus_core5graphNtB5_5Graph3new
FN:651,_RNvMs6_NtCs4yQ6d7adrZY_10nexus_core5graphNtB5_5Graph5stats
FN:464,_RNvMs6_NtCs4yQ6d7adrZY_10nexus_core5graphNtB5_5Graph8get_edge
FN:305,_RNvMs6_NtCs4yQ6d7adrZY_10nexus_core5graphNtB5_5Graph8get_node
FN:688,_RNvMs6_NtCs4yQ6d7adrZY_10nexus_core5graphNtB5_5Graph8validate
FN:38,_RNvXs0_NtCs4yQ6d7adrZY_10nexus_core5graphyINtNtCs9Kp62OsN3pY_4core7convert4FromNtB5_6NodeIdE4from
FN:62,_RNvXs2_NtCs4yQ6d7adrZY_10nexus_core5graphNtB5_6EdgeIdINtNtCs9Kp62OsN3pY_4core7convert4FromyE4from
FN:68,_RNvXs3_NtCs4yQ6d7adrZY_10nexus_core5graphyINtNtCs9Kp62OsN3pY_4core7convert4FromNtB5_6EdgeIdE4from
FN:1037,_RNvXs7_NtCs4yQ6d7adrZY_10nexus_core5graphNtB5_5GraphNtNtCs9Kp62OsN3pY_4core3fmt5Debug3fmt
FN:32,_RNvXs_NtCs4yQ6d7adrZY_10nexus_core5graphNtB4_6NodeIdINtNtCs9Kp62OsN3pY_4core7convert4FromyE4from
FN:116,_RNCNvMs4_NtCs4yQ6d7adrZY_10nexus_core5graphNtB7_4Node12remove_label0B9_
FN:515,_RNCNvMs6_NtCs4yQ6d7adrZY_10nexus_core5graphNtB7_5Graph11update_edge0B9_
FN:359,_RNCNvMs6_NtCs4yQ6d7adrZY_10nexus_core5graphNtB7_5Graph11update_node0B9_
FN:710,_RNCNvMs6_NtCs4yQ6d7adrZY_10nexus_core5graphNtB7_5Graph27calculate_degree_statistics0B9_
FN:957,_RNCNvMs6_NtCs4yQ6d7adrZY_10nexus_core5graphNtB7_5Graph30calculate_edge_type_statistics0B9_
FN:927,_RNCNvMs6_NtCs4yQ6d7adrZY_10nexus_core5graphNtB7_5Graph30calculate_node_type_statistics0B9_
FN:803,_RNCNvMs6_NtCs4yQ6d7adrZY_10nexus_core5graphNtB7_5Graph36calculate_avg_clustering_coefficient0B9_
FN:817,_RNCNvMs6_NtCs4yQ6d7adrZY_10nexus_core5graphNtB7_5Graph36calculate_avg_clustering_coefficients_0B9_
FN:482,_RNCNvMs6_NtCs4yQ6d7adrZY_10nexus_core5graphNtB7_5Graph8get_edge0B9_
FN:515,_RNCNvMs6_NtCs7bzfDg8Kx2o_10nexus_core5graphNtB7_5Graph11update_edge0B9_
FN:506,_RNvMs6_NtCs7bzfDg8Kx2o_10nexus_core5graphNtB5_5Graph11update_edge
FN:983,_RNvMs6_NtCs7bzfDg8Kx2o_10nexus_core5graphNtB5_5Graph12health_check
FN:989,_RNvMs6_NtCs7bzfDg8Kx2o_10nexus_core5graphNtB5_5Graph16validation_stats
FN:974,_RNvMs6_NtCs7bzfDg8Kx2o_10nexus_core5graphNtB5_5Graph20validate_with_config
FN:688,_RNvMs6_NtCs7bzfDg8Kx2o_10nexus_core5graphNtB5_5Graph8validate
FN:38,_RNvXs0_NtCs7bzfDg8Kx2o_10nexus_core5graphyINtNtCs9Kp62OsN3pY_4core7convert4FromNtB5_6NodeIdE4from
FN:62,_RNvXs2_NtCs7bzfDg8Kx2o_10nexus_core5graphNtB5_6EdgeIdINtNtCs9Kp62OsN3pY_4core7convert4FromyE4from
FN:68,_RNvXs3_NtCs7bzfDg8Kx2o_10nexus_core5graphyINtNtCs9Kp62OsN3pY_4core7convert4FromNtB5_6EdgeIdE4from
FN:1037,_RNvXs7_NtCs7bzfDg8Kx2o_10nexus_core5graphNtB5_5GraphNtNtCs9Kp62OsN3pY_4core3fmt5Debug3fmt
FN:32,_RNvXs_NtCs7bzfDg8Kx2o_10nexus_core5graphNtB4_6NodeIdINtNtCs9Kp62OsN3pY_4core7convert4FromyE4from
FN:116,_RNCNvMs4_NtCs7bzfDg8Kx2o_10nexus_core5graphNtB7_4Node12remove_label0B9_
FN:359,_RNCNvMs6_NtCs7bzfDg8Kx2o_10nexus_core5graphNtB7_5Graph11update_node0B9_
FN:710,_RNCNvMs6_NtCs7bzfDg8Kx2o_10nexus_core5graphNtB7_5Graph27calculate_degree_statistics0B9_
FN:957,_RNCNvMs6_NtCs7bzfDg8Kx2o_10nexus_core5graphNtB7_5Graph30calculate_edge_type_statistics0B9_
FN:927,_RNCNvMs6_NtCs7bzfDg8Kx2o_10nexus_core5graphNtB7_5Graph30calculate_node_type_statistics0B9_
FN:803,_RNCNvMs6_NtCs7bzfDg8Kx2o_10nexus_core5graphNtB7_5Graph36calculate_avg_clustering_coefficient0B9_
FN:817,_RNCNvMs6_NtCs7bzfDg8Kx2o_10nexus_core5graphNtB7_5Graph36calculate_avg_clustering_coefficients_0B9_
FN:482,_RNCNvMs6_NtCs7bzfDg8Kx2o_10nexus_core5graphNtB7_5Graph8get_edge0B9_
FN:21,_RNvMNtCs7bzfDg8Kx2o_10nexus_core5graphNtB2_6NodeId3new
FN:26,_RNvMNtCs7bzfDg8Kx2o_10nexus_core5graphNtB2_6NodeId5value
FN:51,_RNvMs1_NtCs7bzfDg8Kx2o_10nexus_core5graphNtB5_6EdgeId3new
FN:56,_RNvMs1_NtCs7bzfDg8Kx2o_10nexus_core5graphNtB5_6EdgeId5value
FN:135,_RNvMs4_NtCs7bzfDg8Kx2o_10nexus_core5graphNtB5_4Node12get_property
FN:145,_RNvMs4_NtCs7bzfDg8Kx2o_10nexus_core5graphNtB5_4Node12has_property
FN:115,_RNvMs4_NtCs7bzfDg8Kx2o_10nexus_core5graphNtB5_4Node12remove_label
FN:130,_RNvMs4_NtCs7bzfDg8Kx2o_10nexus_core5graphNtB5_4Node12set_property
FN:150,_RNvMs4_NtCs7bzfDg8Kx2o_10nexus_core5graphNtB5_4Node13property_keys
FN:140,_RNvMs4_NtCs7bzfDg8Kx2o_10nexus_core5graphNtB5_4Node15remove_property
FN:95,_RNvMs4_NtCs7bzfDg8Kx2o_10nexus_core5graphNtB5_4Node15with_properties
FN:86,_RNvMs4_NtCs7bzfDg8Kx2o_10nexus_core5graphNtB5_4Node3new
FN:155,_RNvMs4_NtCs7bzfDg8Kx2o_10nexus_core5graphNtB5_4Node8is_empty
FN:108,_RNvMs4_NtCs7bzfDg8Kx2o_10nexus_core5graphNtB5_4Node9add_label
FN:125,_RNvMs4_NtCs7bzfDg8Kx2o_10nexus_core5graphNtB5_4Node9has_label
FN:210,_RNvMs5_NtCs7bzfDg8Kx2o_10nexus_core5graphNtB5_4Edge12get_property
FN:220,_RNvMs5_NtCs7bzfDg8Kx2o_10nexus_core5graphNtB5_4Edge12has_property
FN:205,_RNvMs5_NtCs7bzfDg8Kx2o_10nexus_core5graphNtB5_4Edge12set_property
FN:225,_RNvMs5_NtCs7bzfDg8Kx2o_10nexus_core5graphNtB5_4Edge13property_keys
FN:215,_RNvMs5_NtCs7bzfDg8Kx2o_10nexus_core5graphNtB5_4Edge15remove_property
FN:188,_RNvMs5_NtCs7bzfDg8Kx2o_10nexus_core5graphNtB5_4Edge15with_properties
FN:177,_RNvMs5_NtCs7bzfDg8Kx2o_10nexus_core5graphNtB5_4Edge3new
FN:230,_RNvMs5_NtCs7bzfDg8Kx2o_10nexus_core5graphNtB5_4Edge8is_empty
FN:235,_RNvMs5_NtCs7bzfDg8Kx2o_10nexus_core5graphNtB5_4Edge9other_end
FN:640,_RNvMs6_NtCs7bzfDg8Kx2o_10nexus_core5graphNtB5_5Graph10edge_count
FN:635,_RNvMs6_NtCs7bzfDg8Kx2o_10nexus_core5graphNtB5_5Graph10node_count
FN:645,_RNvMs6_NtCs7bzfDg8Kx2o_10nexus_core5graphNtB5_5Graph11clear_cache
FN:406,_RNvMs6_NtCs7bzfDg8Kx2o_10nexus_core5graphNtB5_5Graph11create_edge
FN:270,_RNvMs6_NtCs7bzfDg8Kx2o_10nexus_core5graphNtB5_5Graph11create_node
FN:545,_RNvMs6_NtCs7bzfDg8Kx2o_10nexus_core5graphNtB5_5Graph11delete_edge
FN:386,_RNvMs6_NtCs7bzfDg8Kx2o_10nexus_core5graphNtB5_5Graph11delete_node
FN:344,_RNvMs6_NtCs7bzfDg8Kx2o_10nexus_core5graphNtB5_5Graph11update_node
FN:761,_RNvMs6_NtCs7bzfDg8Kx2o_10nexus_core5graphNtB5_5Graph13dfs_component
FN:579,_RNvMs6_NtCs7bzfDg8Kx2o_10nexus_core5graphNtB5_5Graph13get_all_edges
FN:565,_RNvMs6_NtCs7bzfDg8Kx2o_10nexus_core5graphNtB5_5Graph13get_all_nodes
FN:995,_RNvMs6_NtCs7bzfDg8Kx2o_10nexus_core5graphNtB5_5Graph15load_properties
FN:607,_RNvMs6_NtCs7bzfDg8Kx2o_10nexus_core5graphNtB5_5Graph17get_edges_by_type
FN:885,_RNvMs6_NtCs7bzfDg8Kx2o_10nexus_core5graphNtB5_5Graph18bfs_shortest_paths
FN:621,_RNvMs6_NtCs7bzfDg8Kx2o_10nexus_core5graphNtB5_5Graph18get_edges_for_node
FN:593,_RNvMs6_NtCs7bzfDg8Kx2o_10nexus_core5graphNtB5_5Graph18get_nodes_by_label
FN:1013,_RNvMs6_NtCs7bzfDg8Kx2o_10nexus_core5graphNtB5_5Graph22get_first_relationship
FN:728,_RNvMs6_NtCs7bzfDg8Kx2o_10nexus_core5graphNtB5_5Graph23calculate_graph_density
FN:845,_RNvMs6_NtCs7bzfDg8Kx2o_10nexus_core5graphNtB5_5Graph25calculate_path_statistics
FN:694,_RNvMs6_NtCs7bzfDg8Kx2o_10nexus_core5graphNtB5_5Graph27calculate_degree_statistics
FN:741,_RNvMs6_NtCs7bzfDg8Kx2o_10nexus_core5graphNtB5_5Graph30calculate_connected_components
FN:944,_RNvMs6_NtCs7bzfDg8Kx2o_10nexus_core5graphNtB5_5Graph30calculate_edge_type_statistics
FN:917,_RNvMs6_NtCs7bzfDg8Kx2o_10nexus_core5graphNtB5_5Graph30calculate_node_type_statistics
FN:1021,_RNvMs6_NtCs7bzfDg8Kx2o_10nexus_core5graphNtB5_5Graph33update_node_relationship_pointers
FN:783,_RNvMs6_NtCs7bzfDg8Kx2o_10nexus_core5graphNtB5_5Graph36calculate_avg_clustering_coefficient
FN:260,_RNvMs6_NtCs7bzfDg8Kx2o_10nexus_core5graphNtB5_5Graph3new
FN:651,_RNvMs6_NtCs7bzfDg8Kx2o_10nexus_core5graphNtB5_5Graph5stats
FN:464,_RNvMs6_NtCs7bzfDg8Kx2o_10nexus_core5graphNtB5_5Graph8get_edge
FN:305,_RNvMs6_NtCs7bzfDg8Kx2o_10nexus_core5graphNtB5_5Graph8get_node
FN:1118,_RNvNtNtCs7bzfDg8Kx2o_10nexus_core5graph5tests17create_test_graph
FN:1442,_RNvNtNtCs7bzfDg8Kx2o_10nexus_core5graph5testss_16test_clear_cache
FN:1293,_RNvNtNtCs7bzfDg8Kx2o_10nexus_core5graph5testss_16test_graph_stats
FN:1172,_RNvNtNtCs7bzfDg8Kx2o_10nexus_core5graph5testss_18test_edge_creation
FN:1220,_RNvNtNtCs7bzfDg8Kx2o_10nexus_core5graph5testss_18test_edge_deletion
FN:1424,_RNvNtNtCs7bzfDg8Kx2o_10nexus_core5graph5testss_18test_edge_is_empty
FN:1127,_RNvNtNtCs7bzfDg8Kx2o_10nexus_core5graph5testss_18test_node_creation
FN:1208,_RNvNtNtCs7bzfDg8Kx2o_10nexus_core5graph5testss_18test_node_deletion
FN:1411,_RNvNtNtCs7bzfDg8Kx2o_10nexus_core5graph5testss_18test_node_is_empty
FN:1332,_RNvNtNtCs7bzfDg8Kx2o_10nexus_core5graph5testss_19test_edge_other_end
FN:1191,_RNvNtNtCs7bzfDg8Kx2o_10nexus_core5graph5testss_20test_edge_properties
FN:1154,_RNvNtNtCs7bzfDg8Kx2o_10nexus_core5graph5testss_20test_node_properties
FN:1252,_RNvNtNtCs7bzfDg8Kx2o_10nexus_core5graph5testss_22test_get_edges_by_type
FN:1274,_RNvNtNtCs7bzfDg8Kx2o_10nexus_core5graph5testss_23test_get_edges_for_node
FN:1237,_RNvNtNtCs7bzfDg8Kx2o_10nexus_core5graph5testss_23test_get_nodes_by_label
FN:1308,_RNvNtNtCs7bzfDg8Kx2o_10nexus_core5graph5testss_26test_node_label_operations
FN:1379,_RNvNtNtCs7bzfDg8Kx2o_10nexus_core5graph5testss_29test_edge_property_operations
FN:1349,_RNvNtNtCs7bzfDg8Kx2o_10nexus_core5graph5testss_29test_node_property_operations
FN:1140,_RNvNtNtCs7bzfDg8Kx2o_10nexus_core5graph5testss_30test_node_with_multiple_labels
FNDA:35,_RNvMNtCs4yQ6d7adrZY_10nexus_core5graphNtB2_6NodeId3new
FNDA:0,_RNvMNtCs4yQ6d7adrZY_10nexus_core5graphNtB2_6NodeId5value
FNDA:11,_RNvMs1_NtCs4yQ6d7adrZY_10nexus_core5graphNtB5_6EdgeId3new
FNDA:0,_RNvMs1_NtCs4yQ6d7adrZY_10nexus_core5graphNtB5_6EdgeId5value
FNDA:0,_RNvMs4_NtCs4yQ6d7adrZY_10nexus_core5graphNtB5_4Node12get_property
FNDA:0,_RNvMs4_NtCs4yQ6d7adrZY_10nexus_core5graphNtB5_4Node12has_property
FNDA:0,_RNvMs4_NtCs4yQ6d7adrZY_10nexus_core5graphNtB5_4Node12remove_label
FNDA:0,_RNvMs4_NtCs4yQ6d7adrZY_10nexus_core5graphNtB5_4Node12set_property
FNDA:0,_RNvMs4_NtCs4yQ6d7adrZY_10nexus_core5graphNtB5_4Node13property_keys
FNDA:0,_RNvMs4_NtCs4yQ6d7adrZY_10nexus_core5graphNtB5_4Node15remove_property
FNDA:14,_RNvMs4_NtCs4yQ6d7adrZY_10nexus_core5graphNtB5_4Node15with_properties
FNDA:0,_RNvMs4_NtCs4yQ6d7adrZY_10nexus_core5graphNtB5_4Node3new
FNDA:0,_RNvMs4_NtCs4yQ6d7adrZY_10nexus_core5graphNtB5_4Node8is_empty
FNDA:0,_RNvMs4_NtCs4yQ6d7adrZY_10nexus_core5graphNtB5_4Node9add_label
FNDA:0,_RNvMs4_NtCs4yQ6d7adrZY_10nexus_core5graphNtB5_4Node9has_label
FNDA:0,_RNvMs5_NtCs4yQ6d7adrZY_10nexus_core5graphNtB5_4Edge12get_property
FNDA:0,_RNvMs5_NtCs4yQ6d7adrZY_10nexus_core5graphNtB5_4Edge12has_property
FNDA:0,_RNvMs5_NtCs4yQ6d7adrZY_10nexus_core5graphNtB5_4Edge12set_property
FNDA:0,_RNvMs5_NtCs4yQ6d7adrZY_10nexus_core5graphNtB5_4Edge13property_keys
FNDA:0,_RNvMs5_NtCs4yQ6d7adrZY_10nexus_core5graphNtB5_4Edge15remove_property
FNDA:10,_RNvMs5_NtCs4yQ6d7adrZY_10nexus_core5graphNtB5_4Edge15with_properties
FNDA:0,_RNvMs5_NtCs4yQ6d7adrZY_10nexus_core5graphNtB5_4Edge3new
FNDA:0,_RNvMs5_NtCs4yQ6d7adrZY_10nexus_core5graphNtB5_4Edge8is_empty
FNDA:0,_RNvMs5_NtCs4yQ6d7adrZY_10nexus_core5graphNtB5_4Edge9other_end
FNDA:0,_RNvMs6_NtCs4yQ6d7adrZY_10nexus_core5graphNtB5_5Graph10edge_count
FNDA:0,_RNvMs6_NtCs4yQ6d7adrZY_10nexus_core5graphNtB5_5Graph10node_count
FNDA:0,_RNvMs6_NtCs4yQ6d7adrZY_10nexus_core5graphNtB5_5Graph11clear_cache
FNDA:0,_RNvMs6_NtCs4yQ6d7adrZY_10nexus_core5graphNtB5_5Graph11create_edge
FNDA:0,_RNvMs6_NtCs4yQ6d7adrZY_10nexus_core5graphNtB5_5Graph11create_node
FNDA:0,_RNvMs6_NtCs4yQ6d7adrZY_10nexus_core5graphNtB5_5Graph11delete_edge
FNDA:0,_RNvMs6_NtCs4yQ6d7adrZY_10nexus_core5graphNtB5_5Graph11delete_node
FNDA:0,_RNvMs6_NtCs4yQ6d7adrZY_10nexus_core5graphNtB5_5Graph11update_edge
FNDA:0,_RNvMs6_NtCs4yQ6d7adrZY_10nexus_core5graphNtB5_5Graph11update_node
FNDA:0,_RNvMs6_NtCs4yQ6d7adrZY_10nexus_core5graphNtB5_5Graph12health_check
FNDA:0,_RNvMs6_NtCs4yQ6d7adrZY_10nexus_core5graphNtB5_5Graph13dfs_component
FNDA:0,_RNvMs6_NtCs4yQ6d7adrZY_10nexus_core5graphNtB5_5Graph13get_all_edges
FNDA:0,_RNvMs6_NtCs4yQ6d7adrZY_10nexus_core5graphNtB5_5Graph13get_all_nodes
FNDA:0,_RNvMs6_NtCs4yQ6d7adrZY_10nexus_core5graphNtB5_5Graph15load_properties
FNDA:0,_RNvMs6_NtCs4yQ6d7adrZY_10nexus_core5graphNtB5_5Graph16validation_stats
FNDA:0,_RNvMs6_NtCs4yQ6d7adrZY_10nexus_core5graphNtB5_5Graph17get_edges_by_type
FNDA:0,_RNvMs6_NtCs4yQ6d7adrZY_10nexus_core5graphNtB5_5Graph18bfs_shortest_paths
FNDA:0,_RNvMs6_NtCs4yQ6d7adrZY_10nexus_core5graphNtB5_5Graph18get_edges_for_node
FNDA:0,_RNvMs6_NtCs4yQ6d7adrZY_10nexus_core5graphNtB5_5Graph18get_nodes_by_label
FNDA:0,_RNvMs6_NtCs4yQ6d7adrZY_10nexus_core5graphNtB5_5Graph20validate_with_config
FNDA:0,_RNvMs6_NtCs4yQ6d7adrZY_10nexus_core5graphNtB5_5Graph22get_first_relationship
FNDA:0,_RNvMs6_NtCs4yQ6d7adrZY_10nexus_core5graphNtB5_5Graph23calculate_graph_density
FNDA:0,_RNvMs6_NtCs4yQ6d7adrZY_10nexus_core5graphNtB5_5Graph25calculate_path_statistics
FNDA:0,_RNvMs6_NtCs4yQ6d7adrZY_10nexus_core5graphNtB5_5Graph27calculate_degree_statistics
FNDA:0,_RNvMs6_NtCs4yQ6d7adrZY_10nexus_core5graphNtB5_5Graph30calculate_connected_components
FNDA:0,_RNvMs6_NtCs4yQ6d7adrZY_10nexus_core5graphNtB5_5Graph30calculate_edge_type_statistics
FNDA:0,_RNvMs6_NtCs4yQ6d7adrZY_10nexus_core5graphNtB5_5Graph30calculate_node_type_statistics
FNDA:0,_RNvMs6_NtCs4yQ6d7adrZY_10nexus_core5graphNtB5_5Graph33update_node_relationship_pointers
FNDA:0,_RNvMs6_NtCs4yQ6d7adrZY_10nexus_core5graphNtB5_5Graph36calculate_avg_clustering_coefficient
FNDA:0,_RNvMs6_NtCs4yQ6d7adrZY_10nexus_core5graphNtB5_5Graph3new
FNDA:0,_RNvMs6_NtCs4yQ6d7adrZY_10nexus_core5graphNtB5_5Graph5stats
FNDA:0,_RNvMs6_NtCs4yQ6d7adrZY_10nexus_core5graphNtB5_5Graph8get_edge
FNDA:0,_RNvMs6_NtCs4yQ6d7adrZY_10nexus_core5graphNtB5_5Graph8get_node
FNDA:0,_RNvMs6_NtCs4yQ6d7adrZY_10nexus_core5graphNtB5_5Graph8validate
FNDA:0,_RNvXs0_NtCs4yQ6d7adrZY_10nexus_core5graphyINtNtCs9Kp62OsN3pY_4core7convert4FromNtB5_6NodeIdE4from
FNDA:0,_RNvXs2_NtCs4yQ6d7adrZY_10nexus_core5graphNtB5_6EdgeIdINtNtCs9Kp62OsN3pY_4core7convert4FromyE4from
FNDA:0,_RNvXs3_NtCs4yQ6d7adrZY_10nexus_core5graphyINtNtCs9Kp62OsN3pY_4core7convert4FromNtB5_6EdgeIdE4from
FNDA:0,_RNvXs7_NtCs4yQ6d7adrZY_10nexus_core5graphNtB5_5GraphNtNtCs9Kp62OsN3pY_4core3fmt5Debug3fmt
FNDA:0,_RNvXs_NtCs4yQ6d7adrZY_10nexus_core5graphNtB4_6NodeIdINtNtCs9Kp62OsN3pY_4core7convert4FromyE4from
FNDA:0,_RNCNvMs4_NtCs4yQ6d7adrZY_10nexus_core5graphNtB7_4Node12remove_label0B9_
FNDA:0,_RNCNvMs6_NtCs4yQ6d7adrZY_10nexus_core5graphNtB7_5Graph11update_edge0B9_
FNDA:0,_RNCNvMs6_NtCs4yQ6d7adrZY_10nexus_core5graphNtB7_5Graph11update_node0B9_
FNDA:0,_RNCNvMs6_NtCs4yQ6d7adrZY_10nexus_core5graphNtB7_5Graph27calculate_degree_statistics0B9_
FNDA:0,_RNCNvMs6_NtCs4yQ6d7adrZY_10nexus_core5graphNtB7_5Graph30calculate_edge_type_statistics0B9_
FNDA:0,_RNCNvMs6_NtCs4yQ6d7adrZY_10nexus_core5graphNtB7_5Graph30calculate_node_type_statistics0B9_
FNDA:0,_RNCNvMs6_NtCs4yQ6d7adrZY_10nexus_core5graphNtB7_5Graph36calculate_avg_clustering_coefficient0B9_
FNDA:0,_RNCNvMs6_NtCs4yQ6d7adrZY_10nexus_core5graphNtB7_5Graph36calculate_avg_clustering_coefficients_0B9_
FNDA:0,_RNCNvMs6_NtCs4yQ6d7adrZY_10nexus_core5graphNtB7_5Graph8get_edge0B9_
FNDA:0,_RNCNvMs6_NtCs7bzfDg8Kx2o_10nexus_core5graphNtB7_5Graph11update_edge0B9_
FNDA:0,_RNvMs6_NtCs7bzfDg8Kx2o_10nexus_core5graphNtB5_5Graph11update_edge
FNDA:0,_RNvMs6_NtCs7bzfDg8Kx2o_10nexus_core5graphNtB5_5Graph12health_check
FNDA:0,_RNvMs6_NtCs7bzfDg8Kx2o_10nexus_core5graphNtB5_5Graph16validation_stats
FNDA:0,_RNvMs6_NtCs7bzfDg8Kx2o_10nexus_core5graphNtB5_5Graph20validate_with_config
FNDA:0,_RNvMs6_NtCs7bzfDg8Kx2o_10nexus_core5graphNtB5_5Graph8validate
FNDA:0,_RNvXs0_NtCs7bzfDg8Kx2o_10nexus_core5graphyINtNtCs9Kp62OsN3pY_4core7convert4FromNtB5_6NodeIdE4from
FNDA:0,_RNvXs2_NtCs7bzfDg8Kx2o_10nexus_core5graphNtB5_6EdgeIdINtNtCs9Kp62OsN3pY_4core7convert4FromyE4from
FNDA:0,_RNvXs3_NtCs7bzfDg8Kx2o_10nexus_core5graphyINtNtCs9Kp62OsN3pY_4core7convert4FromNtB5_6EdgeIdE4from
FNDA:0,_RNvXs7_NtCs7bzfDg8Kx2o_10nexus_core5graphNtB5_5GraphNtNtCs9Kp62OsN3pY_4core3fmt5Debug3fmt
FNDA:0,_RNvXs_NtCs7bzfDg8Kx2o_10nexus_core5graphNtB4_6NodeIdINtNtCs9Kp62OsN3pY_4core7convert4FromyE4from
FNDA:2,_RNCNvMs4_NtCs7bzfDg8Kx2o_10nexus_core5graphNtB7_4Node12remove_label0B9_
FNDA:0,_RNCNvMs6_NtCs7bzfDg8Kx2o_10nexus_core5graphNtB7_5Graph11update_node0B9_
FNDA:2,_RNCNvMs6_NtCs7bzfDg8Kx2o_10nexus_core5graphNtB7_5Graph27calculate_degree_statistics0B9_
FNDA:1,_RNCNvMs6_NtCs7bzfDg8Kx2o_10nexus_core5graphNtB7_5Graph30calculate_edge_type_statistics0B9_
FNDA:2,_RNCNvMs6_NtCs7bzfDg8Kx2o_10nexus_core5graphNtB7_5Graph30calculate_node_type_statistics0B9_
FNDA:0,_RNCNvMs6_NtCs7bzfDg8Kx2o_10nexus_core5graphNtB7_5Graph36calculate_avg_clustering_coefficient0B9_
FNDA:0,_RNCNvMs6_NtCs7bzfDg8Kx2o_10nexus_core5graphNtB7_5Graph36calculate_avg_clustering_coefficients_0B9_
FNDA:0,_RNCNvMs6_NtCs7bzfDg8Kx2o_10nexus_core5graphNtB7_5Graph8get_edge0B9_
FNDA:87,_RNvMNtCs7bzfDg8Kx2o_10nexus_core5graphNtB2_6NodeId3new
FNDA:97,_RNvMNtCs7bzfDg8Kx2o_10nexus_core5graphNtB2_6NodeId5value
FNDA:40,_RNvMs1_NtCs7bzfDg8Kx2o_10nexus_core5graphNtB5_6EdgeId3new
FNDA:35,_RNvMs1_NtCs7bzfDg8Kx2o_10nexus_core5graphNtB5_6EdgeId5value
FNDA:1,_RNvMs4_NtCs7bzfDg8Kx2o_10nexus_core5graphNtB5_4Node12get_property
FNDA:6,_RNvMs4_NtCs7bzfDg8Kx2o_10nexus_core5graphNtB5_4Node12has_property
FNDA:2,_RNvMs4_NtCs7bzfDg8Kx2o_10nexus_core5graphNtB5_4Node12remove_label
FNDA:9,_RNvMs4_NtCs7bzfDg8Kx2o_10nexus_core5graphNtB5_4Node12set_property
FNDA:2,_RNvMs4_NtCs7bzfDg8Kx2o_10nexus_core5graphNtB5_4Node13property_keys
FNDA:1,_RNvMs4_NtCs7bzfDg8Kx2o_10nexus_core5graphNtB5_4Node15remove_property
FNDA:1,_RNvMs4_NtCs7bzfDg8Kx2o_10nexus_core5graphNtB5_4Node15with_properties
FNDA:40,_RNvMs4_NtCs7bzfDg8Kx2o_10nexus_core5graphNtB5_4Node3new
FNDA:2,_RNvMs4_NtCs7bzfDg8Kx2o_10nexus_core5graphNtB5_4Node8is_empty
FNDA:2,_RNvMs4_NtCs7bzfDg8Kx2o_10nexus_core5graphNtB5_4Node9add_label
FNDA:12,_RNvMs4_NtCs7bzfDg8Kx2o_10nexus_core5graphNtB5_4Node9has_label
FNDA:1,_RNvMs5_NtCs7bzfDg8Kx2o_10nexus_core5graphNtB5_4Edge12get_property
FNDA:5,_RNvMs5_NtCs7bzfDg8Kx2o_10nexus_core5graphNtB5_4Edge12has_property
FNDA:4,_RNvMs5_NtCs7bzfDg8Kx2o_10nexus_core5graphNtB5_4Edge12set_property
FNDA:2,_RNvMs5_NtCs7bzfDg8Kx2o_10nexus_core5graphNtB5_4Edge13property_keys
FNDA:1,_RNvMs5_NtCs7bzfDg8Kx2o_10nexus_core5graphNtB5_4Edge15remove_property
FNDA:0,_RNvMs5_NtCs7bzfDg8Kx2o_10nexus_core5graphNtB5_4Edge15with_properties
FNDA:14,_RNvMs5_NtCs7bzfDg8Kx2o_10nexus_core5graphNtB5_4Edge3new
FNDA:2,_RNvMs5_NtCs7bzfDg8Kx2o_10nexus_core5graphNtB5_4Edge8is_empty
FNDA:3,_RNvMs5_NtCs7bzfDg8Kx2o_10nexus_core5graphNtB5_4Edge9other_end
FNDA:1,_RNvMs6_NtCs7bzfDg8Kx2o_10nexus_core5graphNtB5_5Graph10edge_count
FNDA:1,_RNvMs6_NtCs7bzfDg8Kx2o_10nexus_core5graphNtB5_5Graph10node_count
FNDA:1,_RNvMs6_NtCs7bzfDg8Kx2o_10nexus_core5graphNtB5_5Graph11clear_cache
FNDA:14,_RNvMs6_NtCs7bzfDg8Kx2o_10nexus_core5graphNtB5_5Graph11create_edge
FNDA:40,_RNvMs6_NtCs7bzfDg8Kx2o_10nexus_core5graphNtB5_5Graph11create_node
FNDA:1,_RNvMs6_NtCs7bzfDg8Kx2o_10nexus_core5graphNtB5_5Graph11delete_edge
FNDA:1,_RNvMs6_NtCs7bzfDg8Kx2o_10nexus_core5graphNtB5_5Graph11delete_node
FNDA:2,_RNvMs6_NtCs7bzfDg8Kx2o_10nexus_core5graphNtB5_5Graph11update_node
FNDA:2,_RNvMs6_NtCs7bzfDg8Kx2o_10nexus_core5graphNtB5_5Graph13dfs_component
FNDA:43,_RNvMs6_NtCs7bzfDg8Kx2o_10nexus_core5graphNtB5_5Graph13get_all_edges
FNDA:29,_RNvMs6_NtCs7bzfDg8Kx2o_10nexus_core5graphNtB5_5Graph13get_all_nodes
FNDA:1,_RNvMs6_NtCs7bzfDg8Kx2o_10nexus_core5graphNtB5_5Graph15load_properties
FNDA:2,_RNvMs6_NtCs7bzfDg8Kx2o_10nexus_core5graphNtB5_5Graph17get_edges_by_type
FNDA:2,_RNvMs6_NtCs7bzfDg8Kx2o_10nexus_core5graphNtB5_5Graph18bfs_shortest_paths
FNDA:9,_RNvMs6_NtCs7bzfDg8Kx2o_10nexus_core5graphNtB5_5Graph18get_edges_for_node
FNDA:2,_RNvMs6_NtCs7bzfDg8Kx2o_10nexus_core5graphNtB5_5Graph18get_nodes_by_label
FNDA:28,_RNvMs6_NtCs7bzfDg8Kx2o_10nexus_core5graphNtB5_5Graph22get_first_relationship
FNDA:1,_RNvMs6_NtCs7bzfDg8Kx2o_10nexus_core5graphNtB5_5Graph23calculate_graph_density
FNDA:1,_RNvMs6_NtCs7bzfDg8Kx2o_10nexus_core5graphNtB5_5Graph25calculate_path_statistics
FNDA:1,_RNvMs6_NtCs7bzfDg8Kx2o_10nexus_core5graphNtB5_5Graph27calculate_degree_statistics
FNDA:1,_RNvMs6_NtCs7bzfDg8Kx2o_10nexus_core5graphNtB5_5Graph30calculate_connected_components
FNDA:1,_RNvMs6_NtCs7bzfDg8Kx2o_10nexus_core5graphNtB5_5Graph30calculate_edge_type_statistics
FNDA:1,_RNvMs6_NtCs7bzfDg8Kx2o_10nexus_core5graphNtB5_5Graph30calculate_node_type_statistics
FNDA:14,_RNvMs6_NtCs7bzfDg8Kx2o_10nexus_core5graphNtB5_5Graph33update_node_relationship_pointers
FNDA:1,_RNvMs6_NtCs7bzfDg8Kx2o_10nexus_core5graphNtB5_5Graph36calculate_avg_clustering_coefficient
FNDA:26,_RNvMs6_NtCs7bzfDg8Kx2o_10nexus_core5graphNtB5_5Graph3new
FNDA:1,_RNvMs6_NtCs7bzfDg8Kx2o_10nexus_core5graphNtB5_5Graph5stats
FNDA:35,_RNvMs6_NtCs7bzfDg8Kx2o_10nexus_core5graphNtB5_5Graph8get_edge
FNDA:87,_RNvMs6_NtCs7bzfDg8Kx2o_10nexus_core5graphNtB5_5Graph8get_node
FNDA:18,_RNvNtNtCs7bzfDg8Kx2o_10nexus_core5graph5tests17create_test_graph
FNDA:1,_RNvNtNtCs7bzfDg8Kx2o_10nexus_core5graph5testss_16test_clear_cache
FNDA:1,_RNvNtNtCs7bzfDg8Kx2o_10nexus_core5graph5testss_16test_graph_stats
FNDA:1,_RNvNtNtCs7bzfDg8Kx2o_10nexus_core5graph5testss_18test_edge_creation
FNDA:1,_RNvNtNtCs7bzfDg8Kx2o_10nexus_core5graph5testss_18test_edge_deletion
FNDA:1,_RNvNtNtCs7bzfDg8Kx2o_10nexus_core5graph5testss_18test_edge_is_empty
FNDA:1,_RNvNtNtCs7bzfDg8Kx2o_10nexus_core5graph5testss_18test_node_creation
FNDA:1,_RNvNtNtCs7bzfDg8Kx2o_10nexus_core5graph5testss_18test_node_deletion
FNDA:1,_RNvNtNtCs7bzfDg8Kx2o_10nexus_core5graph5testss_18test_node_is_empty
FNDA:1,_RNvNtNtCs7bzfDg8Kx2o_10nexus_core5graph5testss_19test_edge_other_end
FNDA:1,_RNvNtNtCs7bzfDg8Kx2o_10nexus_core5graph5testss_20test_edge_properties
FNDA:1,_RNvNtNtCs7bzfDg8Kx2o_10nexus_core5graph5testss_20test_node_properties
FNDA:1,_RNvNtNtCs7bzfDg8Kx2o_10nexus_core5graph5testss_22test_get_edges_by_type
FNDA:1,_RNvNtNtCs7bzfDg8Kx2o_10nexus_core5graph5testss_23test_get_edges_for_node
FNDA:1,_RNvNtNtCs7bzfDg8Kx2o_10nexus_core5graph5testss_23test_get_nodes_by_label
FNDA:1,_RNvNtNtCs7bzfDg8Kx2o_10nexus_core5graph5testss_26test_node_label_operations
FNDA:1,_RNvNtNtCs7bzfDg8Kx2o_10nexus_core5graph5testss_29test_edge_property_operations
FNDA:1,_RNvNtNtCs7bzfDg8Kx2o_10nexus_core5graph5testss_29test_node_property_operations
FNDA:1,_RNvNtNtCs7bzfDg8Kx2o_10nexus_core5graph5testss_30test_node_with_multiple_labels
FNF:91
FNH:76
DA:21,122
DA:22,122
DA:23,122
DA:26,97
DA:27,97
DA:28,97
DA:32,0
DA:33,0
DA:34,0
DA:38,0
DA:39,0
DA:40,0
DA:51,51
DA:52,51
DA:53,51
DA:56,35
DA:57,35
DA:58,35
DA:62,0
DA:63,0
DA:64,0
DA:68,0
DA:69,0
DA:70,0
DA:86,40
DA:87,40
DA:88,40
DA:89,40
DA:90,40
DA:91,40
DA:92,40
DA:95,15
DA:96,15
DA:97,15
DA:98,15
DA:99,15
DA:100,15
DA:101,15
DA:102,15
DA:103,15
DA:104,15
DA:105,15
DA:108,2
DA:109,2
DA:110,2
DA:111,2
DA:112,2
DA:115,2
DA:116,2
DA:117,1
DA:118,1
DA:120,1
DA:122,2
DA:125,12
DA:126,12
DA:127,12
DA:130,9
DA:131,9
DA:132,9
DA:135,1
DA:136,1
DA:137,1
DA:140,1
DA:141,1
DA:142,1
DA:145,6
DA:146,6
DA:147,6
DA:150,2
DA:151,2
DA:152,2
DA:155,2
DA:156,2
DA:157,2
DA:177,14
DA:178,14
DA:179,14
DA:180,14
DA:181,14
DA:182,14
DA:183,14
DA:184,14
DA:185,14
DA:188,10
DA:189,10
DA:190,10
DA:191,10
DA:192,10
DA:193,10
DA:194,10
DA:195,10
DA:196,10
DA:197,10
DA:198,10
DA:199,10
DA:200,10
DA:201,10
DA:202,10
DA:205,4
DA:206,4
DA:207,4
DA:210,1
DA:211,1
DA:212,1
DA:215,1
DA:216,1
DA:217,1
DA:220,5
DA:221,5
DA:222,5
DA:225,2
DA:226,2
DA:227,2
DA:230,2
DA:231,2
DA:232,2
DA:235,3
DA:236,3
DA:237,1
DA:238,2
DA:239,1
DA:241,1
DA:243,3
DA:260,26
DA:261,26
DA:262,26
DA:263,26
DA:264,26
DA:265,26
DA:266,26
DA:267,26
DA:270,40
DA:272,40
DA:273,40
DA:276,40
DA:277,80
DA:278,40
DA:279,40
DA:280,40
DA:281,40
DA:285,40
DA:286,40
DA:287,40
DA:288,40
DA:289,40
DA:290,40
DA:293,40
DA:294,40
DA:295,40
DA:298,40
DA:299,40
DA:301,40
DA:302,40
DA:305,87
DA:307,87
DA:308,85
DA:309,2
DA:312,2
DA:314,2
DA:315,1
DA:316,1
DA:319,1
DA:320,65
DA:321,64
DA:322,0
DA:323,0
DA:324,0
DA:325,64
DA:329,1
DA:330,1
DA:332,0
DA:335,1
DA:338,1
DA:340,1
DA:341,87
DA:344,2
DA:346,2
DA:347,5
DA:348,3
DA:349,3
DA:350,3
DA:351,3
DA:355,2
DA:356,2
DA:357,2
DA:358,2
DA:359,2
DA:362,2
DA:363,2
DA:364,2
DA:365,2
DA:366,1
DA:369,1
DA:375,2
DA:376,2
DA:377,2
DA:380,2
DA:382,2
DA:383,2
DA:386,1
DA:388,1
DA:389,0
DA:390,1
DA:393,1
DA:394,1
DA:395,1
DA:396,1
DA:397,1
DA:400,1
DA:402,1
DA:403,1
DA:406,14
DA:407,14
DA:408,14
DA:409,14
DA:410,14
DA:411,14
DA:413,14
DA:414,0
DA:415,0
DA:416,0
DA:417,0
DA:418,14
DA:419,14
DA:420,0
DA:421,0
DA:422,0
DA:423,0
DA:424,14
DA:427,14
DA:428,14
DA:431,14
DA:434,14
DA:435,14
DA:438,14
DA:439,14
DA:440,14
DA:441,14
DA:442,14
DA:443,14
DA:444,14
DA:445,14
DA:446,14
DA:449,14
DA:450,14
DA:451,14
DA:454,14
DA:457,14
DA:458,14
DA:460,14
DA:461,14
DA:464,35
DA:466,35
DA:467,34
DA:468,1
DA:471,1
DA:473,1
DA:474,1
DA:475,0
DA:478,0
DA:479,0
DA:480,0
DA:481,0
DA:482,0
DA:485,0
DA:486,0
DA:488,0
DA:491,0
DA:492,0
DA:493,0
DA:494,0
DA:495,0
DA:496,0
DA:500,0
DA:502,0
DA:503,35
DA:506,0
DA:508,0
DA:511,0
DA:512,0
DA:513,0
DA:514,0
DA:515,0
DA:518,0
DA:519,0
DA:520,0
DA:521,0
DA:522,0
DA:523,0
DA:524,0
DA:525,0
DA:528,0
DA:534,0
DA:535,0
DA:536,0
DA:539,0
DA:541,0
DA:542,0
DA:545,1
DA:547,1
DA:548,0
DA:549,1
DA:552,1
DA:553,1
DA:554,1
DA:555,1
DA:556,1
DA:559,1
DA:561,1
DA:562,1
DA:565,29
DA:566,29
DA:567,29
DA:569,42
DA:570,42
DA:571,42
DA:572,42
DA:575,29
DA:576,29
DA:579,43
DA:580,43
DA:581,43
DA:583,43
DA:584,26
DA:585,26
DA:586,26
DA:589,43
DA:590,43
DA:593,2
DA:594,2
DA:595,2
DA:597,8
DA:598,6
DA:599,3
DA:600,3
DA:603,2
DA:604,2
DA:607,2
DA:608,2
DA:609,2
DA:611,6
DA:612,4
DA:613,2
DA:614,2
DA:617,2
DA:618,2
DA:621,9
DA:622,9
DA:623,9
DA:625,19
DA:626,10
DA:627,10
DA:628,10
DA:631,9
DA:632,9
DA:635,1
DA:636,1
DA:637,1
DA:640,1
DA:641,1
DA:642,1
DA:645,1
DA:646,1
DA:647,1
DA:648,1
DA:651,1
DA:652,1
DA:653,1
DA:654,1
DA:657,1
DA:658,1
DA:659,1
DA:660,1
DA:661,1
DA:662,1
DA:663,1
DA:665,1
DA:666,1
DA:667,1
DA:668,1
DA:669,1
DA:670,1
DA:671,1
DA:672,1
DA:673,1
DA:674,1
DA:675,1
DA:676,1
DA:677,1
DA:678,1
DA:679,1
DA:680,1
DA:681,1
DA:682,1
DA:683,1
DA:684,1
DA:685,1
DA:688,0
DA:689,0
DA:690,0
DA:691,0
DA:694,1
DA:695,1
DA:696,1
DA:698,1
DA:699,0
DA:700,0
DA:701,0
DA:702,0
DA:703,0
DA:704,1
DA:706,1
DA:707,3
DA:708,2
DA:709,2
DA:710,2
DA:711,2
DA:712,2
DA:715,1
DA:716,1
DA:717,1
DA:718,1
DA:720,1
DA:721,1
DA:722,1
DA:723,1
DA:724,1
DA:725,1
DA:728,1
DA:729,1
DA:730,0
DA:731,1
DA:736,1
DA:737,1
DA:738,1
DA:741,1
DA:742,1
DA:743,1
DA:744,0
DA:745,1
DA:747,1
DA:748,1
DA:750,3
DA:751,2
DA:752,1
DA:753,1
DA:754,1
DA:757,1
DA:758,1
DA:761,2
DA:762,2
DA:763,2
DA:764,2
DA:765,2
DA:766,2
DA:767,2
DA:769,4
DA:770,2
DA:771,1
DA:773,1
DA:775,2
DA:776,1
DA:777,1
DA:779,2
DA:780,2
DA:783,1
DA:784,1
DA:785,1
DA:786,0
DA:787,1
DA:789,1
DA:790,1
DA:792,3
DA:793,2
DA:794,2
DA:796,2
DA:797,2
DA:798,0
DA:801,0
DA:802,0
DA:803,0
DA:804,0
DA:805,0
DA:807,0
DA:809,0
DA:810,0
DA:813,0
DA:814,0
DA:815,0
DA:816,0
DA:817,0
DA:818,0
DA:819,0
DA:820,0
DA:821,0
DA:822,0
DA:826,0
DA:827,0
DA:828,0
DA:830,0
DA:833,0
DA:834,0
DA:837,1
DA:838,0
DA:840,1
DA:842,1
DA:845,1
DA:846,1
DA:847,1
DA:848,0
DA:849,0
DA:850,0
DA:851,0
DA:852,1
DA:854,1
DA:855,1
DA:856,1
DA:859,3
DA:860,2
DA:862,6
DA:863,4
DA:864,2
DA:865,2
DA:866,2
DA:867,2
DA:868,2
DA:872,1
DA:873,1
DA:875,0
DA:878,1
DA:879,1
DA:880,1
DA:881,1
DA:882,1
DA:885,2
DA:886,2
DA:887,2
DA:888,2
DA:889,2
DA:890,2
DA:892,2
DA:893,2
DA:895,6
DA:896,4
DA:897,4
DA:899,8
DA:900,4
DA:901,2
DA:903,2
DA:906,4
DA:907,2
DA:908,2
DA:909,2
DA:913,2
DA:914,2
DA:917,1
DA:918,1
DA:919,1
DA:921,1
DA:922,1
DA:924,3
DA:925,2
DA:926,2
DA:927,2
DA:928,2
DA:930,2
DA:931,0
DA:932,2
DA:933,2
DA:934,2
DA:937,1
DA:938,1
DA:939,1
DA:940,1
DA:941,1
DA:944,1
DA:945,1
DA:947,1
DA:948,1
DA:950,2
DA:951,1
DA:952,0
DA:953,0
DA:955,1
DA:956,1
DA:957,1
DA:958,1
DA:959,0
DA:960,1
DA:965,1
DA:967,1
DA:968,1
DA:969,1
DA:970,1
DA:971,1
DA:974,0
DA:975,0
DA:976,0
DA:977,0
DA:978,0
DA:979,0
DA:980,0
DA:983,0
DA:984,0
DA:985,0
DA:986,0
DA:989,0
DA:990,0
DA:991,0
DA:992,0
DA:995,1
DA:996,1
DA:1009,1
DA:1010,1
DA:1013,28
DA:1017,28
DA:1018,28
DA:1021,14
DA:1022,14
DA:1023,14
DA:1024,14
DA:1025,14
DA:1026,14
DA:1032,14
DA:1033,14
DA:1037,0
DA:1038,0
DA:1039,0
DA:1040,0
DA:1041,0
DA:1042,0
DA:1118,18
DA:1119,18
DA:1120,18
DA:1121,18
DA:1122,18
DA:1123,18
DA:1124,18
DA:1127,1
DA:1128,1
DA:1130,1
DA:1131,1
DA:1133,1
DA:1134,1
DA:1135,1
DA:1136,1
DA:1137,1
DA:1140,1
DA:1141,1
DA:1143,1
DA:1144,1
DA:1145,1
DA:1147,1
DA:1148,1
DA:1149,1
DA:1150,1
DA:1151,1
DA:1154,1
DA:1155,1
DA:1157,1
DA:1158,1
DA:1160,1
DA:1161,1
DA:1162,1
DA:1164,1
DA:1166,1
DA:1167,1
DA:1168,1
DA:1169,1
DA:1172,1
DA:1173,1
DA:1175,1
DA:1176,1
DA:1178,1
DA:1179,1
DA:1180,1
DA:1181,1
DA:1183,1
DA:1184,1
DA:1185,1
DA:1186,1
DA:1187,1
DA:1188,1
DA:1191,1
DA:1192,1
DA:1194,1
DA:1195,1
DA:1196,1
DA:1197,1
DA:1198,1
DA:1200,1
DA:1201,1
DA:1203,1
DA:1204,1
DA:1205,1
DA:1208,1
DA:1209,1
DA:1211,1
DA:1212,1
DA:1214,1
DA:1215,1
DA:1216,1
DA:1217,1
DA:1220,1
DA:1221,1
DA:1223,1
DA:1224,1
DA:1225,1
DA:1226,1
DA:1227,1
DA:1229,1
DA:1231,1
DA:1232,1
DA:1233,1
DA:1234,1
DA:1237,1
DA:1238,1
DA:1240,1
DA:1241,1
DA:1242,1
DA:1244,1
DA:1245,1
DA:1247,1
DA:1248,1
DA:1249,1
DA:1252,1
DA:1253,1
DA:1255,1
DA:1256,1
DA:1257,1
DA:1259,1
DA:1260,1
DA:1261,1
DA:1262,1
DA:1263,1
DA:1264,1
DA:1266,1
DA:1267,1
DA:1269,1
DA:1270,1
DA:1271,1
DA:1274,1
DA:1275,1
DA:1277,1
DA:1278,1
DA:1279,1
DA:1281,1
DA:1282,1
DA:1283,1
DA:1284,1
DA:1285,1
DA:1286,1
DA:1288,1
DA:1289,1
DA:1290,1
DA:1293,1
DA:1294,1
DA:1296,1
DA:1297,1
DA:1298,1
DA:1299,1
DA:1300,1
DA:1302,1
DA:1303,1
DA:1304,1
DA:1305,1
DA:1308,1
DA:1309,1
DA:1311,1
DA:1312,1
DA:1315,1
DA:1316,1
DA:1317,1
DA:1320,1
DA:1321,1
DA:1322,1
DA:1323,1
DA:1324,1
DA:1327,1
DA:1328,1
DA:1329,1
DA:1332,1
DA:1333,1
DA:1335,1
DA:1336,1
DA:1337,1
DA:1338,1
DA:1339,1
DA:1341,1
DA:1343,1
DA:1344,1
DA:1345,1
DA:1346,1
DA:1349,1
DA:1350,1
DA:1352,1
DA:1353,1
DA:1356,1
DA:1357,1
DA:1358,1
DA:1360,1
DA:1363,1
DA:1364,1
DA:1365,1
DA:1368,1
DA:1369,1
DA:1372,1
DA:1373,1
DA:1374,1
DA:1375,1
DA:1376,1
DA:1379,1
DA:1380,1
DA:1382,1
DA:1383,1
DA:1384,1
DA:1385,1
DA:1386,1
DA:1388,1
DA:1391,1
DA:1392,1
DA:1395,1
DA:1396,1
DA:1397,1
DA:1400,1
DA:1401,1
DA:1404,1
DA:1405,1
DA:1406,1
DA:1407,1
DA:1408,1
DA:1411,1
DA:1412,1
DA:1414,1
DA:1415,1
DA:1416,1
DA:1418,1
DA:1419,1
DA:1420,1
DA:1421,1
DA:1424,1
DA:1425,1
DA:1427,1
DA:1428,1
DA:1429,1
DA:1430,1
DA:1431,1
DA:1433,1
DA:1434,1
DA:1436,1
DA:1437,1
DA:1438,1
DA:1439,1
DA:1442,1
DA:1443,1
DA:1445,1
DA:1446,1
DA:1447,1
DA:1448,1
DA:1451,1
DA:1452,1
DA:1455,1
DA:1458,1
DA:1459,1
DA:1460,1
BRF:0
BRH:0
LF:875
LH:736
end_of_record
SF:/mnt/f/Node/hivellm/nexus/nexus-core/src/graph_comparison.rs
FN:457,_RNvMs_NtCs4yQ6d7adrZY_10nexus_core16graph_comparisonNtB4_15GraphComparator12values_equal
FN:273,_RNvMs_NtCs4yQ6d7adrZY_10nexus_core16graph_comparisonNtB4_15GraphComparator13compare_edges
FN:230,_RNvMs_NtCs4yQ6d7adrZY_10nexus_core16graph_comparisonNtB4_15GraphComparator13compare_nodes
FN:216,_RNvMs_NtCs4yQ6d7adrZY_10nexus_core16graph_comparisonNtB4_15GraphComparator13get_all_edges
FN:202,_RNvMs_NtCs4yQ6d7adrZY_10nexus_core16graph_comparisonNtB4_15GraphComparator13get_all_nodes
FN:158,_RNvMs_NtCs4yQ6d7adrZY_10nexus_core16graph_comparisonNtB4_15GraphComparator14compare_graphs
FN:476,_RNvMs_NtCs4yQ6d7adrZY_10nexus_core16graph_comparisonNtB4_15GraphComparator20calculate_similarity
FN:390,_RNvMs_NtCs4yQ6d7adrZY_10nexus_core16graph_comparisonNtB4_15GraphComparator20compare_edge_changes
FN:316,_RNvMs_NtCs4yQ6d7adrZY_10nexus_core16graph_comparisonNtB4_15GraphComparator20compare_node_changes
FN:142,_RNvXNtCs4yQ6d7adrZY_10nexus_core16graph_comparisonNtB2_17ComparisonOptionsNtNtCs9Kp62OsN3pY_4core7default7Default7default
FN:219,_RNCNvMs_NtCs4yQ6d7adrZY_10nexus_core16graph_comparisonNtB6_15GraphComparator13get_all_edges0B8_
FN:205,_RNCNvMs_NtCs4yQ6d7adrZY_10nexus_core16graph_comparisonNtB6_15GraphComparator13get_all_nodes0B8_
FN:219,_RNCNvMs_NtCs7bzfDg8Kx2o_10nexus_core16graph_comparisonNtB6_15GraphComparator13get_all_edges0B8_
FN:205,_RNCNvMs_NtCs7bzfDg8Kx2o_10nexus_core16graph_comparisonNtB6_15GraphComparator13get_all_nodes0B8_
FN:273,_RNvMs_NtCs7bzfDg8Kx2o_10nexus_core16graph_comparisonNtB4_15GraphComparator13compare_edges
FN:230,_RNvMs_NtCs7bzfDg8Kx2o_10nexus_core16graph_comparisonNtB4_15GraphComparator13compare_nodes
FN:216,_RNvMs_NtCs7bzfDg8Kx2o_10nexus_core16graph_comparisonNtB4_15GraphComparator13get_all_edges
FN:202,_RNvMs_NtCs7bzfDg8Kx2o_10nexus_core16graph_comparisonNtB4_15GraphComparator13get_all_nodes
FN:158,_RNvMs_NtCs7bzfDg8Kx2o_10nexus_core16graph_comparisonNtB4_15GraphComparator14compare_graphs
FN:476,_RNvMs_NtCs7bzfDg8Kx2o_10nexus_core16graph_comparisonNtB4_15GraphComparator20calculate_similarity
FN:390,_RNvMs_NtCs7bzfDg8Kx2o_10nexus_core16graph_comparisonNtB4_15GraphComparator20compare_edge_changes
FN:316,_RNvMs_NtCs7bzfDg8Kx2o_10nexus_core16graph_comparisonNtB4_15GraphComparator20compare_node_changes
FN:573,_RNvNtNtCs7bzfDg8Kx2o_10nexus_core16graph_comparison5testss_19test_bytes_equality
FN:585,_RNvNtNtCs7bzfDg8Kx2o_10nexus_core16graph_comparison5testss_21test_bytes_inequality
FN:525,_RNvNtNtCs7bzfDg8Kx2o_10nexus_core16graph_comparison5testss_28test_property_value_equality
FN:457,_RNvMs_NtCs7bzfDg8Kx2o_10nexus_core16graph_comparisonNtB4_15GraphComparator12values_equal
FN:142,_RNvXNtCs7bzfDg8Kx2o_10nexus_core16graph_comparisonNtB2_17ComparisonOptionsNtNtCs9Kp62OsN3pY_4core7default7Default7default
FNDA:19,_RNvMs_NtCs4yQ6d7adrZY_10nexus_core16graph_comparisonNtB4_15GraphComparator12values_equal
FNDA:0,_RNvMs_NtCs4yQ6d7adrZY_10nexus_core16graph_comparisonNtB4_15GraphComparator13compare_edges
FNDA:0,_RNvMs_NtCs4yQ6d7adrZY_10nexus_core16graph_comparisonNtB4_15GraphComparator13compare_nodes
FNDA:0,_RNvMs_NtCs4yQ6d7adrZY_10nexus_core16graph_comparisonNtB4_15GraphComparator13get_all_edges
FNDA:0,_RNvMs_NtCs4yQ6d7adrZY_10nexus_core16graph_comparisonNtB4_15GraphComparator13get_all_nodes
FNDA:0,_RNvMs_NtCs4yQ6d7adrZY_10nexus_core16graph_comparisonNtB4_15GraphComparator14compare_graphs
FNDA:0,_RNvMs_NtCs4yQ6d7adrZY_10nexus_core16graph_comparisonNtB4_15GraphComparator20calculate_similarity
FNDA:3,_RNvMs_NtCs4yQ6d7adrZY_10nexus_core16graph_comparisonNtB4_15GraphComparator20compare_edge_changes
FNDA:5,_RNvMs_NtCs4yQ6d7adrZY_10nexus_core16graph_comparisonNtB4_15GraphComparator20compare_node_changes
FNDA:14,_RNvXNtCs4yQ6d7adrZY_10nexus_core16graph_comparisonNtB2_17ComparisonOptionsNtNtCs9Kp62OsN3pY_4core7default7Default7default
FNDA:0,_RNCNvMs_NtCs4yQ6d7adrZY_10nexus_core16graph_comparisonNtB6_15GraphComparator13get_all_edges0B8_
FNDA:0,_RNCNvMs_NtCs4yQ6d7adrZY_10nexus_core16graph_comparisonNtB6_15GraphComparator13get_all_nodes0B8_
FNDA:0,_RNCNvMs_NtCs7bzfDg8Kx2o_10nexus_core16graph_comparisonNtB6_15GraphComparator13get_all_edges0B8_
FNDA:0,_RNCNvMs_NtCs7bzfDg8Kx2o_10nexus_core16graph_comparisonNtB6_15GraphComparator13get_all_nodes0B8_
FNDA:0,_RNvMs_NtCs7bzfDg8Kx2o_10nexus_core16graph_comparisonNtB4_15GraphComparator13compare_edges
FNDA:0,_RNvMs_NtCs7bzfDg8Kx2o_10nexus_core16graph_comparisonNtB4_15GraphComparator13compare_nodes
FNDA:0,_RNvMs_NtCs7bzfDg8Kx2o_10nexus_core16graph_comparisonNtB4_15GraphComparator13get_all_edges
FNDA:0,_RNvMs_NtCs7bzfDg8Kx2o_10nexus_core16graph_comparisonNtB4_15GraphComparator13get_all_nodes
FNDA:0,_RNvMs_NtCs7bzfDg8Kx2o_10nexus_core16graph_comparisonNtB4_15GraphComparator14compare_graphs
FNDA:0,_RNvMs_NtCs7bzfDg8Kx2o_10nexus_core16graph_comparisonNtB4_15GraphComparator20calculate_similarity
FNDA:0,_RNvMs_NtCs7bzfDg8Kx2o_10nexus_core16graph_comparisonNtB4_15GraphComparator20compare_edge_changes
FNDA:0,_RNvMs_NtCs7bzfDg8Kx2o_10nexus_core16graph_comparisonNtB4_15GraphComparator20compare_node_changes
FNDA:1,_RNvNtNtCs7bzfDg8Kx2o_10nexus_core16graph_comparison5testss_19test_bytes_equality
FNDA:1,_RNvNtNtCs7bzfDg8Kx2o_10nexus_core16graph_comparison5testss_21test_bytes_inequality
FNDA:1,_RNvNtNtCs7bzfDg8Kx2o_10nexus_core16graph_comparison5testss_28test_property_value_equality
FNDA:10,_RNvMs_NtCs7bzfDg8Kx2o_10nexus_core16graph_comparisonNtB4_15GraphComparator12values_equal
FNDA:3,_RNvXNtCs7bzfDg8Kx2o_10nexus_core16graph_comparisonNtB2_17ComparisonOptionsNtNtCs9Kp62OsN3pY_4core7default7Default7default
FNF:15
FNH:7
DA:142,17
DA:143,17
DA:144,17
DA:145,17
DA:146,17
DA:147,17
DA:148,17
DA:149,17
DA:150,17
DA:158,0
DA:159,0
DA:160,0
DA:161,0
DA:162,0
DA:164,0
DA:165,0
DA:166,0
DA:167,0
DA:170,0
DA:171,0
DA:173,0
DA:174,0
DA:177,0
DA:178,0
DA:179,0
DA:180,0
DA:181,0
DA:182,0
DA:183,0
DA:184,0
DA:185,0
DA:186,0
DA:187,0
DA:188,0
DA:190,0
DA:191,0
DA:192,0
DA:193,0
DA:194,0
DA:195,0
DA:196,0
DA:197,0
DA:198,0
DA:199,0
DA:202,0
DA:203,0
DA:204,0
DA:205,0
DA:207,0
DA:208,0
DA:209,0
DA:210,0
DA:212,0
DA:213,0
DA:216,0
DA:217,0
DA:218,0
DA:219,0
DA:221,0
DA:222,0
DA:223,0
DA:224,0
DA:226,0
DA:227,0
DA:230,0
DA:231,0
DA:232,0
DA:233,0
DA:234,0
DA:235,0
DA:236,0
DA:237,0
DA:240,0
DA:241,0
DA:242,0
DA:244,0
DA:245,0
DA:246,0
DA:247,0
DA:248,0
DA:249,0
DA:250,0
DA:251,0
DA:252,0
DA:253,0
DA:255,0
DA:256,0
DA:257,0
DA:258,0
DA:263,0
DA:264,0
DA:265,0
DA:266,0
DA:269,0
DA:270,0
DA:273,0
DA:274,0
DA:275,0
DA:276,0
DA:277,0
DA:278,0
DA:279,0
DA:280,0
DA:283,0
DA:284,0
DA:285,0
DA:287,0
DA:288,0
DA:289,0
DA:290,0
DA:291,0
DA:292,0
DA:293,0
DA:294,0
DA:295,0
DA:296,0
DA:298,0
DA:299,0
DA:300,0
DA:301,0
DA:306,0
DA:307,0
DA:308,0
DA:309,0
DA:312,0
DA:313,0
DA:316,5
DA:317,5
DA:318,5
DA:319,5
DA:320,5
DA:321,5
DA:322,5
DA:323,5
DA:324,5
DA:325,5
DA:326,5
DA:327,5
DA:329,5
DA:332,5
DA:333,5
DA:334,5
DA:336,12
DA:337,7
DA:338,2
DA:339,2
DA:340,5
DA:343,10
DA:344,5
DA:345,0
DA:346,0
DA:347,5
DA:349,0
DA:352,5
DA:353,9
DA:354,6
DA:355,4
DA:356,4
DA:357,1
DA:358,1
DA:359,1
DA:360,1
DA:361,1
DA:362,1
DA:363,1
DA:364,1
DA:365,3
DA:367,2
DA:368,2
DA:369,2
DA:370,2
DA:371,2
DA:372,2
DA:376,7
DA:377,4
DA:378,0
DA:379,0
DA:380,0
DA:381,0
DA:382,4
DA:384,2
DA:386,5
DA:387,5
DA:390,3
DA:391,3
DA:392,3
DA:393,3
DA:394,3
DA:395,3
DA:396,3
DA:397,3
DA:398,3
DA:399,3
DA:400,3
DA:401,3
DA:403,3
DA:406,3
DA:407,3
DA:408,1
DA:409,1
DA:410,2
DA:412,3
DA:413,1
DA:414,1
DA:415,2
DA:416,0
DA:419,3
DA:420,5
DA:421,2
DA:422,1
DA:423,1
DA:424,1
DA:425,1
DA:426,1
DA:427,1
DA:428,1
DA:429,1
DA:430,1
DA:431,1
DA:432,1
DA:434,1
DA:435,1
DA:436,1
DA:437,1
DA:438,1
DA:439,1
DA:443,4
DA:444,1
DA:445,0
DA:446,0
DA:447,0
DA:448,0
DA:449,1
DA:451,0
DA:453,3
DA:454,3
DA:457,29
DA:458,29
DA:459,29
DA:460,29
DA:461,29
DA:462,29
DA:463,2
DA:464,4
DA:465,5
DA:466,3
DA:467,3
DA:469,9
DA:470,6
DA:471,0
DA:473,29
DA:476,0
DA:477,0
DA:478,0
DA:479,0
DA:480,0
DA:481,0
DA:483,0
DA:484,0
DA:485,0
DA:486,0
DA:487,0
DA:488,0
DA:489,0
DA:490,0
DA:492,0
DA:493,0
DA:494,0
DA:496,0
DA:497,0
DA:498,0
DA:499,0
DA:500,0
DA:502,0
DA:505,0
DA:506,0
DA:507,0
DA:508,0
DA:509,0
DA:511,0
DA:515,0
DA:516,0
DA:525,1
DA:526,1
DA:529,1
DA:530,1
DA:531,1
DA:532,1
DA:536,1
DA:537,1
DA:538,1
DA:539,1
DA:541,1
DA:542,1
DA:543,1
DA:544,1
DA:545,1
DA:548,1
DA:549,1
DA:550,1
DA:551,1
DA:553,1
DA:554,1
DA:555,1
DA:556,1
DA:557,1
DA:560,1
DA:561,1
DA:562,1
DA:563,1
DA:565,1
DA:566,1
DA:567,1
DA:568,1
DA:569,1
DA:570,1
DA:573,1
DA:574,1
DA:576,1
DA:577,1
DA:578,1
DA:580,1
DA:581,1
DA:582,1
DA:585,1
DA:586,1
DA:588,1
DA:589,1
DA:591,1
DA:592,1
BRF:0
BRH:0
LF:332
LH:168
end_of_record
SF:/mnt/f/Node/hivellm/nexus/nexus-core/src/graph_construction.rs
FN:189,_RNCNvMs1_NtCs4yQ6d7adrZY_10nexus_core18graph_constructionNtB7_11GraphLayout12get_node_mut0B9_
FN:195,_RNCNvMs1_NtCs4yQ6d7adrZY_10nexus_core18graph_constructionNtB7_11GraphLayout18get_edges_for_node0B9_
FN:185,_RNCNvMs1_NtCs4yQ6d7adrZY_10nexus_core18graph_constructionNtB7_11GraphLayout8get_node0B9_
FN:411,_RNCNvMs3_NtCs4yQ6d7adrZY_10nexus_core18graph_constructionNtB7_19ForceDirectedLayout23calculate_spring_forces0B9_
FN:412,_RNCNvMs3_NtCs4yQ6d7adrZY_10nexus_core18graph_constructionNtB7_19ForceDirectedLayout23calculate_spring_forcess_0B9_
FN:557,_RNCNvMs5_NtCs4yQ6d7adrZY_10nexus_core18graph_constructionNtB7_18HierarchicalLayout15find_root_nodes0B9_
FN:558,_RNCNvMs5_NtCs4yQ6d7adrZY_10nexus_core18graph_constructionNtB7_18HierarchicalLayout15find_root_nodess_0B9_
FN:40,_RNvMNtCs4yQ6d7adrZY_10nexus_core18graph_constructionNtB2_7Point2D11distance_to
FN:46,_RNvMNtCs4yQ6d7adrZY_10nexus_core18graph_constructionNtB2_7Point2D3add
FN:36,_RNvMNtCs4yQ6d7adrZY_10nexus_core18graph_constructionNtB2_7Point2D3new
FN:54,_RNvMNtCs4yQ6d7adrZY_10nexus_core18graph_constructionNtB2_7Point2D5scale
FN:50,_RNvMNtCs4yQ6d7adrZY_10nexus_core18graph_constructionNtB2_7Point2D8subtract
FN:58,_RNvMNtCs4yQ6d7adrZY_10nexus_core18graph_constructionNtB2_7Point2D9magnitude
FN:62,_RNvMNtCs4yQ6d7adrZY_10nexus_core18graph_constructionNtB2_7Point2D9normalize
FN:144,_RNvMs0_NtCs4yQ6d7adrZY_10nexus_core18graph_constructionNtB5_10LayoutEdge11with_length
FN:139,_RNvMs0_NtCs4yQ6d7adrZY_10nexus_core18graph_constructionNtB5_10LayoutEdge11with_weight
FN:149,_RNvMs0_NtCs4yQ6d7adrZY_10nexus_core18graph_constructionNtB5_10LayoutEdge13with_metadata
FN:128,_RNvMs0_NtCs4yQ6d7adrZY_10nexus_core18graph_constructionNtB5_10LayoutEdge3new
FN:215,_RNvMs1_NtCs4yQ6d7adrZY_10nexus_core18graph_constructionNtB5_11GraphLayout12center_nodes
FN:188,_RNvMs1_NtCs4yQ6d7adrZY_10nexus_core18graph_constructionNtB5_11GraphLayout12get_node_mut
FN:238,_RNvMs1_NtCs4yQ6d7adrZY_10nexus_core18graph_constructionNtB5_11GraphLayout12scale_to_fit
FN:199,_RNvMs1_NtCs4yQ6d7adrZY_10nexus_core18graph_constructionNtB5_11GraphLayout13get_neighbors
FN:192,_RNvMs1_NtCs4yQ6d7adrZY_10nexus_core18graph_constructionNtB5_11GraphLayout18get_edges_for_node
FN:166,_RNvMs1_NtCs4yQ6d7adrZY_10nexus_core18graph_constructionNtB5_11GraphLayout3new
FN:180,_RNvMs1_NtCs4yQ6d7adrZY_10nexus_core18graph_constructionNtB5_11GraphLayout8add_edge
FN:176,_RNvMs1_NtCs4yQ6d7adrZY_10nexus_core18graph_constructionNtB5_11GraphLayout8add_node
FN:184,_RNvMs1_NtCs4yQ6d7adrZY_10nexus_core18graph_constructionNtB5_11GraphLayout8get_node
FN:303,_RNvMs3_NtCs4yQ6d7adrZY_10nexus_core18graph_constructionNtB5_19ForceDirectedLayout15with_iterations
FN:433,_RNvMs3_NtCs4yQ6d7adrZY_10nexus_core18graph_constructionNtB5_19ForceDirectedLayout16update_positions
FN:308,_RNvMs3_NtCs4yQ6d7adrZY_10nexus_core18graph_constructionNtB5_19ForceDirectedLayout16with_temperature
FN:364,_RNvMs3_NtCs4yQ6d7adrZY_10nexus_core18graph_constructionNtB5_19ForceDirectedLayout20initialize_positions
FN:313,_RNvMs3_NtCs4yQ6d7adrZY_10nexus_core18graph_constructionNtB5_19ForceDirectedLayout20with_spring_constant
FN:409,_RNvMs3_NtCs4yQ6d7adrZY_10nexus_core18graph_constructionNtB5_19ForceDirectedLayout23calculate_spring_forces
FN:318,_RNvMs3_NtCs4yQ6d7adrZY_10nexus_core18graph_constructionNtB5_19ForceDirectedLayout23with_repulsion_constant
FN:388,_RNvMs3_NtCs4yQ6d7adrZY_10nexus_core18graph_constructionNtB5_19ForceDirectedLayout26calculate_repulsion_forces
FN:299,_RNvMs3_NtCs4yQ6d7adrZY_10nexus_core18graph_constructionNtB5_19ForceDirectedLayout3new
FN:323,_RNvMs3_NtCs4yQ6d7adrZY_10nexus_core18graph_constructionNtB5_19ForceDirectedLayout6layout
FN:562,_RNvMs5_NtCs4yQ6d7adrZY_10nexus_core18graph_constructionNtB5_18HierarchicalLayout13assign_levels
FN:592,_RNvMs5_NtCs4yQ6d7adrZY_10nexus_core18graph_constructionNtB5_18HierarchicalLayout14position_nodes
FN:501,_RNvMs5_NtCs4yQ6d7adrZY_10nexus_core18graph_constructionNtB5_18HierarchicalLayout14with_direction
FN:547,_RNvMs5_NtCs4yQ6d7adrZY_10nexus_core18graph_constructionNtB5_18HierarchicalLayout15find_root_nodes
FN:496,_RNvMs5_NtCs4yQ6d7adrZY_10nexus_core18graph_constructionNtB5_18HierarchicalLayout17with_node_spacing
FN:491,_RNvMs5_NtCs4yQ6d7adrZY_10nexus_core18graph_constructionNtB5_18HierarchicalLayout18with_level_spacing
FN:530,_RNvMs5_NtCs4yQ6d7adrZY_10nexus_core18graph_constructionNtB5_18HierarchicalLayout20build_adjacency_list
FN:487,_RNvMs5_NtCs4yQ6d7adrZY_10nexus_core18graph_constructionNtB5_18HierarchicalLayout3new
FN:506,_RNvMs5_NtCs4yQ6d7adrZY_10nexus_core18graph_constructionNtB5_18HierarchicalLayout6layout
FN:656,_RNvMs7_NtCs4yQ6d7adrZY_10nexus_core18graph_constructionNtB5_14CircularLayout11with_radius
FN:666,_RNvMs7_NtCs4yQ6d7adrZY_10nexus_core18graph_constructionNtB5_14CircularLayout14with_clockwise
FN:661,_RNvMs7_NtCs4yQ6d7adrZY_10nexus_core18graph_constructionNtB5_14CircularLayout16with_start_angle
FN:652,_RNvMs7_NtCs4yQ6d7adrZY_10nexus_core18graph_constructionNtB5_14CircularLayout3new
FN:671,_RNvMs7_NtCs4yQ6d7adrZY_10nexus_core18graph_constructionNtB5_14CircularLayout6layout
FN:721,_RNvMs9_NtCs4yQ6d7adrZY_10nexus_core18graph_constructionNtB5_10GridLayout12with_padding
FN:715,_RNvMs9_NtCs4yQ6d7adrZY_10nexus_core18graph_constructionNtB5_10GridLayout14with_cell_size
FN:711,_RNvMs9_NtCs4yQ6d7adrZY_10nexus_core18graph_constructionNtB5_10GridLayout3new
FN:726,_RNvMs9_NtCs4yQ6d7adrZY_10nexus_core18graph_constructionNtB5_10GridLayout6layout
FN:110,_RNvMs_NtCs4yQ6d7adrZY_10nexus_core18graph_constructionNtB4_10LayoutNode12fix_position
FN:105,_RNvMs_NtCs4yQ6d7adrZY_10nexus_core18graph_constructionNtB4_10LayoutNode13with_metadata
FN:86,_RNvMs_NtCs4yQ6d7adrZY_10nexus_core18graph_constructionNtB4_10LayoutNode3new
FN:99,_RNvMs_NtCs4yQ6d7adrZY_10nexus_core18graph_constructionNtB4_10LayoutNode9with_size
FN:769,_RNvMsa_NtCs4yQ6d7adrZY_10nexus_core18graph_constructionNtB5_16KMeansClustering14with_tolerance
FN:841,_RNvMsa_NtCs4yQ6d7adrZY_10nexus_core18graph_constructionNtB5_16KMeansClustering16update_centroids
FN:764,_RNvMsa_NtCs4yQ6d7adrZY_10nexus_core18graph_constructionNtB5_16KMeansClustering19with_max_iterations
FN:822,_RNvMsa_NtCs4yQ6d7adrZY_10nexus_core18graph_constructionNtB5_16KMeansClustering20initialize_centroids
FN:756,_RNvMsa_NtCs4yQ6d7adrZY_10nexus_core18graph_constructionNtB5_16KMeansClustering3new
FN:774,_RNvMsa_NtCs4yQ6d7adrZY_10nexus_core18graph_constructionNtB5_16KMeansClustering7cluster
FN:875,_RNvMsb_NtCs4yQ6d7adrZY_10nexus_core18graph_constructionNtB5_19ConnectedComponents13with_directed
FN:880,_RNvMsb_NtCs4yQ6d7adrZY_10nexus_core18graph_constructionNtB5_19ConnectedComponents15find_components
FN:898,_RNvMsb_NtCs4yQ6d7adrZY_10nexus_core18graph_constructionNtB5_19ConnectedComponents20build_adjacency_list
FN:921,_RNvMsb_NtCs4yQ6d7adrZY_10nexus_core18graph_constructionNtB5_19ConnectedComponents3dfs
FN:871,_RNvMsb_NtCs4yQ6d7adrZY_10nexus_core18graph_constructionNtB5_19ConnectedComponents3new
FN:284,_RNvXs2_NtCs4yQ6d7adrZY_10nexus_core18graph_constructionNtB5_19ForceDirectedLayoutNtNtCs9Kp62OsN3pY_4core7default7Default7default
FN:477,_RNvXs4_NtCs4yQ6d7adrZY_10nexus_core18graph_constructionNtB5_18HierarchicalLayoutNtNtCs9Kp62OsN3pY_4core7default7Default7default
FN:642,_RNvXs6_NtCs4yQ6d7adrZY_10nexus_core18graph_constructionNtB5_14CircularLayoutNtNtCs9Kp62OsN3pY_4core7default7Default7default
FN:701,_RNvXs8_NtCs4yQ6d7adrZY_10nexus_core18graph_constructionNtB5_10GridLayoutNtNtCs9Kp62OsN3pY_4core7default7Default7default
FN:195,_RNCNvMs1_NtCs7bzfDg8Kx2o_10nexus_core18graph_constructionNtB7_11GraphLayout18get_edges_for_node0B9_
FN:144,_RNvMs0_NtCs7bzfDg8Kx2o_10nexus_core18graph_constructionNtB5_10LayoutEdge11with_length
FN:139,_RNvMs0_NtCs7bzfDg8Kx2o_10nexus_core18graph_constructionNtB5_10LayoutEdge11with_weight
FN:149,_RNvMs0_NtCs7bzfDg8Kx2o_10nexus_core18graph_constructionNtB5_10LayoutEdge13with_metadata
FN:199,_RNvMs1_NtCs7bzfDg8Kx2o_10nexus_core18graph_constructionNtB5_11GraphLayout13get_neighbors
FN:192,_RNvMs1_NtCs7bzfDg8Kx2o_10nexus_core18graph_constructionNtB5_11GraphLayout18get_edges_for_node
FN:308,_RNvMs3_NtCs7bzfDg8Kx2o_10nexus_core18graph_constructionNtB5_19ForceDirectedLayout16with_temperature
FN:313,_RNvMs3_NtCs7bzfDg8Kx2o_10nexus_core18graph_constructionNtB5_19ForceDirectedLayout20with_spring_constant
FN:318,_RNvMs3_NtCs7bzfDg8Kx2o_10nexus_core18graph_constructionNtB5_19ForceDirectedLayout23with_repulsion_constant
FN:501,_RNvMs5_NtCs7bzfDg8Kx2o_10nexus_core18graph_constructionNtB5_18HierarchicalLayout14with_direction
FN:496,_RNvMs5_NtCs7bzfDg8Kx2o_10nexus_core18graph_constructionNtB5_18HierarchicalLayout17with_node_spacing
FN:491,_RNvMs5_NtCs7bzfDg8Kx2o_10nexus_core18graph_constructionNtB5_18HierarchicalLayout18with_level_spacing
FN:656,_RNvMs7_NtCs7bzfDg8Kx2o_10nexus_core18graph_constructionNtB5_14CircularLayout11with_radius
FN:666,_RNvMs7_NtCs7bzfDg8Kx2o_10nexus_core18graph_constructionNtB5_14CircularLayout14with_clockwise
FN:661,_RNvMs7_NtCs7bzfDg8Kx2o_10nexus_core18graph_constructionNtB5_14CircularLayout16with_start_angle
FN:721,_RNvMs9_NtCs7bzfDg8Kx2o_10nexus_core18graph_constructionNtB5_10GridLayout12with_padding
FN:715,_RNvMs9_NtCs7bzfDg8Kx2o_10nexus_core18graph_constructionNtB5_10GridLayout14with_cell_size
FN:110,_RNvMs_NtCs7bzfDg8Kx2o_10nexus_core18graph_constructionNtB4_10LayoutNode12fix_position
FN:105,_RNvMs_NtCs7bzfDg8Kx2o_10nexus_core18graph_constructionNtB4_10LayoutNode13with_metadata
FN:99,_RNvMs_NtCs7bzfDg8Kx2o_10nexus_core18graph_constructionNtB4_10LayoutNode9with_size
FN:769,_RNvMsa_NtCs7bzfDg8Kx2o_10nexus_core18graph_constructionNtB5_16KMeansClustering14with_tolerance
FN:764,_RNvMsa_NtCs7bzfDg8Kx2o_10nexus_core18graph_constructionNtB5_16KMeansClustering19with_max_iterations
FN:875,_RNvMsb_NtCs7bzfDg8Kx2o_10nexus_core18graph_constructionNtB5_19ConnectedComponents13with_directed
FN:942,_RNvNtNtCs7bzfDg8Kx2o_10nexus_core18graph_construction5tests17create_test_graph
FN:1028,_RNvNtNtCs7bzfDg8Kx2o_10nexus_core18graph_construction5testss_16test_grid_layout
FN:1015,_RNvNtNtCs7bzfDg8Kx2o_10nexus_core18graph_construction5testss_20test_circular_layout
FN:1041,_RNvNtNtCs7bzfDg8Kx2o_10nexus_core18graph_construction5testss_22test_kmeans_clustering
FN:977,_RNvNtNtCs7bzfDg8Kx2o_10nexus_core18graph_construction5testss_23test_point2d_operations
FN:1002,_RNvNtNtCs7bzfDg8Kx2o_10nexus_core18graph_construction5testss_24test_hierarchical_layout
FN:1051,_RNvNtNtCs7bzfDg8Kx2o_10nexus_core18graph_construction5testss_25test_connected_components
FN:989,_RNvNtNtCs7bzfDg8Kx2o_10nexus_core18graph_construction5testss_26test_force_directed_layout
FN:1062,_RNvNtNtCs7bzfDg8Kx2o_10nexus_core18graph_construction5testss_28test_graph_layout_operations
FN:40,_RNvMNtCs7bzfDg8Kx2o_10nexus_core18graph_constructionNtB2_7Point2D11distance_to
FN:46,_RNvMNtCs7bzfDg8Kx2o_10nexus_core18graph_constructionNtB2_7Point2D3add
FN:36,_RNvMNtCs7bzfDg8Kx2o_10nexus_core18graph_constructionNtB2_7Point2D3new
FN:54,_RNvMNtCs7bzfDg8Kx2o_10nexus_core18graph_constructionNtB2_7Point2D5scale
FN:50,_RNvMNtCs7bzfDg8Kx2o_10nexus_core18graph_constructionNtB2_7Point2D8subtract
FN:58,_RNvMNtCs7bzfDg8Kx2o_10nexus_core18graph_constructionNtB2_7Point2D9magnitude
FN:62,_RNvMNtCs7bzfDg8Kx2o_10nexus_core18graph_constructionNtB2_7Point2D9normalize
FN:128,_RNvMs0_NtCs7bzfDg8Kx2o_10nexus_core18graph_constructionNtB5_10LayoutEdge3new
FN:215,_RNvMs1_NtCs7bzfDg8Kx2o_10nexus_core18graph_constructionNtB5_11GraphLayout12center_nodes
FN:188,_RNvMs1_NtCs7bzfDg8Kx2o_10nexus_core18graph_constructionNtB5_11GraphLayout12get_node_mut
FN:238,_RNvMs1_NtCs7bzfDg8Kx2o_10nexus_core18graph_constructionNtB5_11GraphLayout12scale_to_fit
FN:166,_RNvMs1_NtCs7bzfDg8Kx2o_10nexus_core18graph_constructionNtB5_11GraphLayout3new
FN:180,_RNvMs1_NtCs7bzfDg8Kx2o_10nexus_core18graph_constructionNtB5_11GraphLayout8add_edge
FN:176,_RNvMs1_NtCs7bzfDg8Kx2o_10nexus_core18graph_constructionNtB5_11GraphLayout8add_node
FN:184,_RNvMs1_NtCs7bzfDg8Kx2o_10nexus_core18graph_constructionNtB5_11GraphLayout8get_node
FN:303,_RNvMs3_NtCs7bzfDg8Kx2o_10nexus_core18graph_constructionNtB5_19ForceDirectedLayout15with_iterations
FN:433,_RNvMs3_NtCs7bzfDg8Kx2o_10nexus_core18graph_constructionNtB5_19ForceDirectedLayout16update_positions
FN:364,_RNvMs3_NtCs7bzfDg8Kx2o_10nexus_core18graph_constructionNtB5_19ForceDirectedLayout20initialize_positions
FN:409,_RNvMs3_NtCs7bzfDg8Kx2o_10nexus_core18graph_constructionNtB5_19ForceDirectedLayout23calculate_spring_forces
FN:388,_RNvMs3_NtCs7bzfDg8Kx2o_10nexus_core18graph_constructionNtB5_19ForceDirectedLayout26calculate_repulsion_forces
FN:299,_RNvMs3_NtCs7bzfDg8Kx2o_10nexus_core18graph_constructionNtB5_19ForceDirectedLayout3new
FN:323,_RNvMs3_NtCs7bzfDg8Kx2o_10nexus_core18graph_constructionNtB5_19ForceDirectedLayout6layout
FN:562,_RNvMs5_NtCs7bzfDg8Kx2o_10nexus_core18graph_constructionNtB5_18HierarchicalLayout13assign_levels
FN:592,_RNvMs5_NtCs7bzfDg8Kx2o_10nexus_core18graph_constructionNtB5_18HierarchicalLayout14position_nodes
FN:547,_RNvMs5_NtCs7bzfDg8Kx2o_10nexus_core18graph_constructionNtB5_18HierarchicalLayout15find_root_nodes
FN:530,_RNvMs5_NtCs7bzfDg8Kx2o_10nexus_core18graph_constructionNtB5_18HierarchicalLayout20build_adjacency_list
FN:487,_RNvMs5_NtCs7bzfDg8Kx2o_10nexus_core18graph_constructionNtB5_18HierarchicalLayout3new
FN:506,_RNvMs5_NtCs7bzfDg8Kx2o_10nexus_core18graph_constructionNtB5_18HierarchicalLayout6layout
FN:652,_RNvMs7_NtCs7bzfDg8Kx2o_10nexus_core18graph_constructionNtB5_14CircularLayout3new
FN:671,_RNvMs7_NtCs7bzfDg8Kx2o_10nexus_core18graph_constructionNtB5_14CircularLayout6layout
FN:711,_RNvMs9_NtCs7bzfDg8Kx2o_10nexus_core18graph_constructionNtB5_10GridLayout3new
FN:726,_RNvMs9_NtCs7bzfDg8Kx2o_10nexus_core18graph_constructionNtB5_10GridLayout6layout
FN:86,_RNvMs_NtCs7bzfDg8Kx2o_10nexus_core18graph_constructionNtB4_10LayoutNode3new
FN:841,_RNvMsa_NtCs7bzfDg8Kx2o_10nexus_core18graph_constructionNtB5_16KMeansClustering16update_centroids
FN:822,_RNvMsa_NtCs7bzfDg8Kx2o_10nexus_core18graph_constructionNtB5_16KMeansClustering20initialize_centroids
FN:756,_RNvMsa_NtCs7bzfDg8Kx2o_10nexus_core18graph_constructionNtB5_16KMeansClustering3new
FN:774,_RNvMsa_NtCs7bzfDg8Kx2o_10nexus_core18graph_constructionNtB5_16KMeansClustering7cluster
FN:880,_RNvMsb_NtCs7bzfDg8Kx2o_10nexus_core18graph_constructionNtB5_19ConnectedComponents15find_components
FN:898,_RNvMsb_NtCs7bzfDg8Kx2o_10nexus_core18graph_constructionNtB5_19ConnectedComponents20build_adjacency_list
FN:921,_RNvMsb_NtCs7bzfDg8Kx2o_10nexus_core18graph_constructionNtB5_19ConnectedComponents3dfs
FN:871,_RNvMsb_NtCs7bzfDg8Kx2o_10nexus_core18graph_constructionNtB5_19ConnectedComponents3new
FN:284,_RNvXs2_NtCs7bzfDg8Kx2o_10nexus_core18graph_constructionNtB5_19ForceDirectedLayoutNtNtCs9Kp62OsN3pY_4core7default7Default7default
FN:477,_RNvXs4_NtCs7bzfDg8Kx2o_10nexus_core18graph_constructionNtB5_18HierarchicalLayoutNtNtCs9Kp62OsN3pY_4core7default7Default7default
FN:642,_RNvXs6_NtCs7bzfDg8Kx2o_10nexus_core18graph_constructionNtB5_14CircularLayoutNtNtCs9Kp62OsN3pY_4core7default7Default7default
FN:701,_RNvXs8_NtCs7bzfDg8Kx2o_10nexus_core18graph_constructionNtB5_10GridLayoutNtNtCs9Kp62OsN3pY_4core7default7Default7default
FN:1047,_RNCNvNtNtCs7bzfDg8Kx2o_10nexus_core18graph_construction5testss_22test_kmeans_clustering0B7_
FN:1058,_RNCNvNtNtCs7bzfDg8Kx2o_10nexus_core18graph_construction5testss_25test_connected_components0B7_
FN:189,_RNCNvMs1_NtCs7bzfDg8Kx2o_10nexus_core18graph_constructionNtB7_11GraphLayout12get_node_mut0B9_
FN:185,_RNCNvMs1_NtCs7bzfDg8Kx2o_10nexus_core18graph_constructionNtB7_11GraphLayout8get_node0B9_
FN:411,_RNCNvMs3_NtCs7bzfDg8Kx2o_10nexus_core18graph_constructionNtB7_19ForceDirectedLayout23calculate_spring_forces0B9_
FN:412,_RNCNvMs3_NtCs7bzfDg8Kx2o_10nexus_core18graph_constructionNtB7_19ForceDirectedLayout23calculate_spring_forcess_0B9_
FN:557,_RNCNvMs5_NtCs7bzfDg8Kx2o_10nexus_core18graph_constructionNtB7_18HierarchicalLayout15find_root_nodes0B9_
FN:558,_RNCNvMs5_NtCs7bzfDg8Kx2o_10nexus_core18graph_constructionNtB7_18HierarchicalLayout15find_root_nodess_0B9_
FNDA:0,_RNCNvMs1_NtCs4yQ6d7adrZY_10nexus_core18graph_constructionNtB7_11GraphLayout12get_node_mut0B9_
FNDA:0,_RNCNvMs1_NtCs4yQ6d7adrZY_10nexus_core18graph_constructionNtB7_11GraphLayout18get_edges_for_node0B9_
FNDA:0,_RNCNvMs1_NtCs4yQ6d7adrZY_10nexus_core18graph_constructionNtB7_11GraphLayout8get_node0B9_
FNDA:0,_RNCNvMs3_NtCs4yQ6d7adrZY_10nexus_core18graph_constructionNtB7_19ForceDirectedLayout23calculate_spring_forces0B9_
FNDA:0,_RNCNvMs3_NtCs4yQ6d7adrZY_10nexus_core18graph_constructionNtB7_19ForceDirectedLayout23calculate_spring_forcess_0B9_
FNDA:0,_RNCNvMs5_NtCs4yQ6d7adrZY_10nexus_core18graph_constructionNtB7_18HierarchicalLayout15find_root_nodes0B9_
FNDA:0,_RNCNvMs5_NtCs4yQ6d7adrZY_10nexus_core18graph_constructionNtB7_18HierarchicalLayout15find_root_nodess_0B9_
FNDA:0,_RNvMNtCs4yQ6d7adrZY_10nexus_core18graph_constructionNtB2_7Point2D11distance_to
FNDA:0,_RNvMNtCs4yQ6d7adrZY_10nexus_core18graph_constructionNtB2_7Point2D3add
FNDA:0,_RNvMNtCs4yQ6d7adrZY_10nexus_core18graph_constructionNtB2_7Point2D3new
FNDA:0,_RNvMNtCs4yQ6d7adrZY_10nexus_core18graph_constructionNtB2_7Point2D5scale
FNDA:0,_RNvMNtCs4yQ6d7adrZY_10nexus_core18graph_constructionNtB2_7Point2D8subtract
FNDA:0,_RNvMNtCs4yQ6d7adrZY_10nexus_core18graph_constructionNtB2_7Point2D9magnitude
FNDA:0,_RNvMNtCs4yQ6d7adrZY_10nexus_core18graph_constructionNtB2_7Point2D9normalize
FNDA:0,_RNvMs0_NtCs4yQ6d7adrZY_10nexus_core18graph_constructionNtB5_10LayoutEdge11with_length
FNDA:0,_RNvMs0_NtCs4yQ6d7adrZY_10nexus_core18graph_constructionNtB5_10LayoutEdge11with_weight
FNDA:0,_RNvMs0_NtCs4yQ6d7adrZY_10nexus_core18graph_constructionNtB5_10LayoutEdge13with_metadata
FNDA:0,_RNvMs0_NtCs4yQ6d7adrZY_10nexus_core18graph_constructionNtB5_10LayoutEdge3new
FNDA:0,_RNvMs1_NtCs4yQ6d7adrZY_10nexus_core18graph_constructionNtB5_11GraphLayout12center_nodes
FNDA:0,_RNvMs1_NtCs4yQ6d7adrZY_10nexus_core18graph_constructionNtB5_11GraphLayout12get_node_mut
FNDA:0,_RNvMs1_NtCs4yQ6d7adrZY_10nexus_core18graph_constructionNtB5_11GraphLayout12scale_to_fit
FNDA:0,_RNvMs1_NtCs4yQ6d7adrZY_10nexus_core18graph_constructionNtB5_11GraphLayout13get_neighbors
FNDA:0,_RNvMs1_NtCs4yQ6d7adrZY_10nexus_core18graph_constructionNtB5_11GraphLayout18get_edges_for_node
FNDA:0,_RNvMs1_NtCs4yQ6d7adrZY_10nexus_core18graph_constructionNtB5_11GraphLayout3new
FNDA:0,_RNvMs1_NtCs4yQ6d7adrZY_10nexus_core18graph_constructionNtB5_11GraphLayout8add_edge
FNDA:0,_RNvMs1_NtCs4yQ6d7adrZY_10nexus_core18graph_constructionNtB5_11GraphLayout8add_node
FNDA:0,_RNvMs1_NtCs4yQ6d7adrZY_10nexus_core18graph_constructionNtB5_11GraphLayout8get_node
FNDA:0,_RNvMs3_NtCs4yQ6d7adrZY_10nexus_core18graph_constructionNtB5_19ForceDirectedLayout15with_iterations
FNDA:0,_RNvMs3_NtCs4yQ6d7adrZY_10nexus_core18graph_constructionNtB5_19ForceDirectedLayout16update_positions
FNDA:0,_RNvMs3_NtCs4yQ6d7adrZY_10nexus_core18graph_constructionNtB5_19ForceDirectedLayout16with_temperature
FNDA:0,_RNvMs3_NtCs4yQ6d7adrZY_10nexus_core18graph_constructionNtB5_19ForceDirectedLayout20initialize_positions
FNDA:0,_RNvMs3_NtCs4yQ6d7adrZY_10nexus_core18graph_constructionNtB5_19ForceDirectedLayout20with_spring_constant
FNDA:0,_RNvMs3_NtCs4yQ6d7adrZY_10nexus_core18graph_constructionNtB5_19ForceDirectedLayout23calculate_spring_forces
FNDA:0,_RNvMs3_NtCs4yQ6d7adrZY_10nexus_core18graph_constructionNtB5_19ForceDirectedLayout23with_repulsion_constant
FNDA:0,_RNvMs3_NtCs4yQ6d7adrZY_10nexus_core18graph_constructionNtB5_19ForceDirectedLayout26calculate_repulsion_forces
FNDA:0,_RNvMs3_NtCs4yQ6d7adrZY_10nexus_core18graph_constructionNtB5_19ForceDirectedLayout3new
FNDA:0,_RNvMs3_NtCs4yQ6d7adrZY_10nexus_core18graph_constructionNtB5_19ForceDirectedLayout6layout
FNDA:0,_RNvMs5_NtCs4yQ6d7adrZY_10nexus_core18graph_constructionNtB5_18HierarchicalLayout13assign_levels
FNDA:0,_RNvMs5_NtCs4yQ6d7adrZY_10nexus_core18graph_constructionNtB5_18HierarchicalLayout14position_nodes
FNDA:0,_RNvMs5_NtCs4yQ6d7adrZY_10nexus_core18graph_constructionNtB5_18HierarchicalLayout14with_direction
FNDA:0,_RNvMs5_NtCs4yQ6d7adrZY_10nexus_core18graph_constructionNtB5_18HierarchicalLayout15find_root_nodes
FNDA:0,_RNvMs5_NtCs4yQ6d7adrZY_10nexus_core18graph_constructionNtB5_18HierarchicalLayout17with_node_spacing
FNDA:0,_RNvMs5_NtCs4yQ6d7adrZY_10nexus_core18graph_constructionNtB5_18HierarchicalLayout18with_level_spacing
FNDA:0,_RNvMs5_NtCs4yQ6d7adrZY_10nexus_core18graph_constructionNtB5_18HierarchicalLayout20build_adjacency_list
FNDA:0,_RNvMs5_NtCs4yQ6d7adrZY_10nexus_core18graph_constructionNtB5_18HierarchicalLayout3new
FNDA:0,_RNvMs5_NtCs4yQ6d7adrZY_10nexus_core18graph_constructionNtB5_18HierarchicalLayout6layout
FNDA:0,_RNvMs7_NtCs4yQ6d7adrZY_10nexus_core18graph_constructionNtB5_14CircularLayout11with_radius
FNDA:0,_RNvMs7_NtCs4yQ6d7adrZY_10nexus_core18graph_constructionNtB5_14CircularLayout14with_clockwise
FNDA:0,_RNvMs7_NtCs4yQ6d7adrZY_10nexus_core18graph_constructionNtB5_14CircularLayout16with_start_angle
FNDA:0,_RNvMs7_NtCs4yQ6d7adrZY_10nexus_core18graph_constructionNtB5_14CircularLayout3new
FNDA:0,_RNvMs7_NtCs4yQ6d7adrZY_10nexus_core18graph_constructionNtB5_14CircularLayout6layout
FNDA:0,_RNvMs9_NtCs4yQ6d7adrZY_10nexus_core18graph_constructionNtB5_10GridLayout12with_padding
FNDA:0,_RNvMs9_NtCs4yQ6d7adrZY_10nexus_core18graph_constructionNtB5_10GridLayout14with_cell_size
FNDA:0,_RNvMs9_NtCs4yQ6d7adrZY_10nexus_core18graph_constructionNtB5_10GridLayout3new
FNDA:0,_RNvMs9_NtCs4yQ6d7adrZY_10nexus_core18graph_constructionNtB5_10GridLayout6layout
FNDA:0,_RNvMs_NtCs4yQ6d7adrZY_10nexus_core18graph_constructionNtB4_10LayoutNode12fix_position
FNDA:0,_RNvMs_NtCs4yQ6d7adrZY_10nexus_core18graph_constructionNtB4_10LayoutNode13with_metadata
FNDA:0,_RNvMs_NtCs4yQ6d7adrZY_10nexus_core18graph_constructionNtB4_10LayoutNode3new
FNDA:0,_RNvMs_NtCs4yQ6d7adrZY_10nexus_core18graph_constructionNtB4_10LayoutNode9with_size
FNDA:0,_RNvMsa_NtCs4yQ6d7adrZY_10nexus_core18graph_constructionNtB5_16KMeansClustering14with_tolerance
FNDA:0,_RNvMsa_NtCs4yQ6d7adrZY_10nexus_core18graph_constructionNtB5_16KMeansClustering16update_centroids
FNDA:0,_RNvMsa_NtCs4yQ6d7adrZY_10nexus_core18graph_constructionNtB5_16KMeansClustering19with_max_iterations
FNDA:0,_RNvMsa_NtCs4yQ6d7adrZY_10nexus_core18graph_constructionNtB5_16KMeansClustering20initialize_centroids
FNDA:0,_RNvMsa_NtCs4yQ6d7adrZY_10nexus_core18graph_constructionNtB5_16KMeansClustering3new
FNDA:0,_RNvMsa_NtCs4yQ6d7adrZY_10nexus_core18graph_constructionNtB5_16KMeansClustering7cluster
FNDA:0,_RNvMsb_NtCs4yQ6d7adrZY_10nexus_core18graph_constructionNtB5_19ConnectedComponents13with_directed
FNDA:0,_RNvMsb_NtCs4yQ6d7adrZY_10nexus_core18graph_constructionNtB5_19ConnectedComponents15find_components
FNDA:0,_RNvMsb_NtCs4yQ6d7adrZY_10nexus_core18graph_constructionNtB5_19ConnectedComponents20build_adjacency_list
FNDA:0,_RNvMsb_NtCs4yQ6d7adrZY_10nexus_core18graph_constructionNtB5_19ConnectedComponents3dfs
FNDA:0,_RNvMsb_NtCs4yQ6d7adrZY_10nexus_core18graph_constructionNtB5_19ConnectedComponents3new
FNDA:0,_RNvXs2_NtCs4yQ6d7adrZY_10nexus_core18graph_constructionNtB5_19ForceDirectedLayoutNtNtCs9Kp62OsN3pY_4core7default7Default7default
FNDA:0,_RNvXs4_NtCs4yQ6d7adrZY_10nexus_core18graph_constructionNtB5_18HierarchicalLayoutNtNtCs9Kp62OsN3pY_4core7default7Default7default
FNDA:0,_RNvXs6_NtCs4yQ6d7adrZY_10nexus_core18graph_constructionNtB5_14CircularLayoutNtNtCs9Kp62OsN3pY_4core7default7Default7default
FNDA:0,_RNvXs8_NtCs4yQ6d7adrZY_10nexus_core18graph_constructionNtB5_10GridLayoutNtNtCs9Kp62OsN3pY_4core7default7Default7default
FNDA:0,_RNCNvMs1_NtCs7bzfDg8Kx2o_10nexus_core18graph_constructionNtB7_11GraphLayout18get_edges_for_node0B9_
FNDA:0,_RNvMs0_NtCs7bzfDg8Kx2o_10nexus_core18graph_constructionNtB5_10LayoutEdge11with_length
FNDA:0,_RNvMs0_NtCs7bzfDg8Kx2o_10nexus_core18graph_constructionNtB5_10LayoutEdge11with_weight
FNDA:0,_RNvMs0_NtCs7bzfDg8Kx2o_10nexus_core18graph_constructionNtB5_10LayoutEdge13with_metadata
FNDA:0,_RNvMs1_NtCs7bzfDg8Kx2o_10nexus_core18graph_constructionNtB5_11GraphLayout13get_neighbors
FNDA:0,_RNvMs1_NtCs7bzfDg8Kx2o_10nexus_core18graph_constructionNtB5_11GraphLayout18get_edges_for_node
FNDA:0,_RNvMs3_NtCs7bzfDg8Kx2o_10nexus_core18graph_constructionNtB5_19ForceDirectedLayout16with_temperature
FNDA:0,_RNvMs3_NtCs7bzfDg8Kx2o_10nexus_core18graph_constructionNtB5_19ForceDirectedLayout20with_spring_constant
FNDA:0,_RNvMs3_NtCs7bzfDg8Kx2o_10nexus_core18graph_constructionNtB5_19ForceDirectedLayout23with_repulsion_constant
FNDA:0,_RNvMs5_NtCs7bzfDg8Kx2o_10nexus_core18graph_constructionNtB5_18HierarchicalLayout14with_direction
FNDA:0,_RNvMs5_NtCs7bzfDg8Kx2o_10nexus_core18graph_constructionNtB5_18HierarchicalLayout17with_node_spacing
FNDA:0,_RNvMs5_NtCs7bzfDg8Kx2o_10nexus_core18graph_constructionNtB5_18HierarchicalLayout18with_level_spacing
FNDA:0,_RNvMs7_NtCs7bzfDg8Kx2o_10nexus_core18graph_constructionNtB5_14CircularLayout11with_radius
FNDA:0,_RNvMs7_NtCs7bzfDg8Kx2o_10nexus_core18graph_constructionNtB5_14CircularLayout14with_clockwise
FNDA:0,_RNvMs7_NtCs7bzfDg8Kx2o_10nexus_core18graph_constructionNtB5_14CircularLayout16with_start_angle
FNDA:0,_RNvMs9_NtCs7bzfDg8Kx2o_10nexus_core18graph_constructionNtB5_10GridLayout12with_padding
FNDA:0,_RNvMs9_NtCs7bzfDg8Kx2o_10nexus_core18graph_constructionNtB5_10GridLayout14with_cell_size
FNDA:0,_RNvMs_NtCs7bzfDg8Kx2o_10nexus_core18graph_constructionNtB4_10LayoutNode12fix_position
FNDA:0,_RNvMs_NtCs7bzfDg8Kx2o_10nexus_core18graph_constructionNtB4_10LayoutNode13with_metadata
FNDA:0,_RNvMs_NtCs7bzfDg8Kx2o_10nexus_core18graph_constructionNtB4_10LayoutNode9with_size
FNDA:0,_RNvMsa_NtCs7bzfDg8Kx2o_10nexus_core18graph_constructionNtB5_16KMeansClustering14with_tolerance
FNDA:0,_RNvMsa_NtCs7bzfDg8Kx2o_10nexus_core18graph_constructionNtB5_16KMeansClustering19with_max_iterations
FNDA:0,_RNvMsb_NtCs7bzfDg8Kx2o_10nexus_core18graph_constructionNtB5_19ConnectedComponents13with_directed
FNDA:6,_RNvNtNtCs7bzfDg8Kx2o_10nexus_core18graph_construction5tests17create_test_graph
FNDA:1,_RNvNtNtCs7bzfDg8Kx2o_10nexus_core18graph_construction5testss_16test_grid_layout
FNDA:1,_RNvNtNtCs7bzfDg8Kx2o_10nexus_core18graph_construction5testss_20test_circular_layout
FNDA:1,_RNvNtNtCs7bzfDg8Kx2o_10nexus_core18graph_construction5testss_22test_kmeans_clustering
FNDA:1,_RNvNtNtCs7bzfDg8Kx2o_10nexus_core18graph_construction5testss_23test_point2d_operations
FNDA:1,_RNvNtNtCs7bzfDg8Kx2o_10nexus_core18graph_construction5testss_24test_hierarchical_layout
FNDA:1,_RNvNtNtCs7bzfDg8Kx2o_10nexus_core18graph_construction5testss_25test_connected_components
FNDA:1,_RNvNtNtCs7bzfDg8Kx2o_10nexus_core18graph_construction5testss_26test_force_directed_layout
FNDA:1,_RNvNtNtCs7bzfDg8Kx2o_10nexus_core18graph_construction5testss_28test_graph_layout_operations
FNDA:1017,_RNvMNtCs7bzfDg8Kx2o_10nexus_core18graph_constructionNtB2_7Point2D11distance_to
FNDA:1804,_RNvMNtCs7bzfDg8Kx2o_10nexus_core18graph_constructionNtB2_7Point2D3add
FNDA:7099,_RNvMNtCs7bzfDg8Kx2o_10nexus_core18graph_constructionNtB2_7Point2D3new
FNDA:2799,_RNvMNtCs7bzfDg8Kx2o_10nexus_core18graph_constructionNtB2_7Point2D5scale
FNDA:1999,_RNvMNtCs7bzfDg8Kx2o_10nexus_core18graph_constructionNtB2_7Point2D8subtract
FNDA:1400,_RNvMNtCs7bzfDg8Kx2o_10nexus_core18graph_constructionNtB2_7Point2D9magnitude
FNDA:999,_RNvMNtCs7bzfDg8Kx2o_10nexus_core18graph_constructionNtB2_7Point2D9normalize
FNDA:24,_RNvMs0_NtCs7bzfDg8Kx2o_10nexus_core18graph_constructionNtB5_10LayoutEdge3new
FNDA:3,_RNvMs1_NtCs7bzfDg8Kx2o_10nexus_core18graph_constructionNtB5_11GraphLayout12center_nodes
FNDA:0,_RNvMs1_NtCs7bzfDg8Kx2o_10nexus_core18graph_constructionNtB5_11GraphLayout12get_node_mut
FNDA:3,_RNvMs1_NtCs7bzfDg8Kx2o_10nexus_core18graph_constructionNtB5_11GraphLayout12scale_to_fit
FNDA:7,_RNvMs1_NtCs7bzfDg8Kx2o_10nexus_core18graph_constructionNtB5_11GraphLayout3new
FNDA:24,_RNvMs1_NtCs7bzfDg8Kx2o_10nexus_core18graph_constructionNtB5_11GraphLayout8add_edge
FNDA:26,_RNvMs1_NtCs7bzfDg8Kx2o_10nexus_core18graph_constructionNtB5_11GraphLayout8add_node
FNDA:2,_RNvMs1_NtCs7bzfDg8Kx2o_10nexus_core18graph_constructionNtB5_11GraphLayout8get_node
FNDA:1,_RNvMs3_NtCs7bzfDg8Kx2o_10nexus_core18graph_constructionNtB5_19ForceDirectedLayout15with_iterations
FNDA:100,_RNvMs3_NtCs7bzfDg8Kx2o_10nexus_core18graph_constructionNtB5_19ForceDirectedLayout16update_positions
FNDA:1,_RNvMs3_NtCs7bzfDg8Kx2o_10nexus_core18graph_constructionNtB5_19ForceDirectedLayout20initialize_positions
FNDA:100,_RNvMs3_NtCs7bzfDg8Kx2o_10nexus_core18graph_constructionNtB5_19ForceDirectedLayout23calculate_spring_forces
FNDA:100,_RNvMs3_NtCs7bzfDg8Kx2o_10nexus_core18graph_constructionNtB5_19ForceDirectedLayout26calculate_repulsion_forces
FNDA:1,_RNvMs3_NtCs7bzfDg8Kx2o_10nexus_core18graph_constructionNtB5_19ForceDirectedLayout3new
FNDA:1,_RNvMs3_NtCs7bzfDg8Kx2o_10nexus_core18graph_constructionNtB5_19ForceDirectedLayout6layout
FNDA:1,_RNvMs5_NtCs7bzfDg8Kx2o_10nexus_core18graph_constructionNtB5_18HierarchicalLayout13assign_levels
FNDA:1,_RNvMs5_NtCs7bzfDg8Kx2o_10nexus_core18graph_constructionNtB5_18HierarchicalLayout14position_nodes
FNDA:1,_RNvMs5_NtCs7bzfDg8Kx2o_10nexus_core18graph_constructionNtB5_18HierarchicalLayout15find_root_nodes
FNDA:1,_RNvMs5_NtCs7bzfDg8Kx2o_10nexus_core18graph_constructionNtB5_18HierarchicalLayout20build_adjacency_list
FNDA:1,_RNvMs5_NtCs7bzfDg8Kx2o_10nexus_core18graph_constructionNtB5_18HierarchicalLayout3new
FNDA:1,_RNvMs5_NtCs7bzfDg8Kx2o_10nexus_core18graph_constructionNtB5_18HierarchicalLayout6layout
FNDA:1,_RNvMs7_NtCs7bzfDg8Kx2o_10nexus_core18graph_constructionNtB5_14CircularLayout3new
FNDA:1,_RNvMs7_NtCs7bzfDg8Kx2o_10nexus_core18graph_constructionNtB5_14CircularLayout6layout
FNDA:1,_RNvMs9_NtCs7bzfDg8Kx2o_10nexus_core18graph_constructionNtB5_10GridLayout3new
FNDA:1,_RNvMs9_NtCs7bzfDg8Kx2o_10nexus_core18graph_constructionNtB5_10GridLayout6layout
FNDA:26,_RNvMs_NtCs7bzfDg8Kx2o_10nexus_core18graph_constructionNtB4_10LayoutNode3new
FNDA:1,_RNvMsa_NtCs7bzfDg8Kx2o_10nexus_core18graph_constructionNtB5_16KMeansClustering16update_centroids
FNDA:1,_RNvMsa_NtCs7bzfDg8Kx2o_10nexus_core18graph_constructionNtB5_16KMeansClustering20initialize_centroids
FNDA:1,_RNvMsa_NtCs7bzfDg8Kx2o_10nexus_core18graph_constructionNtB5_16KMeansClustering3new
FNDA:1,_RNvMsa_NtCs7bzfDg8Kx2o_10nexus_core18graph_constructionNtB5_16KMeansClustering7cluster
FNDA:1,_RNvMsb_NtCs7bzfDg8Kx2o_10nexus_core18graph_constructionNtB5_19ConnectedComponents15find_components
FNDA:1,_RNvMsb_NtCs7bzfDg8Kx2o_10nexus_core18graph_constructionNtB5_19ConnectedComponents20build_adjacency_list
FNDA:4,_RNvMsb_NtCs7bzfDg8Kx2o_10nexus_core18graph_constructionNtB5_19ConnectedComponents3dfs
FNDA:1,_RNvMsb_NtCs7bzfDg8Kx2o_10nexus_core18graph_constructionNtB5_19ConnectedComponents3new
FNDA:1,_RNvXs2_NtCs7bzfDg8Kx2o_10nexus_core18graph_constructionNtB5_19ForceDirectedLayoutNtNtCs9Kp62OsN3pY_4core7default7Default7default
FNDA:1,_RNvXs4_NtCs7bzfDg8Kx2o_10nexus_core18graph_constructionNtB5_18HierarchicalLayoutNtNtCs9Kp62OsN3pY_4core7default7Default7default
FNDA:1,_RNvXs6_NtCs7bzfDg8Kx2o_10nexus_core18graph_constructionNtB5_14CircularLayoutNtNtCs9Kp62OsN3pY_4core7default7Default7default
FNDA:1,_RNvXs8_NtCs7bzfDg8Kx2o_10nexus_core18graph_constructionNtB5_10GridLayoutNtNtCs9Kp62OsN3pY_4core7default7Default7default
FNDA:4,_RNCNvNtNtCs7bzfDg8Kx2o_10nexus_core18graph_construction5testss_22test_kmeans_clustering0B7_
FNDA:4,_RNCNvNtNtCs7bzfDg8Kx2o_10nexus_core18graph_construction5testss_25test_connected_components0B7_
FNDA:0,_RNCNvMs1_NtCs7bzfDg8Kx2o_10nexus_core18graph_constructionNtB7_11GraphLayout12get_node_mut0B9_
FNDA:3,_RNCNvMs1_NtCs7bzfDg8Kx2o_10nexus_core18graph_constructionNtB7_11GraphLayout8get_node0B9_
FNDA:1000,_RNCNvMs3_NtCs7bzfDg8Kx2o_10nexus_core18graph_constructionNtB7_19ForceDirectedLayout23calculate_spring_forces0B9_
FNDA:1000,_RNCNvMs3_NtCs7bzfDg8Kx2o_10nexus_core18graph_constructionNtB7_19ForceDirectedLayout23calculate_spring_forcess_0B9_
FNDA:4,_RNCNvMs5_NtCs7bzfDg8Kx2o_10nexus_core18graph_constructionNtB7_18HierarchicalLayout15find_root_nodes0B9_
FNDA:0,_RNCNvMs5_NtCs7bzfDg8Kx2o_10nexus_core18graph_constructionNtB7_18HierarchicalLayout15find_root_nodess_0B9_
FNF:85
FNH:59
DA:36,7099
DA:37,7099
DA:38,7099
DA:40,1017
DA:41,1017
DA:42,1017
DA:43,1017
DA:44,1017
DA:46,1804
DA:47,1804
DA:48,1804
DA:50,1999
DA:51,1999
DA:52,1999
DA:54,2799
DA:55,2799
DA:56,2799
DA:58,1400
DA:59,1400
DA:60,1400
DA:62,999
DA:63,999
DA:64,999
DA:65,999
DA:67,0
DA:69,999
DA:86,26
DA:87,26
DA:88,26
DA:89,26
DA:90,26
DA:91,26
DA:92,26
DA:93,26
DA:94,26
DA:95,26
DA:96,26
DA:97,26
DA:99,0
DA:100,0
DA:101,0
DA:102,0
DA:103,0
DA:105,0
DA:106,0
DA:107,0
DA:108,0
DA:110,0
DA:111,0
DA:112,0
DA:113,0
DA:128,24
DA:129,24
DA:130,24
DA:131,24
DA:132,24
DA:133,24
DA:134,24
DA:135,24
DA:136,24
DA:137,24
DA:139,0
DA:140,0
DA:141,0
DA:142,0
DA:144,0
DA:145,0
DA:146,0
DA:147,0
DA:149,0
DA:150,0
DA:151,0
DA:152,0
DA:166,7
DA:167,7
DA:168,7
DA:169,7
DA:170,7
DA:171,7
DA:172,7
DA:173,7
DA:174,7
DA:176,26
DA:177,26
DA:178,26
DA:180,24
DA:181,24
DA:182,24
DA:184,2
DA:185,3
DA:186,2
DA:188,0
DA:189,0
DA:190,0
DA:192,0
DA:193,0
DA:194,0
DA:195,0
DA:196,0
DA:197,0
DA:199,0
DA:200,0
DA:201,0
DA:202,0
DA:203,0
DA:204,0
DA:205,0
DA:206,0
DA:207,0
DA:208,0
DA:209,0
DA:210,0
DA:212,0
DA:213,0
DA:215,3
DA:216,3
DA:217,0
DA:218,3
DA:220,3
DA:221,3
DA:222,13
DA:223,10
DA:224,10
DA:225,10
DA:226,3
DA:227,3
DA:229,3
DA:230,3
DA:232,13
DA:233,10
DA:234,10
DA:235,10
DA:236,3
DA:238,3
DA:239,3
DA:240,0
DA:241,3
DA:243,3
DA:244,3
DA:245,3
DA:246,3
DA:248,13
DA:249,10
DA:250,10
DA:251,10
DA:252,10
DA:253,10
DA:255,3
DA:256,3
DA:257,3
DA:258,3
DA:260,3
DA:261,3
DA:262,3
DA:264,13
DA:265,10
DA:266,10
DA:267,10
DA:268,3
DA:284,1
DA:285,1
DA:286,1
DA:287,1
DA:288,1
DA:289,1
DA:290,1
DA:291,1
DA:292,1
DA:293,1
DA:294,1
DA:295,1
DA:299,1
DA:300,1
DA:301,1
DA:303,1
DA:304,1
DA:305,1
DA:306,1
DA:308,0
DA:309,0
DA:310,0
DA:311,0
DA:313,0
DA:314,0
DA:315,0
DA:316,0
DA:318,0
DA:319,0
DA:320,0
DA:321,0
DA:323,1
DA:324,1
DA:325,0
DA:326,1
DA:329,1
DA:331,1
DA:333,100
DA:335,500
DA:336,400
DA:337,400
DA:340,100
DA:343,100
DA:346,100
DA:349,100
DA:352,100
DA:353,0
DA:354,100
DA:358,1
DA:359,1
DA:361,1
DA:362,1
DA:364,1
DA:368,4
DA:369,4
DA:370,0
DA:371,4
DA:374,4
DA:375,4
DA:376,4
DA:378,4
DA:379,4
DA:381,4
DA:382,4
DA:383,4
DA:384,4
DA:386,1
DA:388,100
DA:389,400
DA:390,600
DA:391,600
DA:392,600
DA:394,600
DA:395,600
DA:396,1
DA:397,599
DA:399,599
DA:400,599
DA:401,599
DA:403,599
DA:404,599
DA:407,100
DA:409,100
DA:410,500
DA:411,1000
DA:412,1000
DA:414,400
DA:415,400
DA:416,400
DA:418,400
DA:419,400
DA:421,400
DA:422,400
DA:423,400
DA:424,400
DA:425,400
DA:426,400
DA:427,400
DA:428,400
DA:429,0
DA:431,100
DA:433,100
DA:434,500
DA:435,400
DA:436,0
DA:437,400
DA:440,400
DA:441,400
DA:442,400
DA:443,400
DA:446,400
DA:447,400
DA:448,0
DA:449,400
DA:452,400
DA:455,400
DA:456,400
DA:458,100
DA:477,1
DA:478,1
DA:479,1
DA:480,1
DA:481,1
DA:482,1
DA:483,1
DA:487,1
DA:488,1
DA:489,1
DA:491,0
DA:492,0
DA:493,0
DA:494,0
DA:496,0
DA:497,0
DA:498,0
DA:499,0
DA:501,0
DA:502,0
DA:503,0
DA:504,0
DA:506,1
DA:507,1
DA:508,0
DA:509,1
DA:512,1
DA:515,1
DA:518,1
DA:521,1
DA:524,1
DA:525,1
DA:527,1
DA:528,1
DA:530,1
DA:531,1
DA:533,5
DA:534,4
DA:535,4
DA:537,5
DA:538,4
DA:539,4
DA:540,4
DA:541,4
DA:542,4
DA:544,1
DA:545,1
DA:547,1
DA:548,1
DA:550,5
DA:551,4
DA:552,4
DA:554,1
DA:555,1
DA:556,1
DA:557,4
DA:558,1
DA:559,1
DA:560,1
DA:562,1
DA:563,1
DA:564,1
DA:565,1
DA:566,1
DA:567,1
DA:568,1
DA:571,1
DA:572,0
DA:573,0
DA:574,0
DA:576,1
DA:577,0
DA:579,0
DA:580,0
DA:581,0
DA:582,0
DA:583,0
DA:584,0
DA:586,0
DA:589,1
DA:590,1
DA:592,1
DA:594,1
DA:595,1
DA:596,0
DA:597,0
DA:598,0
DA:599,0
DA:600,0
DA:602,1
DA:604,1
DA:605,0
DA:606,0
DA:607,0
DA:608,0
DA:609,0
DA:613,0
DA:614,0
DA:616,0
DA:617,0
DA:618,0
DA:620,0
DA:621,0
DA:622,0
DA:623,0
DA:624,0
DA:625,0
DA:626,0
DA:628,0
DA:631,1
DA:642,1
DA:643,1
DA:644,1
DA:645,1
DA:646,1
DA:647,1
DA:648,1
DA:652,1
DA:653,1
DA:654,1
DA:656,0
DA:657,0
DA:658,0
DA:659,0
DA:661,0
DA:662,0
DA:663,0
DA:664,0
DA:666,0
DA:667,0
DA:668,0
DA:669,0
DA:671,1
DA:672,1
DA:673,0
DA:674,1
DA:676,1
DA:677,1
DA:678,1
DA:679,1
DA:681,4
DA:682,4
DA:683,4
DA:684,4
DA:685,4
DA:686,4
DA:687,4
DA:689,1
DA:690,1
DA:701,1
DA:702,1
DA:703,1
DA:704,1
DA:705,1
DA:706,1
DA:707,1
DA:711,1
DA:712,1
DA:713,1
DA:715,0
DA:716,0
DA:717,0
DA:718,0
DA:719,0
DA:721,0
DA:722,0
DA:723,0
DA:724,0
DA:726,1
DA:727,1
DA:728,0
DA:729,1
DA:731,1
DA:732,1
DA:734,4
DA:735,4
DA:736,4
DA:737,4
DA:738,4
DA:739,4
DA:740,4
DA:741,4
DA:742,4
DA:744,1
DA:745,1
DA:756,1
DA:757,1
DA:758,1
DA:759,1
DA:760,1
DA:761,1
DA:762,1
DA:764,0
DA:765,0
DA:766,0
DA:767,0
DA:769,0
DA:770,0
DA:771,0
DA:772,0
DA:774,1
DA:775,1
DA:776,0
DA:777,1
DA:779,1
DA:780,1
DA:782,1
DA:783,0
DA:784,1
DA:787,1
DA:788,1
DA:789,1
DA:791,2
DA:793,8
DA:794,8
DA:795,8
DA:797,16
DA:798,16
DA:799,16
DA:800,8
DA:801,8
DA:802,8
DA:805,8
DA:809,2
DA:810,1
DA:811,1
DA:814,1
DA:816,1
DA:819,1
DA:820,1
DA:822,1
DA:823,1
DA:824,1
DA:826,2
DA:829,2
DA:830,2
DA:831,2
DA:832,2
DA:833,0
DA:835,2
DA:838,1
DA:839,1
DA:841,1
DA:842,1
DA:843,1
DA:844,1
DA:845,1
DA:846,1
DA:847,1
DA:848,1
DA:850,4
DA:851,4
DA:852,4
DA:853,4
DA:855,2
DA:856,2
DA:857,1
DA:858,1
DA:859,1
DA:861,1
DA:871,1
DA:872,1
DA:873,1
DA:875,0
DA:876,0
DA:877,0
DA:878,0
DA:880,1
DA:881,1
DA:882,1
DA:883,1
DA:886,1
DA:888,4
DA:889,4
DA:890,1
DA:891,1
DA:892,3
DA:895,1
DA:896,1
DA:898,1
DA:899,1
DA:900,1
DA:902,4
DA:903,4
DA:904,4
DA:906,5
DA:907,4
DA:908,4
DA:909,4
DA:911,4
DA:912,4
DA:913,4
DA:914,4
DA:915,0
DA:918,1
DA:919,1
DA:921,4
DA:922,4
DA:923,4
DA:924,4
DA:925,4
DA:926,4
DA:927,4
DA:928,4
DA:930,8
DA:931,8
DA:932,3
DA:933,5
DA:935,4
DA:942,6
DA:943,6
DA:946,6
DA:947,6
DA:948,6
DA:949,6
DA:952,6
DA:953,6
DA:954,6
DA:955,6
DA:957,6
DA:958,6
DA:959,6
DA:960,6
DA:962,6
DA:963,6
DA:964,6
DA:965,6
DA:967,6
DA:968,6
DA:969,6
DA:970,6
DA:973,6
DA:974,6
DA:977,1
DA:978,1
DA:979,1
DA:981,1
DA:982,1
DA:983,1
DA:984,1
DA:985,1
DA:986,1
DA:989,1
DA:990,1
DA:991,1
DA:992,1
DA:995,5
DA:996,4
DA:997,4
DA:999,1
DA:1002,1
DA:1003,1
DA:1004,1
DA:1005,1
DA:1008,5
DA:1009,4
DA:1010,4
DA:1012,1
DA:1015,1
DA:1016,1
DA:1017,1
DA:1018,1
DA:1021,5
DA:1022,4
DA:1023,4
DA:1025,1
DA:1028,1
DA:1029,1
DA:1030,1
DA:1031,1
DA:1034,5
DA:1035,4
DA:1036,4
DA:1038,1
DA:1041,1
DA:1042,1
DA:1043,1
DA:1044,1
DA:1046,1
DA:1047,4
DA:1048,1
DA:1051,1
DA:1052,1
DA:1053,1
DA:1054,1
DA:1056,1
DA:1058,4
DA:1059,1
DA:1062,1
DA:1063,1
DA:1064,1
DA:1065,1
DA:1067,1
DA:1068,1
DA:1070,1
DA:1071,1
DA:1074,3
DA:1075,2
DA:1076,2
DA:1078,1
BRF:0
BRH:0
LF:686
LH:528
end_of_record
SF:/mnt/f/Node/hivellm/nexus/nexus-core/src/graph_correlation/mod.rs
FN:224,_RNCNvMNtCs4yQ6d7adrZY_10nexus_core17graph_correlationNtB4_16CorrelationGraph10statistics0B6_
FN:207,_RNCNvMNtCs4yQ6d7adrZY_10nexus_core17graph_correlationNtB4_16CorrelationGraph14get_node_edges0B6_
FN:239,_RNCNvMNtCs4yQ6d7adrZY_10nexus_core17graph_correlationNtB4_16CorrelationGraph7to_json0B6_
FN:166,_RNCNvMNtCs4yQ6d7adrZY_10nexus_core17graph_correlationNtB4_16CorrelationGraph8add_edge0B6_
FN:181,_RNCNvMNtCs4yQ6d7adrZY_10nexus_core17graph_correlationNtB4_16CorrelationGraph8add_edges0_0B6_
FN:174,_RNCNvMNtCs4yQ6d7adrZY_10nexus_core17graph_correlationNtB4_16CorrelationGraph8add_edges_0B6_
FN:151,_RNCNvMNtCs4yQ6d7adrZY_10nexus_core17graph_correlationNtB4_16CorrelationGraph8add_node0B6_
FN:200,_RNCNvMNtCs4yQ6d7adrZY_10nexus_core17graph_correlationNtB4_16CorrelationGraph8get_edge0B6_
FN:195,_RNCNvMNtCs4yQ6d7adrZY_10nexus_core17graph_correlationNtB4_16CorrelationGraph8get_node0B6_
FN:1104,_RNCNvMs8_NtCs4yQ6d7adrZY_10nexus_core17graph_correlationNtB7_23GraphCorrelationManager11build_graph0B9_
FN:1044,_RNCNvXs7_NtCs4yQ6d7adrZY_10nexus_core17graph_correlationNtB7_19DefaultGraphBuilderNtB7_12GraphBuilder20validate_source_data0B9_
FN:331,_RNvYNtNtCs4yQ6d7adrZY_10nexus_core17graph_correlation16CallGraphBuilderNtB4_12GraphBuilder20validate_source_dataB6_
FN:341,_RNvYNtNtCs4yQ6d7adrZY_10nexus_core17graph_correlation16CallGraphBuilderNtB4_12GraphBuilder6configB6_
FN:331,_RNvYNtNtCs4yQ6d7adrZY_10nexus_core17graph_correlation22DependencyGraphBuilderNtB4_12GraphBuilder20validate_source_dataB6_
FN:341,_RNvYNtNtCs4yQ6d7adrZY_10nexus_core17graph_correlation22DependencyGraphBuilderNtB4_12GraphBuilder6configB6_
FN:212,_RNvMNtCs4yQ6d7adrZY_10nexus_core17graph_correlationNtB2_16CorrelationGraph10statistics
FN:243,_RNvMNtCs4yQ6d7adrZY_10nexus_core17graph_correlationNtB2_16CorrelationGraph10to_graphml
FN:204,_RNvMNtCs4yQ6d7adrZY_10nexus_core17graph_correlationNtB2_16CorrelationGraph14get_node_edges
FN:134,_RNvMNtCs4yQ6d7adrZY_10nexus_core17graph_correlationNtB2_16CorrelationGraph3new
FN:237,_RNvMNtCs4yQ6d7adrZY_10nexus_core17graph_correlationNtB2_16CorrelationGraph7to_json
FN:164,_RNvMNtCs4yQ6d7adrZY_10nexus_core17graph_correlationNtB2_16CorrelationGraph8add_edge
FN:149,_RNvMNtCs4yQ6d7adrZY_10nexus_core17graph_correlationNtB2_16CorrelationGraph8add_node
FN:199,_RNvMNtCs4yQ6d7adrZY_10nexus_core17graph_correlationNtB2_16CorrelationGraph8get_edge
FN:194,_RNvMNtCs4yQ6d7adrZY_10nexus_core17graph_correlationNtB2_16CorrelationGraph8get_node
FN:399,_RNvMs1_NtCs4yQ6d7adrZY_10nexus_core17graph_correlationNtB5_16CallGraphBuilder3new
FN:507,_RNvMs3_NtCs4yQ6d7adrZY_10nexus_core17graph_correlationNtB5_22DependencyGraphBuilder3new
FN:696,_RNvMs6_NtCs4yQ6d7adrZY_10nexus_core17graph_correlationNtB5_19DefaultGraphBuilder10set_config
FN:686,_RNvMs6_NtCs4yQ6d7adrZY_10nexus_core17graph_correlationNtB5_19DefaultGraphBuilder11with_config
FN:701,_RNvMs6_NtCs4yQ6d7adrZY_10nexus_core17graph_correlationNtB5_19DefaultGraphBuilder16build_call_graph
FN:941,_RNvMs6_NtCs4yQ6d7adrZY_10nexus_core17graph_correlationNtB5_19DefaultGraphBuilder21build_component_graph
FN:893,_RNvMs6_NtCs4yQ6d7adrZY_10nexus_core17graph_correlationNtB5_19DefaultGraphBuilder21build_data_flow_graph
FN:811,_RNvMs6_NtCs4yQ6d7adrZY_10nexus_core17graph_correlationNtB5_19DefaultGraphBuilder22build_dependency_graph
FN:678,_RNvMs6_NtCs4yQ6d7adrZY_10nexus_core17graph_correlationNtB5_19DefaultGraphBuilder3new
FN:691,_RNvMs6_NtCs4yQ6d7adrZY_10nexus_core17graph_correlationNtB5_19DefaultGraphBuilder6config
FN:1099,_RNvMs8_NtCs4yQ6d7adrZY_10nexus_core17graph_correlationNtB5_23GraphCorrelationManager11build_graph
FN:1094,_RNvMs8_NtCs4yQ6d7adrZY_10nexus_core17graph_correlationNtB5_23GraphCorrelationManager16register_builder
FN:1112,_RNvMs8_NtCs4yQ6d7adrZY_10nexus_core17graph_correlationNtB5_23GraphCorrelationManager21available_graph_types
FN:1078,_RNvMs8_NtCs4yQ6d7adrZY_10nexus_core17graph_correlationNtB5_23GraphCorrelationManager3new
FN:381,_RNvMs_NtCs4yQ6d7adrZY_10nexus_core17graph_correlationNtB4_15GraphSourceData11add_imports
FN:376,_RNvMs_NtCs4yQ6d7adrZY_10nexus_core17graph_correlationNtB4_15GraphSourceData13add_functions
FN:361,_RNvMs_NtCs4yQ6d7adrZY_10nexus_core17graph_correlationNtB4_15GraphSourceData3new
FN:371,_RNvMs_NtCs4yQ6d7adrZY_10nexus_core17graph_correlationNtB4_15GraphSourceData8add_file
FN:387,_RNvXs0_NtCs4yQ6d7adrZY_10nexus_core17graph_correlationNtB5_15GraphSourceDataNtNtCs9Kp62OsN3pY_4core7default7Default7default
FN:478,_RNvXs2_NtCs4yQ6d7adrZY_10nexus_core17graph_correlationNtB5_16CallGraphBuilderNtB5_12GraphBuilder10graph_type
FN:486,_RNvXs2_NtCs4yQ6d7adrZY_10nexus_core17graph_correlationNtB5_16CallGraphBuilderNtB5_12GraphBuilder12capabilities
FN:456,_RNvXs2_NtCs4yQ6d7adrZY_10nexus_core17graph_correlationNtB5_16CallGraphBuilderNtB5_12GraphBuilder16build_call_graph
FN:472,_RNvXs2_NtCs4yQ6d7adrZY_10nexus_core17graph_correlationNtB5_16CallGraphBuilderNtB5_12GraphBuilder21build_component_graph
FN:466,_RNvXs2_NtCs4yQ6d7adrZY_10nexus_core17graph_correlationNtB5_16CallGraphBuilderNtB5_12GraphBuilder21build_data_flow_graph
FN:460,_RNvXs2_NtCs4yQ6d7adrZY_10nexus_core17graph_correlationNtB5_16CallGraphBuilderNtB5_12GraphBuilder22build_dependency_graph
FN:482,_RNvXs2_NtCs4yQ6d7adrZY_10nexus_core17graph_correlationNtB5_16CallGraphBuilderNtB5_12GraphBuilder4name
FN:405,_RNvXs2_NtCs4yQ6d7adrZY_10nexus_core17graph_correlationNtB5_16CallGraphBuilderNtB5_12GraphBuilder5build
FN:579,_RNvXs4_NtCs4yQ6d7adrZY_10nexus_core17graph_correlationNtB5_22DependencyGraphBuilderNtB5_12GraphBuilder10graph_type
FN:587,_RNvXs4_NtCs4yQ6d7adrZY_10nexus_core17graph_correlationNtB5_22DependencyGraphBuilderNtB5_12GraphBuilder12capabilities
FN:557,_RNvXs4_NtCs4yQ6d7adrZY_10nexus_core17graph_correlationNtB5_22DependencyGraphBuilderNtB5_12GraphBuilder16build_call_graph
FN:573,_RNvXs4_NtCs4yQ6d7adrZY_10nexus_core17graph_correlationNtB5_22DependencyGraphBuilderNtB5_12GraphBuilder21build_component_graph
FN:567,_RNvXs4_NtCs4yQ6d7adrZY_10nexus_core17graph_correlationNtB5_22DependencyGraphBuilderNtB5_12GraphBuilder21build_data_flow_graph
FN:563,_RNvXs4_NtCs4yQ6d7adrZY_10nexus_core17graph_correlationNtB5_22DependencyGraphBuilderNtB5_12GraphBuilder22build_dependency_graph
FN:583,_RNvXs4_NtCs4yQ6d7adrZY_10nexus_core17graph_correlationNtB5_22DependencyGraphBuilderNtB5_12GraphBuilder4name
FN:513,_RNvXs4_NtCs4yQ6d7adrZY_10nexus_core17graph_correlationNtB5_22DependencyGraphBuilderNtB5_12GraphBuilder5build
FN:659,_RNvXs5_NtCs4yQ6d7adrZY_10nexus_core17graph_correlationNtB5_18GraphBuilderConfigNtNtCs9Kp62OsN3pY_4core7default7Default7default
FN:1012,_RNvXs7_NtCs4yQ6d7adrZY_10nexus_core17graph_correlationNtB5_19DefaultGraphBuilderNtB5_12GraphBuilder10graph_type
FN:1020,_RNvXs7_NtCs4yQ6d7adrZY_10nexus_core17graph_correlationNtB5_19DefaultGraphBuilderNtB5_12GraphBuilder12capabilities
FN:996,_RNvXs7_NtCs4yQ6d7adrZY_10nexus_core17graph_correlationNtB5_19DefaultGraphBuilderNtB5_12GraphBuilder16build_call_graph
FN:1033,_RNvXs7_NtCs4yQ6d7adrZY_10nexus_core17graph_correlationNtB5_19DefaultGraphBuilderNtB5_12GraphBuilder20validate_source_data
FN:1008,_RNvXs7_NtCs4yQ6d7adrZY_10nexus_core17graph_correlationNtB5_19DefaultGraphBuilderNtB5_12GraphBuilder21build_component_graph
FN:1004,_RNvXs7_NtCs4yQ6d7adrZY_10nexus_core17graph_correlationNtB5_19DefaultGraphBuilderNtB5_12GraphBuilder21build_data_flow_graph
FN:1000,_RNvXs7_NtCs4yQ6d7adrZY_10nexus_core17graph_correlationNtB5_19DefaultGraphBuilderNtB5_12GraphBuilder22build_dependency_graph
FN:1016,_RNvXs7_NtCs4yQ6d7adrZY_10nexus_core17graph_correlationNtB5_19DefaultGraphBuilderNtB5_12GraphBuilder4name
FN:990,_RNvXs7_NtCs4yQ6d7adrZY_10nexus_core17graph_correlationNtB5_19DefaultGraphBuilderNtB5_12GraphBuilder5build
FN:1063,_RNvXs7_NtCs4yQ6d7adrZY_10nexus_core17graph_correlationNtB5_19DefaultGraphBuilderNtB5_12GraphBuilder6config
FN:1118,_RNvXs9_NtCs4yQ6d7adrZY_10nexus_core17graph_correlationNtB5_23GraphCorrelationManagerNtNtCs9Kp62OsN3pY_4core7default7Default7default
FN:1044,_RNCNvXs7_NtCs7bzfDg8Kx2o_10nexus_core17graph_correlationNtB7_19DefaultGraphBuilderNtB7_12GraphBuilder20validate_source_data0B9_
FN:696,_RNvMs6_NtCs7bzfDg8Kx2o_10nexus_core17graph_correlationNtB5_19DefaultGraphBuilder10set_config
FN:686,_RNvMs6_NtCs7bzfDg8Kx2o_10nexus_core17graph_correlationNtB5_19DefaultGraphBuilder11with_config
FN:701,_RNvMs6_NtCs7bzfDg8Kx2o_10nexus_core17graph_correlationNtB5_19DefaultGraphBuilder16build_call_graph
FN:941,_RNvMs6_NtCs7bzfDg8Kx2o_10nexus_core17graph_correlationNtB5_19DefaultGraphBuilder21build_component_graph
FN:893,_RNvMs6_NtCs7bzfDg8Kx2o_10nexus_core17graph_correlationNtB5_19DefaultGraphBuilder21build_data_flow_graph
FN:811,_RNvMs6_NtCs7bzfDg8Kx2o_10nexus_core17graph_correlationNtB5_19DefaultGraphBuilder22build_dependency_graph
FN:678,_RNvMs6_NtCs7bzfDg8Kx2o_10nexus_core17graph_correlationNtB5_19DefaultGraphBuilder3new
FN:691,_RNvMs6_NtCs7bzfDg8Kx2o_10nexus_core17graph_correlationNtB5_19DefaultGraphBuilder6config
FN:387,_RNvXs0_NtCs7bzfDg8Kx2o_10nexus_core17graph_correlationNtB5_15GraphSourceDataNtNtCs9Kp62OsN3pY_4core7default7Default7default
FN:659,_RNvXs5_NtCs7bzfDg8Kx2o_10nexus_core17graph_correlationNtB5_18GraphBuilderConfigNtNtCs9Kp62OsN3pY_4core7default7Default7default
FN:1012,_RNvXs7_NtCs7bzfDg8Kx2o_10nexus_core17graph_correlationNtB5_19DefaultGraphBuilderNtB5_12GraphBuilder10graph_type
FN:1020,_RNvXs7_NtCs7bzfDg8Kx2o_10nexus_core17graph_correlationNtB5_19DefaultGraphBuilderNtB5_12GraphBuilder12capabilities
FN:996,_RNvXs7_NtCs7bzfDg8Kx2o_10nexus_core17graph_correlationNtB5_19DefaultGraphBuilderNtB5_12GraphBuilder16build_call_graph
FN:1033,_RNvXs7_NtCs7bzfDg8Kx2o_10nexus_core17graph_correlationNtB5_19DefaultGraphBuilderNtB5_12GraphBuilder20validate_source_data
FN:1008,_RNvXs7_NtCs7bzfDg8Kx2o_10nexus_core17graph_correlationNtB5_19DefaultGraphBuilderNtB5_12GraphBuilder21build_component_graph
FN:1004,_RNvXs7_NtCs7bzfDg8Kx2o_10nexus_core17graph_correlationNtB5_19DefaultGraphBuilderNtB5_12GraphBuilder21build_data_flow_graph
FN:1000,_RNvXs7_NtCs7bzfDg8Kx2o_10nexus_core17graph_correlationNtB5_19DefaultGraphBuilderNtB5_12GraphBuilder22build_dependency_graph
FN:1016,_RNvXs7_NtCs7bzfDg8Kx2o_10nexus_core17graph_correlationNtB5_19DefaultGraphBuilderNtB5_12GraphBuilder4name
FN:990,_RNvXs7_NtCs7bzfDg8Kx2o_10nexus_core17graph_correlationNtB5_19DefaultGraphBuilderNtB5_12GraphBuilder5build
FN:1063,_RNvXs7_NtCs7bzfDg8Kx2o_10nexus_core17graph_correlationNtB5_19DefaultGraphBuilderNtB5_12GraphBuilder6config
FN:1118,_RNvXs9_NtCs7bzfDg8Kx2o_10nexus_core17graph_correlationNtB5_23GraphCorrelationManagerNtNtCs9Kp62OsN3pY_4core7default7Default7default
FN:326,_RNvYpNtNtCs7bzfDg8Kx2o_10nexus_core17graph_correlation12GraphBuilder12capabilitiesB7_
FN:296,_RNvYpNtNtCs7bzfDg8Kx2o_10nexus_core17graph_correlation12GraphBuilder16build_call_graphB7_
FN:314,_RNvYpNtNtCs7bzfDg8Kx2o_10nexus_core17graph_correlation12GraphBuilder21build_component_graphB7_
FN:308,_RNvYpNtNtCs7bzfDg8Kx2o_10nexus_core17graph_correlation12GraphBuilder21build_data_flow_graphB7_
FN:302,_RNvYpNtNtCs7bzfDg8Kx2o_10nexus_core17graph_correlation12GraphBuilder22build_dependency_graphB7_
FN:224,_RNCNvMNtCs7bzfDg8Kx2o_10nexus_core17graph_correlationNtB4_16CorrelationGraph10statistics0B6_
FN:207,_RNCNvMNtCs7bzfDg8Kx2o_10nexus_core17graph_correlationNtB4_16CorrelationGraph14get_node_edges0B6_
FN:239,_RNCNvMNtCs7bzfDg8Kx2o_10nexus_core17graph_correlationNtB4_16CorrelationGraph7to_json0B6_
FN:166,_RNCNvMNtCs7bzfDg8Kx2o_10nexus_core17graph_correlationNtB4_16CorrelationGraph8add_edge0B6_
FN:181,_RNCNvMNtCs7bzfDg8Kx2o_10nexus_core17graph_correlationNtB4_16CorrelationGraph8add_edges0_0B6_
FN:174,_RNCNvMNtCs7bzfDg8Kx2o_10nexus_core17graph_correlationNtB4_16CorrelationGraph8add_edges_0B6_
FN:151,_RNCNvMNtCs7bzfDg8Kx2o_10nexus_core17graph_correlationNtB4_16CorrelationGraph8add_node0B6_
FN:200,_RNCNvMNtCs7bzfDg8Kx2o_10nexus_core17graph_correlationNtB4_16CorrelationGraph8get_edge0B6_
FN:195,_RNCNvMNtCs7bzfDg8Kx2o_10nexus_core17graph_correlationNtB4_16CorrelationGraph8get_node0B6_
FN:1104,_RNCNvMs8_NtCs7bzfDg8Kx2o_10nexus_core17graph_correlationNtB7_23GraphCorrelationManager11build_graph0B9_
FN:331,_RNvYNtNtCs7bzfDg8Kx2o_10nexus_core17graph_correlation16CallGraphBuilderNtB4_12GraphBuilder20validate_source_dataB6_
FN:341,_RNvYNtNtCs7bzfDg8Kx2o_10nexus_core17graph_correlation16CallGraphBuilderNtB4_12GraphBuilder6configB6_
FN:331,_RNvYNtNtCs7bzfDg8Kx2o_10nexus_core17graph_correlation22DependencyGraphBuilderNtB4_12GraphBuilder20validate_source_dataB6_
FN:341,_RNvYNtNtCs7bzfDg8Kx2o_10nexus_core17graph_correlation22DependencyGraphBuilderNtB4_12GraphBuilder6configB6_
FN:212,_RNvMNtCs7bzfDg8Kx2o_10nexus_core17graph_correlationNtB2_16CorrelationGraph10statistics
FN:243,_RNvMNtCs7bzfDg8Kx2o_10nexus_core17graph_correlationNtB2_16CorrelationGraph10to_graphml
FN:204,_RNvMNtCs7bzfDg8Kx2o_10nexus_core17graph_correlationNtB2_16CorrelationGraph14get_node_edges
FN:134,_RNvMNtCs7bzfDg8Kx2o_10nexus_core17graph_correlationNtB2_16CorrelationGraph3new
FN:237,_RNvMNtCs7bzfDg8Kx2o_10nexus_core17graph_correlationNtB2_16CorrelationGraph7to_json
FN:164,_RNvMNtCs7bzfDg8Kx2o_10nexus_core17graph_correlationNtB2_16CorrelationGraph8add_edge
FN:149,_RNvMNtCs7bzfDg8Kx2o_10nexus_core17graph_correlationNtB2_16CorrelationGraph8add_node
FN:199,_RNvMNtCs7bzfDg8Kx2o_10nexus_core17graph_correlationNtB2_16CorrelationGraph8get_edge
FN:194,_RNvMNtCs7bzfDg8Kx2o_10nexus_core17graph_correlationNtB2_16CorrelationGraph8get_node
FN:399,_RNvMs1_NtCs7bzfDg8Kx2o_10nexus_core17graph_correlationNtB5_16CallGraphBuilder3new
FN:507,_RNvMs3_NtCs7bzfDg8Kx2o_10nexus_core17graph_correlationNtB5_22DependencyGraphBuilder3new
FN:1099,_RNvMs8_NtCs7bzfDg8Kx2o_10nexus_core17graph_correlationNtB5_23GraphCorrelationManager11build_graph
FN:1094,_RNvMs8_NtCs7bzfDg8Kx2o_10nexus_core17graph_correlationNtB5_23GraphCorrelationManager16register_builder
FN:1112,_RNvMs8_NtCs7bzfDg8Kx2o_10nexus_core17graph_correlationNtB5_23GraphCorrelationManager21available_graph_types
FN:1078,_RNvMs8_NtCs7bzfDg8Kx2o_10nexus_core17graph_correlationNtB5_23GraphCorrelationManager3new
FN:381,_RNvMs_NtCs7bzfDg8Kx2o_10nexus_core17graph_correlationNtB4_15GraphSourceData11add_imports
FN:376,_RNvMs_NtCs7bzfDg8Kx2o_10nexus_core17graph_correlationNtB4_15GraphSourceData13add_functions
FN:361,_RNvMs_NtCs7bzfDg8Kx2o_10nexus_core17graph_correlationNtB4_15GraphSourceData3new
FN:371,_RNvMs_NtCs7bzfDg8Kx2o_10nexus_core17graph_correlationNtB4_15GraphSourceData8add_file
FN:478,_RNvXs2_NtCs7bzfDg8Kx2o_10nexus_core17graph_correlationNtB5_16CallGraphBuilderNtB5_12GraphBuilder10graph_type
FN:486,_RNvXs2_NtCs7bzfDg8Kx2o_10nexus_core17graph_correlationNtB5_16CallGraphBuilderNtB5_12GraphBuilder12capabilities
FN:456,_RNvXs2_NtCs7bzfDg8Kx2o_10nexus_core17graph_correlationNtB5_16CallGraphBuilderNtB5_12GraphBuilder16build_call_graph
FN:472,_RNvXs2_NtCs7bzfDg8Kx2o_10nexus_core17graph_correlationNtB5_16CallGraphBuilderNtB5_12GraphBuilder21build_component_graph
FN:466,_RNvXs2_NtCs7bzfDg8Kx2o_10nexus_core17graph_correlationNtB5_16CallGraphBuilderNtB5_12GraphBuilder21build_data_flow_graph
FN:460,_RNvXs2_NtCs7bzfDg8Kx2o_10nexus_core17graph_correlationNtB5_16CallGraphBuilderNtB5_12GraphBuilder22build_dependency_graph
FN:482,_RNvXs2_NtCs7bzfDg8Kx2o_10nexus_core17graph_correlationNtB5_16CallGraphBuilderNtB5_12GraphBuilder4name
FN:405,_RNvXs2_NtCs7bzfDg8Kx2o_10nexus_core17graph_correlationNtB5_16CallGraphBuilderNtB5_12GraphBuilder5build
FN:579,_RNvXs4_NtCs7bzfDg8Kx2o_10nexus_core17graph_correlationNtB5_22DependencyGraphBuilderNtB5_12GraphBuilder10graph_type
FN:587,_RNvXs4_NtCs7bzfDg8Kx2o_10nexus_core17graph_correlationNtB5_22DependencyGraphBuilderNtB5_12GraphBuilder12capabilities
FN:557,_RNvXs4_NtCs7bzfDg8Kx2o_10nexus_core17graph_correlationNtB5_22DependencyGraphBuilderNtB5_12GraphBuilder16build_call_graph
FN:573,_RNvXs4_NtCs7bzfDg8Kx2o_10nexus_core17graph_correlationNtB5_22DependencyGraphBuilderNtB5_12GraphBuilder21build_component_graph
FN:567,_RNvXs4_NtCs7bzfDg8Kx2o_10nexus_core17graph_correlationNtB5_22DependencyGraphBuilderNtB5_12GraphBuilder21build_data_flow_graph
FN:563,_RNvXs4_NtCs7bzfDg8Kx2o_10nexus_core17graph_correlationNtB5_22DependencyGraphBuilderNtB5_12GraphBuilder22build_dependency_graph
FN:583,_RNvXs4_NtCs7bzfDg8Kx2o_10nexus_core17graph_correlationNtB5_22DependencyGraphBuilderNtB5_12GraphBuilder4name
FN:513,_RNvXs4_NtCs7bzfDg8Kx2o_10nexus_core17graph_correlationNtB5_22DependencyGraphBuilderNtB5_12GraphBuilder5build
FN:1156,_RNvNtNtCs7bzfDg8Kx2o_10nexus_core17graph_correlation5testss_13test_add_edge
FN:1137,_RNvNtNtCs7bzfDg8Kx2o_10nexus_core17graph_correlation5testss_13test_add_node
FN:1319,_RNvNtNtCs7bzfDg8Kx2o_10nexus_core17graph_correlation5testss_16test_json_export
FN:1558,_RNvNtNtCs7bzfDg8Kx2o_10nexus_core17graph_correlation5testss_19test_edge_type_copy
FN:1339,_RNvNtNtCs7bzfDg8Kx2o_10nexus_core17graph_correlation5testss_19test_graphml_export
FN:1401,_RNvNtNtCs7bzfDg8Kx2o_10nexus_core17graph_correlation5testss_19test_node_type_copy
FN:1551,_RNvNtNtCs7bzfDg8Kx2o_10nexus_core17graph_correlation5testss_20test_edge_type_clone
FN:1394,_RNvNtNtCs7bzfDg8Kx2o_10nexus_core17graph_correlation5testss_20test_node_type_clone
FN:1245,_RNvNtNtCs7bzfDg8Kx2o_10nexus_core17graph_correlation5testss_21test_graph_statistics
FN:1200,_RNvNtNtCs7bzfDg8Kx2o_10nexus_core17graph_correlation5testss_22test_duplicate_node_id
FN:1281,_RNvNtNtCs7bzfDg8Kx2o_10nexus_core17graph_correlation5testss_23test_call_graph_builder
FN:1530,_RNvNtNtCs7bzfDg8Kx2o_10nexus_core17graph_correlation5testss_23test_edge_type_equality
FN:1377,_RNvNtNtCs7bzfDg8Kx2o_10nexus_core17graph_correlation5testss_23test_node_type_equality
FN:1743,_RNvNtNtCs7bzfDg8Kx2o_10nexus_core17graph_correlation5testss_24test_graph_edge_creation
FN:1929,_RNvNtNtCs7bzfDg8Kx2o_10nexus_core17graph_correlation5testss_24test_graph_edge_metadata
FN:1705,_RNvNtNtCs7bzfDg8Kx2o_10nexus_core17graph_correlation5testss_24test_graph_node_creation
FN:1901,_RNvNtNtCs7bzfDg8Kx2o_10nexus_core17graph_correlation5testss_24test_graph_node_metadata
FN:1849,_RNvNtNtCs7bzfDg8Kx2o_10nexus_core17graph_correlation5testss_24test_graph_serialization
FN:1676,_RNvNtNtCs7bzfDg8Kx2o_10nexus_core17graph_correlation5testss_24test_graph_type_variants
FN:2045,_RNvNtNtCs7bzfDg8Kx2o_10nexus_core17graph_correlation5testss_25test_graph_error_handling
FN:1651,_RNvNtNtCs7bzfDg8Kx2o_10nexus_core17graph_correlation5testss_27test_edge_type_all_variants
FN:2087,_RNvNtNtCs7bzfDg8Kx2o_10nexus_core17graph_correlation5testss_27test_graph_clear_operations
FN:1486,_RNvNtNtCs7bzfDg8Kx2o_10nexus_core17graph_correlation5testss_27test_node_type_all_variants
FN:1509,_RNvNtNtCs7bzfDg8Kx2o_10nexus_core17graph_correlation5testss_28test_edge_type_enum_variants
FN:1617,_RNvNtNtCs7bzfDg8Kx2o_10nexus_core17graph_correlation5testss_28test_edge_type_in_graph_edge
FN:1566,_RNvNtNtCs7bzfDg8Kx2o_10nexus_core17graph_correlation5testss_28test_edge_type_serialization
FN:1360,_RNvNtNtCs7bzfDg8Kx2o_10nexus_core17graph_correlation5testss_28test_node_type_enum_variants
FN:1454,_RNvNtNtCs7bzfDg8Kx2o_10nexus_core17graph_correlation5testss_28test_node_type_in_graph_node
FN:1409,_RNvNtNtCs7bzfDg8Kx2o_10nexus_core17graph_correlation5testss_28test_node_type_serialization
FN:1295,_RNvNtNtCs7bzfDg8Kx2o_10nexus_core17graph_correlation5testss_29test_dependency_graph_builder
FN:1963,_RNvNtNtCs7bzfDg8Kx2o_10nexus_core17graph_correlation5testss_29test_graph_manager_operations
FN:1597,_RNvNtNtCs7bzfDg8Kx2o_10nexus_core17graph_correlation5testss_30test_edge_type_deserialization
FN:1310,_RNvNtNtCs7bzfDg8Kx2o_10nexus_core17graph_correlation5testss_30test_graph_correlation_manager
FN:1436,_RNvNtNtCs7bzfDg8Kx2o_10nexus_core17graph_correlation5testss_30test_node_type_deserialization
FN:1128,_RNvNtNtCs7bzfDg8Kx2o_10nexus_core17graph_correlation5testss_31test_correlation_graph_creation
FN:1634,_RNvNtNtCs7bzfDg8Kx2o_10nexus_core17graph_correlation5testss_31test_edge_type_pattern_matching
FN:1228,_RNvNtNtCs7bzfDg8Kx2o_10nexus_core17graph_correlation5testss_31test_edge_with_nonexistent_node
FN:1471,_RNvNtNtCs7bzfDg8Kx2o_10nexus_core17graph_correlation5testss_31test_node_type_pattern_matching
FN:1784,_RNvNtNtCs7bzfDg8Kx2o_10nexus_core17graph_correlation5testss_33test_graph_statistics_calculation
FN:1982,_RNvNtNtCs7bzfDg8Kx2o_10nexus_core17graph_correlation5testss_35test_graph_visualization_properties
FNDA:0,_RNCNvMNtCs4yQ6d7adrZY_10nexus_core17graph_correlationNtB4_16CorrelationGraph10statistics0B6_
FNDA:0,_RNCNvMNtCs4yQ6d7adrZY_10nexus_core17graph_correlationNtB4_16CorrelationGraph14get_node_edges0B6_
FNDA:0,_RNCNvMNtCs4yQ6d7adrZY_10nexus_core17graph_correlationNtB4_16CorrelationGraph7to_json0B6_
FNDA:0,_RNCNvMNtCs4yQ6d7adrZY_10nexus_core17graph_correlationNtB4_16CorrelationGraph8add_edge0B6_
FNDA:0,_RNCNvMNtCs4yQ6d7adrZY_10nexus_core17graph_correlationNtB4_16CorrelationGraph8add_edges0_0B6_
FNDA:0,_RNCNvMNtCs4yQ6d7adrZY_10nexus_core17graph_correlationNtB4_16CorrelationGraph8add_edges_0B6_
FNDA:0,_RNCNvMNtCs4yQ6d7adrZY_10nexus_core17graph_correlationNtB4_16CorrelationGraph8add_node0B6_
FNDA:0,_RNCNvMNtCs4yQ6d7adrZY_10nexus_core17graph_correlationNtB4_16CorrelationGraph8get_edge0B6_
FNDA:0,_RNCNvMNtCs4yQ6d7adrZY_10nexus_core17graph_correlationNtB4_16CorrelationGraph8get_node0B6_
FNDA:0,_RNCNvMs8_NtCs4yQ6d7adrZY_10nexus_core17graph_correlationNtB7_23GraphCorrelationManager11build_graph0B9_
FNDA:0,_RNCNvXs7_NtCs4yQ6d7adrZY_10nexus_core17graph_correlationNtB7_19DefaultGraphBuilderNtB7_12GraphBuilder20validate_source_data0B9_
FNDA:0,_RNvYNtNtCs4yQ6d7adrZY_10nexus_core17graph_correlation16CallGraphBuilderNtB4_12GraphBuilder20validate_source_dataB6_
FNDA:0,_RNvYNtNtCs4yQ6d7adrZY_10nexus_core17graph_correlation16CallGraphBuilderNtB4_12GraphBuilder6configB6_
FNDA:0,_RNvYNtNtCs4yQ6d7adrZY_10nexus_core17graph_correlation22DependencyGraphBuilderNtB4_12GraphBuilder20validate_source_dataB6_
FNDA:0,_RNvYNtNtCs4yQ6d7adrZY_10nexus_core17graph_correlation22DependencyGraphBuilderNtB4_12GraphBuilder6configB6_
FNDA:0,_RNvMNtCs4yQ6d7adrZY_10nexus_core17graph_correlationNtB2_16CorrelationGraph10statistics
FNDA:0,_RNvMNtCs4yQ6d7adrZY_10nexus_core17graph_correlationNtB2_16CorrelationGraph10to_graphml
FNDA:0,_RNvMNtCs4yQ6d7adrZY_10nexus_core17graph_correlationNtB2_16CorrelationGraph14get_node_edges
FNDA:0,_RNvMNtCs4yQ6d7adrZY_10nexus_core17graph_correlationNtB2_16CorrelationGraph3new
FNDA:0,_RNvMNtCs4yQ6d7adrZY_10nexus_core17graph_correlationNtB2_16CorrelationGraph7to_json
FNDA:0,_RNvMNtCs4yQ6d7adrZY_10nexus_core17graph_correlationNtB2_16CorrelationGraph8add_edge
FNDA:0,_RNvMNtCs4yQ6d7adrZY_10nexus_core17graph_correlationNtB2_16CorrelationGraph8add_node
FNDA:0,_RNvMNtCs4yQ6d7adrZY_10nexus_core17graph_correlationNtB2_16CorrelationGraph8get_edge
FNDA:0,_RNvMNtCs4yQ6d7adrZY_10nexus_core17graph_correlationNtB2_16CorrelationGraph8get_node
FNDA:0,_RNvMs1_NtCs4yQ6d7adrZY_10nexus_core17graph_correlationNtB5_16CallGraphBuilder3new
FNDA:0,_RNvMs3_NtCs4yQ6d7adrZY_10nexus_core17graph_correlationNtB5_22DependencyGraphBuilder3new
FNDA:0,_RNvMs6_NtCs4yQ6d7adrZY_10nexus_core17graph_correlationNtB5_19DefaultGraphBuilder10set_config
FNDA:0,_RNvMs6_NtCs4yQ6d7adrZY_10nexus_core17graph_correlationNtB5_19DefaultGraphBuilder11with_config
FNDA:0,_RNvMs6_NtCs4yQ6d7adrZY_10nexus_core17graph_correlationNtB5_19DefaultGraphBuilder16build_call_graph
FNDA:0,_RNvMs6_NtCs4yQ6d7adrZY_10nexus_core17graph_correlationNtB5_19DefaultGraphBuilder21build_component_graph
FNDA:0,_RNvMs6_NtCs4yQ6d7adrZY_10nexus_core17graph_correlationNtB5_19DefaultGraphBuilder21build_data_flow_graph
FNDA:0,_RNvMs6_NtCs4yQ6d7adrZY_10nexus_core17graph_correlationNtB5_19DefaultGraphBuilder22build_dependency_graph
FNDA:0,_RNvMs6_NtCs4yQ6d7adrZY_10nexus_core17graph_correlationNtB5_19DefaultGraphBuilder3new
FNDA:0,_RNvMs6_NtCs4yQ6d7adrZY_10nexus_core17graph_correlationNtB5_19DefaultGraphBuilder6config
FNDA:0,_RNvMs8_NtCs4yQ6d7adrZY_10nexus_core17graph_correlationNtB5_23GraphCorrelationManager11build_graph
FNDA:0,_RNvMs8_NtCs4yQ6d7adrZY_10nexus_core17graph_correlationNtB5_23GraphCorrelationManager16register_builder
FNDA:0,_RNvMs8_NtCs4yQ6d7adrZY_10nexus_core17graph_correlationNtB5_23GraphCorrelationManager21available_graph_types
FNDA:0,_RNvMs8_NtCs4yQ6d7adrZY_10nexus_core17graph_correlationNtB5_23GraphCorrelationManager3new
FNDA:0,_RNvMs_NtCs4yQ6d7adrZY_10nexus_core17graph_correlationNtB4_15GraphSourceData11add_imports
FNDA:0,_RNvMs_NtCs4yQ6d7adrZY_10nexus_core17graph_correlationNtB4_15GraphSourceData13add_functions
FNDA:0,_RNvMs_NtCs4yQ6d7adrZY_10nexus_core17graph_correlationNtB4_15GraphSourceData3new
FNDA:0,_RNvMs_NtCs4yQ6d7adrZY_10nexus_core17graph_correlationNtB4_15GraphSourceData8add_file
FNDA:0,_RNvXs0_NtCs4yQ6d7adrZY_10nexus_core17graph_correlationNtB5_15GraphSourceDataNtNtCs9Kp62OsN3pY_4core7default7Default7default
FNDA:0,_RNvXs2_NtCs4yQ6d7adrZY_10nexus_core17graph_correlationNtB5_16CallGraphBuilderNtB5_12GraphBuilder10graph_type
FNDA:0,_RNvXs2_NtCs4yQ6d7adrZY_10nexus_core17graph_correlationNtB5_16CallGraphBuilderNtB5_12GraphBuilder12capabilities
FNDA:0,_RNvXs2_NtCs4yQ6d7adrZY_10nexus_core17graph_correlationNtB5_16CallGraphBuilderNtB5_12GraphBuilder16build_call_graph
FNDA:0,_RNvXs2_NtCs4yQ6d7adrZY_10nexus_core17graph_correlationNtB5_16CallGraphBuilderNtB5_12GraphBuilder21build_component_graph
FNDA:0,_RNvXs2_NtCs4yQ6d7adrZY_10nexus_core17graph_correlationNtB5_16CallGraphBuilderNtB5_12GraphBuilder21build_data_flow_graph
FNDA:0,_RNvXs2_NtCs4yQ6d7adrZY_10nexus_core17graph_correlationNtB5_16CallGraphBuilderNtB5_12GraphBuilder22build_dependency_graph
FNDA:0,_RNvXs2_NtCs4yQ6d7adrZY_10nexus_core17graph_correlationNtB5_16CallGraphBuilderNtB5_12GraphBuilder4name
FNDA:0,_RNvXs2_NtCs4yQ6d7adrZY_10nexus_core17graph_correlationNtB5_16CallGraphBuilderNtB5_12GraphBuilder5build
FNDA:0,_RNvXs4_NtCs4yQ6d7adrZY_10nexus_core17graph_correlationNtB5_22DependencyGraphBuilderNtB5_12GraphBuilder10graph_type
FNDA:0,_RNvXs4_NtCs4yQ6d7adrZY_10nexus_core17graph_correlationNtB5_22DependencyGraphBuilderNtB5_12GraphBuilder12capabilities
FNDA:0,_RNvXs4_NtCs4yQ6d7adrZY_10nexus_core17graph_correlationNtB5_22DependencyGraphBuilderNtB5_12GraphBuilder16build_call_graph
FNDA:0,_RNvXs4_NtCs4yQ6d7adrZY_10nexus_core17graph_correlationNtB5_22DependencyGraphBuilderNtB5_12GraphBuilder21build_component_graph
FNDA:0,_RNvXs4_NtCs4yQ6d7adrZY_10nexus_core17graph_correlationNtB5_22DependencyGraphBuilderNtB5_12GraphBuilder21build_data_flow_graph
FNDA:0,_RNvXs4_NtCs4yQ6d7adrZY_10nexus_core17graph_correlationNtB5_22DependencyGraphBuilderNtB5_12GraphBuilder22build_dependency_graph
FNDA:0,_RNvXs4_NtCs4yQ6d7adrZY_10nexus_core17graph_correlationNtB5_22DependencyGraphBuilderNtB5_12GraphBuilder4name
FNDA:0,_RNvXs4_NtCs4yQ6d7adrZY_10nexus_core17graph_correlationNtB5_22DependencyGraphBuilderNtB5_12GraphBuilder5build
FNDA:0,_RNvXs5_NtCs4yQ6d7adrZY_10nexus_core17graph_correlationNtB5_18GraphBuilderConfigNtNtCs9Kp62OsN3pY_4core7default7Default7default
FNDA:0,_RNvXs7_NtCs4yQ6d7adrZY_10nexus_core17graph_correlationNtB5_19DefaultGraphBuilderNtB5_12GraphBuilder10graph_type
FNDA:0,_RNvXs7_NtCs4yQ6d7adrZY_10nexus_core17graph_correlationNtB5_19DefaultGraphBuilderNtB5_12GraphBuilder12capabilities
FNDA:0,_RNvXs7_NtCs4yQ6d7adrZY_10nexus_core17graph_correlationNtB5_19DefaultGraphBuilderNtB5_12GraphBuilder16build_call_graph
FNDA:0,_RNvXs7_NtCs4yQ6d7adrZY_10nexus_core17graph_correlationNtB5_19DefaultGraphBuilderNtB5_12GraphBuilder20validate_source_data
FNDA:0,_RNvXs7_NtCs4yQ6d7adrZY_10nexus_core17graph_correlationNtB5_19DefaultGraphBuilderNtB5_12GraphBuilder21build_component_graph
FNDA:0,_RNvXs7_NtCs4yQ6d7adrZY_10nexus_core17graph_correlationNtB5_19DefaultGraphBuilderNtB5_12GraphBuilder21build_data_flow_graph
FNDA:0,_RNvXs7_NtCs4yQ6d7adrZY_10nexus_core17graph_correlationNtB5_19DefaultGraphBuilderNtB5_12GraphBuilder22build_dependency_graph
FNDA:0,_RNvXs7_NtCs4yQ6d7adrZY_10nexus_core17graph_correlationNtB5_19DefaultGraphBuilderNtB5_12GraphBuilder4name
FNDA:0,_RNvXs7_NtCs4yQ6d7adrZY_10nexus_core17graph_correlationNtB5_19DefaultGraphBuilderNtB5_12GraphBuilder5build
FNDA:0,_RNvXs7_NtCs4yQ6d7adrZY_10nexus_core17graph_correlationNtB5_19DefaultGraphBuilderNtB5_12GraphBuilder6config
FNDA:0,_RNvXs9_NtCs4yQ6d7adrZY_10nexus_core17graph_correlationNtB5_23GraphCorrelationManagerNtNtCs9Kp62OsN3pY_4core7default7Default7default
FNDA:0,_RNCNvXs7_NtCs7bzfDg8Kx2o_10nexus_core17graph_correlationNtB7_19DefaultGraphBuilderNtB7_12GraphBuilder20validate_source_data0B9_
FNDA:0,_RNvMs6_NtCs7bzfDg8Kx2o_10nexus_core17graph_correlationNtB5_19DefaultGraphBuilder10set_config
FNDA:0,_RNvMs6_NtCs7bzfDg8Kx2o_10nexus_core17graph_correlationNtB5_19DefaultGraphBuilder11with_config
FNDA:0,_RNvMs6_NtCs7bzfDg8Kx2o_10nexus_core17graph_correlationNtB5_19DefaultGraphBuilder16build_call_graph
FNDA:0,_RNvMs6_NtCs7bzfDg8Kx2o_10nexus_core17graph_correlationNtB5_19DefaultGraphBuilder21build_component_graph
FNDA:0,_RNvMs6_NtCs7bzfDg8Kx2o_10nexus_core17graph_correlationNtB5_19DefaultGraphBuilder21build_data_flow_graph
FNDA:0,_RNvMs6_NtCs7bzfDg8Kx2o_10nexus_core17graph_correlationNtB5_19DefaultGraphBuilder22build_dependency_graph
FNDA:0,_RNvMs6_NtCs7bzfDg8Kx2o_10nexus_core17graph_correlationNtB5_19DefaultGraphBuilder3new
FNDA:0,_RNvMs6_NtCs7bzfDg8Kx2o_10nexus_core17graph_correlationNtB5_19DefaultGraphBuilder6config
FNDA:0,_RNvXs0_NtCs7bzfDg8Kx2o_10nexus_core17graph_correlationNtB5_15GraphSourceDataNtNtCs9Kp62OsN3pY_4core7default7Default7default
FNDA:0,_RNvXs5_NtCs7bzfDg8Kx2o_10nexus_core17graph_correlationNtB5_18GraphBuilderConfigNtNtCs9Kp62OsN3pY_4core7default7Default7default
FNDA:0,_RNvXs7_NtCs7bzfDg8Kx2o_10nexus_core17graph_correlationNtB5_19DefaultGraphBuilderNtB5_12GraphBuilder10graph_type
FNDA:0,_RNvXs7_NtCs7bzfDg8Kx2o_10nexus_core17graph_correlationNtB5_19DefaultGraphBuilderNtB5_12GraphBuilder12capabilities
FNDA:0,_RNvXs7_NtCs7bzfDg8Kx2o_10nexus_core17graph_correlationNtB5_19DefaultGraphBuilderNtB5_12GraphBuilder16build_call_graph
FNDA:0,_RNvXs7_NtCs7bzfDg8Kx2o_10nexus_core17graph_correlationNtB5_19DefaultGraphBuilderNtB5_12GraphBuilder20validate_source_data
FNDA:0,_RNvXs7_NtCs7bzfDg8Kx2o_10nexus_core17graph_correlationNtB5_19DefaultGraphBuilderNtB5_12GraphBuilder21build_component_graph
FNDA:0,_RNvXs7_NtCs7bzfDg8Kx2o_10nexus_core17graph_correlationNtB5_19DefaultGraphBuilderNtB5_12GraphBuilder21build_data_flow_graph
FNDA:0,_RNvXs7_NtCs7bzfDg8Kx2o_10nexus_core17graph_correlationNtB5_19DefaultGraphBuilderNtB5_12GraphBuilder22build_dependency_graph
FNDA:0,_RNvXs7_NtCs7bzfDg8Kx2o_10nexus_core17graph_correlationNtB5_19DefaultGraphBuilderNtB5_12GraphBuilder4name
FNDA:0,_RNvXs7_NtCs7bzfDg8Kx2o_10nexus_core17graph_correlationNtB5_19DefaultGraphBuilderNtB5_12GraphBuilder5build
FNDA:0,_RNvXs7_NtCs7bzfDg8Kx2o_10nexus_core17graph_correlationNtB5_19DefaultGraphBuilderNtB5_12GraphBuilder6config
FNDA:0,_RNvXs9_NtCs7bzfDg8Kx2o_10nexus_core17graph_correlationNtB5_23GraphCorrelationManagerNtNtCs9Kp62OsN3pY_4core7default7Default7default
FNDA:0,_RNvYpNtNtCs7bzfDg8Kx2o_10nexus_core17graph_correlation12GraphBuilder12capabilitiesB7_
FNDA:0,_RNvYpNtNtCs7bzfDg8Kx2o_10nexus_core17graph_correlation12GraphBuilder16build_call_graphB7_
FNDA:0,_RNvYpNtNtCs7bzfDg8Kx2o_10nexus_core17graph_correlation12GraphBuilder21build_component_graphB7_
FNDA:0,_RNvYpNtNtCs7bzfDg8Kx2o_10nexus_core17graph_correlation12GraphBuilder21build_data_flow_graphB7_
FNDA:0,_RNvYpNtNtCs7bzfDg8Kx2o_10nexus_core17graph_correlation12GraphBuilder22build_dependency_graphB7_
FNDA:9,_RNCNvMNtCs7bzfDg8Kx2o_10nexus_core17graph_correlationNtB4_16CorrelationGraph10statistics0B6_
FNDA:11,_RNCNvMNtCs7bzfDg8Kx2o_10nexus_core17graph_correlationNtB4_16CorrelationGraph14get_node_edges0B6_
FNDA:0,_RNCNvMNtCs7bzfDg8Kx2o_10nexus_core17graph_correlationNtB4_16CorrelationGraph7to_json0B6_
FNDA:1,_RNCNvMNtCs7bzfDg8Kx2o_10nexus_core17graph_correlationNtB4_16CorrelationGraph8add_edge0B6_
FNDA:19,_RNCNvMNtCs7bzfDg8Kx2o_10nexus_core17graph_correlationNtB4_16CorrelationGraph8add_edges0_0B6_
FNDA:11,_RNCNvMNtCs7bzfDg8Kx2o_10nexus_core17graph_correlationNtB4_16CorrelationGraph8add_edges_0B6_
FNDA:14,_RNCNvMNtCs7bzfDg8Kx2o_10nexus_core17graph_correlationNtB4_16CorrelationGraph8add_node0B6_
FNDA:1,_RNCNvMNtCs7bzfDg8Kx2o_10nexus_core17graph_correlationNtB4_16CorrelationGraph8get_edge0B6_
FNDA:1,_RNCNvMNtCs7bzfDg8Kx2o_10nexus_core17graph_correlationNtB4_16CorrelationGraph8get_node0B6_
FNDA:0,_RNCNvMs8_NtCs7bzfDg8Kx2o_10nexus_core17graph_correlationNtB7_23GraphCorrelationManager11build_graph0B9_
FNDA:0,_RNvYNtNtCs7bzfDg8Kx2o_10nexus_core17graph_correlation16CallGraphBuilderNtB4_12GraphBuilder20validate_source_dataB6_
FNDA:0,_RNvYNtNtCs7bzfDg8Kx2o_10nexus_core17graph_correlation16CallGraphBuilderNtB4_12GraphBuilder6configB6_
FNDA:0,_RNvYNtNtCs7bzfDg8Kx2o_10nexus_core17graph_correlation22DependencyGraphBuilderNtB4_12GraphBuilder20validate_source_dataB6_
FNDA:0,_RNvYNtNtCs7bzfDg8Kx2o_10nexus_core17graph_correlation22DependencyGraphBuilderNtB4_12GraphBuilder6configB6_
FNDA:5,_RNvMNtCs7bzfDg8Kx2o_10nexus_core17graph_correlationNtB2_16CorrelationGraph10statistics
FNDA:1,_RNvMNtCs7bzfDg8Kx2o_10nexus_core17graph_correlationNtB2_16CorrelationGraph10to_graphml
FNDA:9,_RNvMNtCs7bzfDg8Kx2o_10nexus_core17graph_correlationNtB2_16CorrelationGraph14get_node_edges
FNDA:17,_RNvMNtCs7bzfDg8Kx2o_10nexus_core17graph_correlationNtB2_16CorrelationGraph3new
FNDA:2,_RNvMNtCs7bzfDg8Kx2o_10nexus_core17graph_correlationNtB2_16CorrelationGraph7to_json
FNDA:11,_RNvMNtCs7bzfDg8Kx2o_10nexus_core17graph_correlationNtB2_16CorrelationGraph8add_edge
FNDA:26,_RNvMNtCs7bzfDg8Kx2o_10nexus_core17graph_correlationNtB2_16CorrelationGraph8add_node
FNDA:1,_RNvMNtCs7bzfDg8Kx2o_10nexus_core17graph_correlationNtB2_16CorrelationGraph8get_edge
FNDA:1,_RNvMNtCs7bzfDg8Kx2o_10nexus_core17graph_correlationNtB2_16CorrelationGraph8get_node
FNDA:3,_RNvMs1_NtCs7bzfDg8Kx2o_10nexus_core17graph_correlationNtB5_16CallGraphBuilder3new
FNDA:3,_RNvMs3_NtCs7bzfDg8Kx2o_10nexus_core17graph_correlationNtB5_22DependencyGraphBuilder3new
FNDA:2,_RNvMs8_NtCs7bzfDg8Kx2o_10nexus_core17graph_correlationNtB5_23GraphCorrelationManager11build_graph
FNDA:4,_RNvMs8_NtCs7bzfDg8Kx2o_10nexus_core17graph_correlationNtB5_23GraphCorrelationManager16register_builder
FNDA:2,_RNvMs8_NtCs7bzfDg8Kx2o_10nexus_core17graph_correlationNtB5_23GraphCorrelationManager21available_graph_types
FNDA:2,_RNvMs8_NtCs7bzfDg8Kx2o_10nexus_core17graph_correlationNtB5_23GraphCorrelationManager3new
FNDA:1,_RNvMs_NtCs7bzfDg8Kx2o_10nexus_core17graph_correlationNtB4_15GraphSourceData11add_imports
FNDA:1,_RNvMs_NtCs7bzfDg8Kx2o_10nexus_core17graph_correlationNtB4_15GraphSourceData13add_functions
FNDA:3,_RNvMs_NtCs7bzfDg8Kx2o_10nexus_core17graph_correlationNtB4_15GraphSourceData3new
FNDA:3,_RNvMs_NtCs7bzfDg8Kx2o_10nexus_core17graph_correlationNtB4_15GraphSourceData8add_file
FNDA:2,_RNvXs2_NtCs7bzfDg8Kx2o_10nexus_core17graph_correlationNtB5_16CallGraphBuilderNtB5_12GraphBuilder10graph_type
FNDA:0,_RNvXs2_NtCs7bzfDg8Kx2o_10nexus_core17graph_correlationNtB5_16CallGraphBuilderNtB5_12GraphBuilder12capabilities
FNDA:0,_RNvXs2_NtCs7bzfDg8Kx2o_10nexus_core17graph_correlationNtB5_16CallGraphBuilderNtB5_12GraphBuilder16build_call_graph
FNDA:0,_RNvXs2_NtCs7bzfDg8Kx2o_10nexus_core17graph_correlationNtB5_16CallGraphBuilderNtB5_12GraphBuilder21build_component_graph
FNDA:0,_RNvXs2_NtCs7bzfDg8Kx2o_10nexus_core17graph_correlationNtB5_16CallGraphBuilderNtB5_12GraphBuilder21build_data_flow_graph
FNDA:0,_RNvXs2_NtCs7bzfDg8Kx2o_10nexus_core17graph_correlationNtB5_16CallGraphBuilderNtB5_12GraphBuilder22build_dependency_graph
FNDA:0,_RNvXs2_NtCs7bzfDg8Kx2o_10nexus_core17graph_correlationNtB5_16CallGraphBuilderNtB5_12GraphBuilder4name
FNDA:2,_RNvXs2_NtCs7bzfDg8Kx2o_10nexus_core17graph_correlationNtB5_16CallGraphBuilderNtB5_12GraphBuilder5build
FNDA:2,_RNvXs4_NtCs7bzfDg8Kx2o_10nexus_core17graph_correlationNtB5_22DependencyGraphBuilderNtB5_12GraphBuilder10graph_type
FNDA:0,_RNvXs4_NtCs7bzfDg8Kx2o_10nexus_core17graph_correlationNtB5_22DependencyGraphBuilderNtB5_12GraphBuilder12capabilities
FNDA:0,_RNvXs4_NtCs7bzfDg8Kx2o_10nexus_core17graph_correlationNtB5_22DependencyGraphBuilderNtB5_12GraphBuilder16build_call_graph
FNDA:0,_RNvXs4_NtCs7bzfDg8Kx2o_10nexus_core17graph_correlationNtB5_22DependencyGraphBuilderNtB5_12GraphBuilder21build_component_graph
FNDA:0,_RNvXs4_NtCs7bzfDg8Kx2o_10nexus_core17graph_correlationNtB5_22DependencyGraphBuilderNtB5_12GraphBuilder21build_data_flow_graph
FNDA:0,_RNvXs4_NtCs7bzfDg8Kx2o_10nexus_core17graph_correlationNtB5_22DependencyGraphBuilderNtB5_12GraphBuilder22build_dependency_graph
FNDA:0,_RNvXs4_NtCs7bzfDg8Kx2o_10nexus_core17graph_correlationNtB5_22DependencyGraphBuilderNtB5_12GraphBuilder4name
FNDA:2,_RNvXs4_NtCs7bzfDg8Kx2o_10nexus_core17graph_correlationNtB5_22DependencyGraphBuilderNtB5_12GraphBuilder5build
FNDA:1,_RNvNtNtCs7bzfDg8Kx2o_10nexus_core17graph_correlation5testss_13test_add_edge
FNDA:1,_RNvNtNtCs7bzfDg8Kx2o_10nexus_core17graph_correlation5testss_13test_add_node
FNDA:1,_RNvNtNtCs7bzfDg8Kx2o_10nexus_core17graph_correlation5testss_16test_json_export
FNDA:1,_RNvNtNtCs7bzfDg8Kx2o_10nexus_core17graph_correlation5testss_19test_edge_type_copy
FNDA:1,_RNvNtNtCs7bzfDg8Kx2o_10nexus_core17graph_correlation5testss_19test_graphml_export
FNDA:1,_RNvNtNtCs7bzfDg8Kx2o_10nexus_core17graph_correlation5testss_19test_node_type_copy
FNDA:1,_RNvNtNtCs7bzfDg8Kx2o_10nexus_core17graph_correlation5testss_20test_edge_type_clone
FNDA:1,_RNvNtNtCs7bzfDg8Kx2o_10nexus_core17graph_correlation5testss_20test_node_type_clone
FNDA:1,_RNvNtNtCs7bzfDg8Kx2o_10nexus_core17graph_correlation5testss_21test_graph_statistics
FNDA:1,_RNvNtNtCs7bzfDg8Kx2o_10nexus_core17graph_correlation5testss_22test_duplicate_node_id
FNDA:1,_RNvNtNtCs7bzfDg8Kx2o_10nexus_core17graph_correlation5testss_23test_call_graph_builder
FNDA:1,_RNvNtNtCs7bzfDg8Kx2o_10nexus_core17graph_correlation5testss_23test_edge_type_equality
FNDA:1,_RNvNtNtCs7bzfDg8Kx2o_10nexus_core17graph_correlation5testss_23test_node_type_equality
FNDA:1,_RNvNtNtCs7bzfDg8Kx2o_10nexus_core17graph_correlation5testss_24test_graph_edge_creation
FNDA:1,_RNvNtNtCs7bzfDg8Kx2o_10nexus_core17graph_correlation5testss_24test_graph_edge_metadata
FNDA:1,_RNvNtNtCs7bzfDg8Kx2o_10nexus_core17graph_correlation5testss_24test_graph_node_creation
FNDA:1,_RNvNtNtCs7bzfDg8Kx2o_10nexus_core17graph_correlation5testss_24test_graph_node_metadata
FNDA:1,_RNvNtNtCs7bzfDg8Kx2o_10nexus_core17graph_correlation5testss_24test_graph_serialization
FNDA:1,_RNvNtNtCs7bzfDg8Kx2o_10nexus_core17graph_correlation5testss_24test_graph_type_variants
FNDA:1,_RNvNtNtCs7bzfDg8Kx2o_10nexus_core17graph_correlation5testss_25test_graph_error_handling
FNDA:1,_RNvNtNtCs7bzfDg8Kx2o_10nexus_core17graph_correlation5testss_27test_edge_type_all_variants
FNDA:1,_RNvNtNtCs7bzfDg8Kx2o_10nexus_core17graph_correlation5testss_27test_graph_clear_operations
FNDA:1,_RNvNtNtCs7bzfDg8Kx2o_10nexus_core17graph_correlation5testss_27test_node_type_all_variants
FNDA:1,_RNvNtNtCs7bzfDg8Kx2o_10nexus_core17graph_correlation5testss_28test_edge_type_enum_variants
FNDA:1,_RNvNtNtCs7bzfDg8Kx2o_10nexus_core17graph_correlation5testss_28test_edge_type_in_graph_edge
FNDA:1,_RNvNtNtCs7bzfDg8Kx2o_10nexus_core17graph_correlation5testss_28test_edge_type_serialization
FNDA:1,_RNvNtNtCs7bzfDg8Kx2o_10nexus_core17graph_correlation5testss_28test_node_type_enum_variants
FNDA:1,_RNvNtNtCs7bzfDg8Kx2o_10nexus_core17graph_correlation5testss_28test_node_type_in_graph_node
FNDA:1,_RNvNtNtCs7bzfDg8Kx2o_10nexus_core17graph_correlation5testss_28test_node_type_serialization
FNDA:1,_RNvNtNtCs7bzfDg8Kx2o_10nexus_core17graph_correlation5testss_29test_dependency_graph_builder
FNDA:1,_RNvNtNtCs7bzfDg8Kx2o_10nexus_core17graph_correlation5testss_29test_graph_manager_operations
FNDA:1,_RNvNtNtCs7bzfDg8Kx2o_10nexus_core17graph_correlation5testss_30test_edge_type_deserialization
FNDA:1,_RNvNtNtCs7bzfDg8Kx2o_10nexus_core17graph_correlation5testss_30test_graph_correlation_manager
FNDA:1,_RNvNtNtCs7bzfDg8Kx2o_10nexus_core17graph_correlation5testss_30test_node_type_deserialization
FNDA:1,_RNvNtNtCs7bzfDg8Kx2o_10nexus_core17graph_correlation5testss_31test_correlation_graph_creation
FNDA:1,_RNvNtNtCs7bzfDg8Kx2o_10nexus_core17graph_correlation5testss_31test_edge_type_pattern_matching
FNDA:1,_RNvNtNtCs7bzfDg8Kx2o_10nexus_core17graph_correlation5testss_31test_edge_with_nonexistent_node
FNDA:1,_RNvNtNtCs7bzfDg8Kx2o_10nexus_core17graph_correlation5testss_31test_node_type_pattern_matching
FNDA:1,_RNvNtNtCs7bzfDg8Kx2o_10nexus_core17graph_correlation5testss_33test_graph_statistics_calculation
FNDA:1,_RNvNtNtCs7bzfDg8Kx2o_10nexus_core17graph_correlation5testss_35test_graph_visualization_properties
FNF:114
FNH:71
DA:134,17
DA:135,17
DA:136,17
DA:137,17
DA:138,17
DA:139,17
DA:140,17
DA:141,17
DA:142,17
DA:143,17
DA:144,17
DA:145,17
DA:146,17
DA:149,26
DA:151,26
DA:152,2
DA:153,2
DA:154,2
DA:155,2
DA:156,24
DA:158,24
DA:159,24
DA:160,24
DA:161,26
DA:164,11
DA:166,11
DA:167,0
DA:168,0
DA:169,0
DA:170,0
DA:171,11
DA:174,11
DA:175,2
DA:176,2
DA:177,2
DA:178,2
DA:179,9
DA:181,19
DA:182,0
DA:183,0
DA:184,0
DA:185,0
DA:186,9
DA:188,9
DA:189,9
DA:190,9
DA:191,11
DA:194,1
DA:195,1
DA:196,1
DA:199,1
DA:200,1
DA:201,1
DA:204,9
DA:205,9
DA:206,9
DA:207,11
DA:208,9
DA:209,9
DA:212,5
DA:214,5
DA:215,5
DA:216,5
DA:217,1
DA:219,4
DA:221,5
DA:222,5
DA:223,5
DA:224,9
DA:225,5
DA:226,5
DA:227,5
DA:228,2
DA:230,3
DA:231,3
DA:234,5
DA:237,2
DA:238,2
DA:239,2
DA:240,2
DA:243,1
DA:245,1
DA:246,1
DA:247,1
DA:248,1
DA:251,2
DA:252,1
DA:253,1
DA:254,1
DA:255,1
DA:256,1
DA:257,1
DA:260,1
DA:261,0
DA:262,0
DA:263,0
DA:264,0
DA:265,0
DA:266,0
DA:268,1
DA:269,1
DA:271,1
DA:272,1
DA:296,0
DA:298,0
DA:299,0
DA:302,0
DA:304,0
DA:305,0
DA:308,0
DA:310,0
DA:311,0
DA:314,0
DA:316,0
DA:317,0
DA:326,0
DA:327,0
DA:328,0
DA:331,0
DA:332,0
DA:333,0
DA:334,0
DA:335,0
DA:336,0
DA:337,0
DA:338,0
DA:341,0
DA:342,0
DA:343,0
DA:361,3
DA:362,3
DA:363,3
DA:364,3
DA:365,3
DA:366,3
DA:367,3
DA:368,3
DA:371,3
DA:372,3
DA:373,3
DA:376,1
DA:377,1
DA:378,1
DA:381,1
DA:382,1
DA:383,1
DA:387,0
DA:388,0
DA:389,0
DA:399,3
DA:400,3
DA:401,3
DA:405,2
DA:406,2
DA:409,2
DA:410,1
DA:411,1
DA:412,1
DA:413,1
DA:414,1
DA:415,1
DA:416,1
DA:417,1
DA:418,1
DA:419,1
DA:420,1
DA:424,3
DA:425,2
DA:426,1
DA:427,1
DA:428,1
DA:429,1
DA:430,1
DA:431,1
DA:432,1
DA:433,1
DA:434,1
DA:435,1
DA:436,1
DA:439,1
DA:440,1
DA:441,1
DA:442,1
DA:443,1
DA:444,1
DA:445,1
DA:446,1
DA:447,1
DA:448,1
DA:449,1
DA:453,2
DA:454,2
DA:456,0
DA:457,0
DA:458,0
DA:460,0
DA:461,0
DA:462,0
DA:463,0
DA:464,0
DA:466,0
DA:467,0
DA:468,0
DA:469,0
DA:470,0
DA:472,0
DA:473,0
DA:474,0
DA:475,0
DA:476,0
DA:478,2
DA:479,2
DA:480,2
DA:482,0
DA:483,0
DA:484,0
DA:486,0
DA:487,0
DA:488,0
DA:489,0
DA:490,0
DA:491,0
DA:492,0
DA:493,0
DA:494,0
DA:495,0
DA:496,0
DA:497,0
DA:507,3
DA:508,3
DA:509,3
DA:513,2
DA:514,2
DA:517,2
DA:518,2
DA:519,2
DA:520,2
DA:521,2
DA:522,2
DA:523,2
DA:524,2
DA:525,2
DA:526,2
DA:527,2
DA:528,2
DA:532,3
DA:533,1
DA:535,2
DA:536,1
DA:539,1
DA:540,1
DA:541,1
DA:542,1
DA:543,1
DA:544,1
DA:545,1
DA:546,1
DA:547,1
DA:548,1
DA:549,1
DA:550,0
DA:554,2
DA:555,2
DA:557,0
DA:558,0
DA:559,0
DA:560,0
DA:561,0
DA:563,0
DA:564,0
DA:565,0
DA:567,0
DA:568,0
DA:569,0
DA:570,0
DA:571,0
DA:573,0
DA:574,0
DA:575,0
DA:576,0
DA:577,0
DA:579,2
DA:580,2
DA:581,2
DA:583,0
DA:584,0
DA:585,0
DA:587,0
DA:588,0
DA:589,0
DA:590,0
DA:591,0
DA:592,0
DA:593,0
DA:594,0
DA:595,0
DA:596,0
DA:597,0
DA:598,0
DA:659,0
DA:660,0
DA:661,0
DA:662,0
DA:663,0
DA:664,0
DA:665,0
DA:666,0
DA:667,0
DA:668,0
DA:669,0
DA:670,0
DA:671,0
DA:672,0
DA:673,0
DA:678,0
DA:679,0
DA:680,0
DA:681,0
DA:682,0
DA:683,0
DA:686,0
DA:687,0
DA:688,0
DA:691,0
DA:692,0
DA:693,0
DA:696,0
DA:697,0
DA:698,0
DA:701,0
DA:702,0
DA:703,0
DA:706,0
DA:707,0
DA:708,0
DA:709,0
DA:710,0
DA:711,0
DA:713,0
DA:714,0
DA:715,0
DA:716,0
DA:717,0
DA:718,0
DA:719,0
DA:720,0
DA:721,0
DA:722,0
DA:723,0
DA:724,0
DA:726,0
DA:727,0
DA:728,0
DA:729,0
DA:730,0
DA:731,0
DA:732,0
DA:734,0
DA:736,0
DA:737,0
DA:739,0
DA:743,0
DA:744,0
DA:745,0
DA:746,0
DA:747,0
DA:748,0
DA:749,0
DA:751,0
DA:752,0
DA:753,0
DA:754,0
DA:755,0
DA:756,0
DA:757,0
DA:758,0
DA:759,0
DA:760,0
DA:761,0
DA:762,0
DA:763,0
DA:764,0
DA:765,0
DA:766,0
DA:768,0
DA:769,0
DA:770,0
DA:771,0
DA:772,0
DA:773,0
DA:774,0
DA:776,0
DA:778,0
DA:779,0
DA:781,0
DA:784,0
DA:785,0
DA:786,0
DA:787,0
DA:788,0
DA:789,0
DA:790,0
DA:791,0
DA:792,0
DA:793,0
DA:794,0
DA:795,0
DA:797,0
DA:799,0
DA:801,0
DA:803,0
DA:807,0
DA:808,0
DA:811,0
DA:812,0
DA:813,0
DA:814,0
DA:815,0
DA:816,0
DA:817,0
DA:821,0
DA:822,0
DA:823,0
DA:824,0
DA:825,0
DA:826,0
DA:828,0
DA:829,0
DA:830,0
DA:831,0
DA:832,0
DA:833,0
DA:834,0
DA:835,0
DA:836,0
DA:837,0
DA:838,0
DA:839,0
DA:841,0
DA:842,0
DA:843,0
DA:844,0
DA:845,0
DA:846,0
DA:847,0
DA:849,0
DA:851,0
DA:852,0
DA:854,0
DA:858,0
DA:859,0
DA:861,0
DA:862,0
DA:865,0
DA:866,0
DA:867,0
DA:868,0
DA:869,0
DA:870,0
DA:871,0
DA:872,0
DA:873,0
DA:874,0
DA:875,0
DA:876,0
DA:878,0
DA:880,0
DA:882,0
DA:884,0
DA:885,0
DA:889,0
DA:890,0
DA:893,0
DA:894,0
DA:895,0
DA:896,0
DA:901,0
DA:902,0
DA:903,0
DA:904,0
DA:905,0
DA:906,0
DA:908,0
DA:909,0
DA:910,0
DA:911,0
DA:912,0
DA:913,0
DA:914,0
DA:915,0
DA:916,0
DA:917,0
DA:918,0
DA:919,0
DA:921,0
DA:922,0
DA:923,0
DA:924,0
DA:925,0
DA:926,0
DA:927,0
DA:929,0
DA:931,0
DA:932,0
DA:934,0
DA:937,0
DA:938,0
DA:941,0
DA:942,0
DA:943,0
DA:944,0
DA:949,0
DA:950,0
DA:951,0
DA:952,0
DA:953,0
DA:954,0
DA:956,0
DA:957,0
DA:958,0
DA:959,0
DA:960,0
DA:961,0
DA:962,0
DA:963,0
DA:964,0
DA:965,0
DA:966,0
DA:967,0
DA:969,0
DA:970,0
DA:971,0
DA:972,0
DA:973,0
DA:974,0
DA:975,0
DA:977,0
DA:979,0
DA:980,0
DA:982,0
DA:985,0
DA:986,0
DA:990,0
DA:993,0
DA:994,0
DA:996,0
DA:997,0
DA:998,0
DA:1000,0
DA:1001,0
DA:1002,0
DA:1004,0
DA:1005,0
DA:1006,0
DA:1008,0
DA:1009,0
DA:1010,0
DA:1012,0
DA:1013,0
DA:1014,0
DA:1016,0
DA:1017,0
DA:1018,0
DA:1020,0
DA:1021,0
DA:1022,0
DA:1023,0
DA:1024,0
DA:1025,0
DA:1026,0
DA:1027,0
DA:1028,0
DA:1029,0
DA:1030,0
DA:1031,0
DA:1033,0
DA:1035,0
DA:1036,0
DA:1037,0
DA:1038,0
DA:1039,0
DA:1042,0
DA:1043,0
DA:1044,0
DA:1045,0
DA:1046,0
DA:1047,0
DA:1048,0
DA:1049,0
DA:1050,0
DA:1051,0
DA:1054,0
DA:1055,0
DA:1056,0
DA:1057,0
DA:1060,0
DA:1061,0
DA:1063,0
DA:1064,0
DA:1065,0
DA:1078,2
DA:1079,2
DA:1080,2
DA:1081,2
DA:1082,2
DA:1085,2
DA:1086,2
DA:1087,2
DA:1088,2
DA:1090,2
DA:1091,2
DA:1094,4
DA:1095,4
DA:1096,4
DA:1099,2
DA:1100,2
DA:1101,2
DA:1102,2
DA:1103,2
DA:1104,2
DA:1105,0
DA:1106,0
DA:1108,2
DA:1109,2
DA:1112,2
DA:1113,2
DA:1114,2
DA:1118,0
DA:1119,0
DA:1120,0
DA:1128,1
DA:1129,1
DA:1130,1
DA:1131,1
DA:1132,1
DA:1133,1
DA:1134,1
DA:1137,1
DA:1138,1
DA:1140,1
DA:1141,1
DA:1142,1
DA:1143,1
DA:1144,1
DA:1145,1
DA:1146,1
DA:1147,1
DA:1148,1
DA:1150,1
DA:1151,1
DA:1152,1
DA:1153,1
DA:1156,1
DA:1157,1
DA:1160,1
DA:1161,1
DA:1162,1
DA:1163,1
DA:1164,1
DA:1165,1
DA:1166,1
DA:1167,1
DA:1168,1
DA:1170,1
DA:1171,1
DA:1172,1
DA:1173,1
DA:1174,1
DA:1175,1
DA:1176,1
DA:1177,1
DA:1178,1
DA:1180,1
DA:1181,1
DA:1184,1
DA:1185,1
DA:1186,1
DA:1187,1
DA:1188,1
DA:1189,1
DA:1190,1
DA:1191,1
DA:1192,1
DA:1194,1
DA:1195,1
DA:1196,1
DA:1197,1
DA:1200,1
DA:1201,1
DA:1203,1
DA:1204,1
DA:1205,1
DA:1206,1
DA:1207,1
DA:1208,1
DA:1209,1
DA:1210,1
DA:1211,1
DA:1213,1
DA:1214,1
DA:1215,1
DA:1216,1
DA:1217,1
DA:1218,1
DA:1219,1
DA:1220,1
DA:1221,1
DA:1223,1
DA:1224,1
DA:1225,1
DA:1228,1
DA:1229,1
DA:1231,1
DA:1232,1
DA:1233,1
DA:1234,1
DA:1235,1
DA:1236,1
DA:1237,1
DA:1238,1
DA:1239,1
DA:1241,1
DA:1242,1
DA:1245,1
DA:1246,1
DA:1249,4
DA:1250,3
DA:1251,3
DA:1252,3
DA:1253,3
DA:1254,3
DA:1255,3
DA:1256,3
DA:1257,3
DA:1258,3
DA:1259,3
DA:1260,3
DA:1263,1
DA:1264,1
DA:1265,1
DA:1266,1
DA:1267,1
DA:1268,1
DA:1269,1
DA:1270,1
DA:1271,1
DA:1272,1
DA:1274,1
DA:1275,1
DA:1276,1
DA:1277,1
DA:1278,1
DA:1281,1
DA:1282,1
DA:1283,1
DA:1285,1
DA:1286,1
DA:1288,1
DA:1289,1
DA:1290,1
DA:1291,1
DA:1292,1
DA:1295,1
DA:1296,1
DA:1297,1
DA:1299,1
DA:1300,1
DA:1301,1
DA:1303,1
DA:1304,1
DA:1305,1
DA:1306,1
DA:1307,1
DA:1310,1
DA:1311,1
DA:1312,1
DA:1314,1
DA:1315,1
DA:1316,1
DA:1319,1
DA:1320,1
DA:1322,1
DA:1323,1
DA:1324,1
DA:1325,1
DA:1326,1
DA:1327,1
DA:1328,1
DA:1329,1
DA:1330,1
DA:1331,1
DA:1333,1
DA:1334,1
DA:1335,1
DA:1336,1
DA:1339,1
DA:1340,1
DA:1342,1
DA:1343,1
DA:1344,1
DA:1345,1
DA:1346,1
DA:1347,1
DA:1348,1
DA:1349,1
DA:1350,1
DA:1351,1
DA:1353,1
DA:1354,1
DA:1355,1
DA:1356,1
DA:1357,1
DA:1360,1
DA:1362,1
DA:1363,1
DA:1364,1
DA:1365,1
DA:1366,1
DA:1369,1
DA:1370,1
DA:1371,1
DA:1372,1
DA:1373,1
DA:1374,1
DA:1377,1
DA:1379,1
DA:1380,1
DA:1381,1
DA:1382,1
DA:1383,1
DA:1386,1
DA:1387,1
DA:1388,1
DA:1389,1
DA:1390,1
DA:1391,1
DA:1394,1
DA:1395,1
DA:1396,1
DA:1397,1
DA:1398,1
DA:1401,1
DA:1402,1
DA:1403,1
DA:1404,1
DA:1405,1
DA:1406,1
DA:1409,1
DA:1410,1
DA:1411,1
DA:1412,1
DA:1413,1
DA:1414,1
DA:1415,1
DA:1418,6
DA:1420,5
DA:1421,5
DA:1422,5
DA:1425,5
DA:1426,1
DA:1427,1
DA:1428,1
DA:1429,1
DA:1430,1
DA:1433,1
DA:1436,1
DA:1438,1
DA:1439,1
DA:1440,1
DA:1441,1
DA:1442,1
DA:1443,1
DA:1446,6
DA:1447,5
DA:1448,5
DA:1449,5
DA:1451,1
DA:1454,1
DA:1456,1
DA:1457,1
DA:1458,1
DA:1459,1
DA:1460,1
DA:1461,1
DA:1462,1
DA:1463,1
DA:1464,1
DA:1466,1
DA:1467,1
DA:1468,1
DA:1471,1
DA:1472,1
DA:1474,1
DA:1475,0
DA:1476,0
DA:1477,0
DA:1478,0
DA:1479,1
DA:1482,1
DA:1483,1
DA:1486,1
DA:1488,1
DA:1489,1
DA:1490,1
DA:1491,1
DA:1492,1
DA:1493,1
DA:1494,1
DA:1496,1
DA:1499,5
DA:1500,25
DA:1501,25
DA:1502,20
DA:1503,5
DA:1506,1
DA:1509,1
DA:1511,1
DA:1512,1
DA:1513,1
DA:1514,1
DA:1515,1
DA:1516,1
DA:1517,1
DA:1520,1
DA:1521,1
DA:1522,1
DA:1523,1
DA:1524,1
DA:1525,1
DA:1526,1
DA:1527,1
DA:1530,1
DA:1532,1
DA:1533,1
DA:1534,1
DA:1535,1
DA:1536,1
DA:1537,1
DA:1538,1
DA:1541,1
DA:1542,1
DA:1543,1
DA:1544,1
DA:1545,1
DA:1546,1
DA:1547,1
DA:1548,1
DA:1551,1
DA:1552,1
DA:1553,1
DA:1554,1
DA:1555,1
DA:1558,1
DA:1559,1
DA:1560,1
DA:1561,1
DA:1562,1
DA:1563,1
DA:1566,1
DA:1567,1
DA:1568,1
DA:1569,1
DA:1570,1
DA:1571,1
DA:1572,1
DA:1573,1
DA:1574,1
DA:1577,8
DA:1579,7
DA:1580,7
DA:1581,7
DA:1584,7
DA:1585,1
DA:1586,1
DA:1587,1
DA:1588,1
DA:1589,1
DA:1590,1
DA:1591,1
DA:1594,1
DA:1597,1
DA:1599,1
DA:1600,1
DA:1601,1
DA:1602,1
DA:1603,1
DA:1604,1
DA:1605,1
DA:1606,1
DA:1609,8
DA:1610,7
DA:1611,7
DA:1612,7
DA:1614,1
DA:1617,1
DA:1619,1
DA:1620,1
DA:1621,1
DA:1622,1
DA:1623,1
DA:1624,1
DA:1625,1
DA:1626,1
DA:1627,1
DA:1629,1
DA:1630,1
DA:1631,1
DA:1634,1
DA:1635,1
DA:1637,1
DA:1638,0
DA:1639,0
DA:1640,0
DA:1641,0
DA:1642,1
DA:1643,0
DA:1644,0
DA:1647,1
DA:1648,1
DA:1651,1
DA:1653,1
DA:1654,1
DA:1655,1
DA:1656,1
DA:1657,1
DA:1658,1
DA:1659,1
DA:1660,1
DA:1661,1
DA:1663,1
DA:1666,7
DA:1667,49
DA:1668,49
DA:1669,42
DA:1670,7
DA:1673,1
DA:1676,1
DA:1678,1
DA:1679,1
DA:1680,1
DA:1681,1
DA:1683,1
DA:1684,1
DA:1685,1
DA:1686,1
DA:1687,1
DA:1688,1
DA:1691,1
DA:1692,1
DA:1694,1
DA:1695,1
DA:1697,1
DA:1698,1
DA:1700,1
DA:1701,1
DA:1702,1
DA:1705,1
DA:1706,1
DA:1707,1
DA:1708,1
DA:1709,1
DA:1711,1
DA:1713,1
DA:1714,1
DA:1715,1
DA:1716,1
DA:1717,1
DA:1718,1
DA:1719,1
DA:1720,1
DA:1721,1
DA:1723,1
DA:1724,1
DA:1725,1
DA:1726,1
DA:1727,1
DA:1728,1
DA:1729,1
DA:1732,1
DA:1733,1
DA:1734,1
DA:1735,1
DA:1736,1
DA:1737,1
DA:1738,1
DA:1739,1
DA:1740,1
DA:1743,1
DA:1744,1
DA:1745,1
DA:1746,1
DA:1747,1
DA:1749,1
DA:1750,1
DA:1751,1
DA:1754,1
DA:1755,1
DA:1756,1
DA:1757,1
DA:1758,1
DA:1759,1
DA:1760,1
DA:1761,1
DA:1762,1
DA:1764,1
DA:1765,1
DA:1766,1
DA:1767,1
DA:1768,1
DA:1769,1
DA:1770,1
DA:1773,1
DA:1774,1
DA:1775,1
DA:1776,1
DA:1777,1
DA:1778,1
DA:1779,1
DA:1780,1
DA:1781,1
DA:1784,1
DA:1785,1
DA:1788,1
DA:1789,1
DA:1790,1
DA:1791,1
DA:1792,1
DA:1793,1
DA:1794,1
DA:1795,1
DA:1796,1
DA:1797,1
DA:1798,1
DA:1799,1
DA:1800,1
DA:1801,1
DA:1802,1
DA:1803,1
DA:1804,1
DA:1805,1
DA:1806,1
DA:1807,1
DA:1808,1
DA:1809,1
DA:1810,1
DA:1811,1
DA:1812,1
DA:1813,1
DA:1814,1
DA:1816,1
DA:1817,1
DA:1818,1
DA:1821,1
DA:1822,1
DA:1823,1
DA:1824,1
DA:1825,1
DA:1826,1
DA:1827,1
DA:1828,1
DA:1829,1
DA:1830,1
DA:1831,1
DA:1832,1
DA:1833,1
DA:1834,1
DA:1835,1
DA:1836,1
DA:1837,1
DA:1838,1
DA:1840,1
DA:1841,1
DA:1843,1
DA:1844,1
DA:1845,1
DA:1846,1
DA:1849,1
DA:1850,1
DA:1853,1
DA:1854,1
DA:1855,1
DA:1856,1
DA:1857,1
DA:1858,1
DA:1859,1
DA:1860,1
DA:1861,1
DA:1862,1
DA:1863,1
DA:1864,1
DA:1865,1
DA:1866,1
DA:1867,1
DA:1868,1
DA:1869,1
DA:1870,1
DA:1871,1
DA:1872,1
DA:1873,1
DA:1874,1
DA:1875,1
DA:1876,1
DA:1877,1
DA:1878,1
DA:1879,1
DA:1881,1
DA:1882,1
DA:1883,1
DA:1886,1
DA:1887,1
DA:1889,1
DA:1890,1
DA:1891,1
DA:1893,1
DA:1894,1
DA:1896,1
DA:1897,1
DA:1898,1
DA:1901,1
DA:1902,1
DA:1903,1
DA:1904,1
DA:1905,1
DA:1907,1
DA:1908,1
DA:1910,1
DA:1911,1
DA:1912,1
DA:1913,1
DA:1914,1
DA:1915,1
DA:1916,1
DA:1917,1
DA:1918,1
DA:1920,1
DA:1921,1
DA:1924,1
DA:1925,1
DA:1926,1
DA:1929,1
DA:1930,1
DA:1931,1
DA:1932,1
DA:1933,1
DA:1935,1
DA:1936,1
DA:1937,1
DA:1939,1
DA:1941,1
DA:1942,1
DA:1943,1
DA:1944,1
DA:1945,1
DA:1946,1
DA:1947,1
DA:1948,1
DA:1949,1
DA:1951,1
DA:1952,1
DA:1955,1
DA:1956,1
DA:1959,1
DA:1960,1
DA:1963,1
DA:1964,1
DA:1967,1
DA:1968,1
DA:1969,1
DA:1970,1
DA:1973,1
DA:1974,1
DA:1975,1
DA:1977,1
DA:1978,1
DA:1979,1
DA:1982,1
DA:1983,1
DA:1986,1
DA:1987,1
DA:1988,1
DA:1989,1
DA:1992,1
DA:1993,1
DA:1994,1
DA:1995,1
DA:1996,1
DA:1997,1
DA:1998,1
DA:1999,1
DA:2000,1
DA:2001,1
DA:2004,1
DA:2005,1
DA:2006,1
DA:2007,1
DA:2011,1
DA:2012,1
DA:2013,1
DA:2014,1
DA:2015,1
DA:2016,1
DA:2017,1
DA:2018,1
DA:2019,1
DA:2020,1
DA:2022,1
DA:2023,1
DA:2024,1
DA:2025,1
DA:2026,1
DA:2027,1
DA:2028,1
DA:2029,1
DA:2030,1
DA:2031,1
DA:2034,1
DA:2035,1
DA:2036,1
DA:2038,1
DA:2039,1
DA:2040,1
DA:2041,1
DA:2042,1
DA:2045,1
DA:2046,1
DA:2049,1
DA:2050,1
DA:2051,1
DA:2052,1
DA:2053,1
DA:2054,1
DA:2055,1
DA:2056,1
DA:2057,1
DA:2058,1
DA:2060,1
DA:2061,1
DA:2062,1
DA:2063,1
DA:2064,1
DA:2065,1
DA:2066,1
DA:2067,1
DA:2068,1
DA:2069,1
DA:2070,1
DA:2073,1
DA:2074,1
DA:2075,1
DA:2076,1
DA:2077,1
DA:2078,1
DA:2079,1
DA:2080,1
DA:2081,1
DA:2082,1
DA:2083,1
DA:2084,1
DA:2087,1
DA:2088,1
DA:2091,1
DA:2092,1
DA:2093,1
DA:2094,1
DA:2095,1
DA:2096,1
DA:2097,1
DA:2098,1
DA:2099,1
DA:2100,1
DA:2101,1
DA:2102,1
DA:2103,1
DA:2104,1
DA:2105,1
DA:2106,1
DA:2107,1
DA:2108,1
DA:2109,1
DA:2110,1
DA:2112,1
DA:2113,1
DA:2114,1
DA:2115,1
DA:2116,1
DA:2117,1
DA:2118,1
DA:2119,1
DA:2120,1
DA:2121,1
DA:2124,1
DA:2125,1
DA:2126,1
DA:2129,1
DA:2130,1
DA:2131,1
DA:2132,1
DA:2133,1
DA:2136,1
DA:2137,1
DA:2138,1
DA:2139,1
DA:2140,1
DA:2141,1
DA:2142,1
DA:2143,1
DA:2144,1
DA:2145,1
DA:2146,1
DA:2147,1
DA:2148,1
BRF:0
BRH:0
LF:1423
LH:993
end_of_record
SF:/mnt/f/Node/hivellm/nexus/nexus-core/src/graph_simple.rs
FN:522,_RNCNCNvMs6_NtCs4yQ6d7adrZY_10nexus_core12graph_simpleNtB9_5Graph20calculate_leaf_nodes00Bb_
FN:509,_RNCNCNvMs6_NtCs4yQ6d7adrZY_10nexus_core12graph_simpleNtB9_5Graph24calculate_isolated_nodes00Bb_
FN:123,_RNCNvMs4_NtCs4yQ6d7adrZY_10nexus_core12graph_simpleNtB7_4Node12remove_label0B9_
FN:308,_RNCNvMs6_NtCs4yQ6d7adrZY_10nexus_core12graph_simpleNtB7_5Graph11delete_node0B9_
FN:390,_RNCNvMs6_NtCs4yQ6d7adrZY_10nexus_core12graph_simpleNtB7_5Graph17get_edges_by_type0B9_
FN:399,_RNCNvMs6_NtCs4yQ6d7adrZY_10nexus_core12graph_simpleNtB7_5Graph18get_edges_for_node0B9_
FN:381,_RNCNvMs6_NtCs4yQ6d7adrZY_10nexus_core12graph_simpleNtB7_5Graph18get_nodes_by_label0B9_
FN:518,_RNCNvMs6_NtCs4yQ6d7adrZY_10nexus_core12graph_simpleNtB7_5Graph20calculate_leaf_nodes0B9_
FN:533,_RNCNvMs6_NtCs4yQ6d7adrZY_10nexus_core12graph_simpleNtB7_5Graph20calculate_self_loops0B9_
FN:506,_RNCNvMs6_NtCs4yQ6d7adrZY_10nexus_core12graph_simpleNtB7_5Graph24calculate_isolated_nodes0B9_
FN:461,_RNCNvMs6_NtCs4yQ6d7adrZY_10nexus_core12graph_simpleNtB7_5Graph27calculate_degree_statistics0B9_
FN:472,_RNCNvMs6_NtCs4yQ6d7adrZY_10nexus_core12graph_simpleNtB7_5Graph27calculate_degree_statisticss0_0B9_
FN:471,_RNCNvMs6_NtCs4yQ6d7adrZY_10nexus_core12graph_simpleNtB7_5Graph27calculate_degree_statisticss_0B9_
FN:557,_RNCNvMs6_NtCs4yQ6d7adrZY_10nexus_core12graph_simpleNtB7_5Graph29calculate_bidirectional_edges0B9_
FN:561,_RNCNvMs6_NtCs4yQ6d7adrZY_10nexus_core12graph_simpleNtB7_5Graph29calculate_bidirectional_edgess_0B9_
FN:594,_RNCNvMs6_NtCs4yQ6d7adrZY_10nexus_core12graph_simpleNtB7_5Graph36calculate_avg_clustering_coefficient0B9_
FN:612,_RNCNvMs6_NtCs4yQ6d7adrZY_10nexus_core12graph_simpleNtB7_5Graph36calculate_avg_clustering_coefficients_0B9_
FN:13,_RNvMNtCs4yQ6d7adrZY_10nexus_core12graph_simpleNtB2_6NodeId3new
FN:18,_RNvMNtCs4yQ6d7adrZY_10nexus_core12graph_simpleNtB2_6NodeId5value
FN:41,_RNvMs1_NtCs4yQ6d7adrZY_10nexus_core12graph_simpleNtB5_6EdgeId3new
FN:46,_RNvMs1_NtCs4yQ6d7adrZY_10nexus_core12graph_simpleNtB5_6EdgeId5value
FN:142,_RNvMs4_NtCs4yQ6d7adrZY_10nexus_core12graph_simpleNtB5_4Node12get_property
FN:152,_RNvMs4_NtCs4yQ6d7adrZY_10nexus_core12graph_simpleNtB5_4Node12has_property
FN:122,_RNvMs4_NtCs4yQ6d7adrZY_10nexus_core12graph_simpleNtB5_4Node12remove_label
FN:137,_RNvMs4_NtCs4yQ6d7adrZY_10nexus_core12graph_simpleNtB5_4Node12set_property
FN:157,_RNvMs4_NtCs4yQ6d7adrZY_10nexus_core12graph_simpleNtB5_4Node13property_keys
FN:147,_RNvMs4_NtCs4yQ6d7adrZY_10nexus_core12graph_simpleNtB5_4Node15remove_property
FN:102,_RNvMs4_NtCs4yQ6d7adrZY_10nexus_core12graph_simpleNtB5_4Node15with_properties
FN:93,_RNvMs4_NtCs4yQ6d7adrZY_10nexus_core12graph_simpleNtB5_4Node3new
FN:162,_RNvMs4_NtCs4yQ6d7adrZY_10nexus_core12graph_simpleNtB5_4Node8is_empty
FN:115,_RNvMs4_NtCs4yQ6d7adrZY_10nexus_core12graph_simpleNtB5_4Node9add_label
FN:132,_RNvMs4_NtCs4yQ6d7adrZY_10nexus_core12graph_simpleNtB5_4Node9has_label
FN:217,_RNvMs5_NtCs4yQ6d7adrZY_10nexus_core12graph_simpleNtB5_4Edge12get_property
FN:227,_RNvMs5_NtCs4yQ6d7adrZY_10nexus_core12graph_simpleNtB5_4Edge12has_property
FN:212,_RNvMs5_NtCs4yQ6d7adrZY_10nexus_core12graph_simpleNtB5_4Edge12set_property
FN:232,_RNvMs5_NtCs4yQ6d7adrZY_10nexus_core12graph_simpleNtB5_4Edge13property_keys
FN:222,_RNvMs5_NtCs4yQ6d7adrZY_10nexus_core12graph_simpleNtB5_4Edge15remove_property
FN:195,_RNvMs5_NtCs4yQ6d7adrZY_10nexus_core12graph_simpleNtB5_4Edge15with_properties
FN:184,_RNvMs5_NtCs4yQ6d7adrZY_10nexus_core12graph_simpleNtB5_4Edge3new
FN:237,_RNvMs5_NtCs4yQ6d7adrZY_10nexus_core12graph_simpleNtB5_4Edge8is_empty
FN:242,_RNvMs5_NtCs4yQ6d7adrZY_10nexus_core12graph_simpleNtB5_4Edge9other_end
FN:409,_RNvMs6_NtCs4yQ6d7adrZY_10nexus_core12graph_simpleNtB5_5Graph10edge_count
FN:404,_RNvMs6_NtCs4yQ6d7adrZY_10nexus_core12graph_simpleNtB5_5Graph10node_count
FN:316,_RNvMs6_NtCs4yQ6d7adrZY_10nexus_core12graph_simpleNtB5_5Graph11create_edge
FN:277,_RNvMs6_NtCs4yQ6d7adrZY_10nexus_core12graph_simpleNtB5_5Graph11create_node
FN:362,_RNvMs6_NtCs4yQ6d7adrZY_10nexus_core12graph_simpleNtB5_5Graph11delete_edge
FN:304,_RNvMs6_NtCs4yQ6d7adrZY_10nexus_core12graph_simpleNtB5_5Graph11delete_node
FN:356,_RNvMs6_NtCs4yQ6d7adrZY_10nexus_core12graph_simpleNtB5_5Graph11update_edge
FN:298,_RNvMs6_NtCs4yQ6d7adrZY_10nexus_core12graph_simpleNtB5_5Graph11update_node
FN:351,_RNvMs6_NtCs4yQ6d7adrZY_10nexus_core12graph_simpleNtB5_5Graph12get_edge_mut
FN:293,_RNvMs6_NtCs4yQ6d7adrZY_10nexus_core12graph_simpleNtB5_5Graph12get_node_mut
FN:372,_RNvMs6_NtCs4yQ6d7adrZY_10nexus_core12graph_simpleNtB5_5Graph13get_all_edges
FN:367,_RNvMs6_NtCs4yQ6d7adrZY_10nexus_core12graph_simpleNtB5_5Graph13get_all_nodes
FN:386,_RNvMs6_NtCs4yQ6d7adrZY_10nexus_core12graph_simpleNtB5_5Graph17get_edges_by_type
FN:395,_RNvMs6_NtCs4yQ6d7adrZY_10nexus_core12graph_simpleNtB5_5Graph18get_edges_for_node
FN:377,_RNvMs6_NtCs4yQ6d7adrZY_10nexus_core12graph_simpleNtB5_5Graph18get_nodes_by_label
FN:515,_RNvMs6_NtCs4yQ6d7adrZY_10nexus_core12graph_simpleNtB5_5Graph20calculate_leaf_nodes
FN:530,_RNvMs6_NtCs4yQ6d7adrZY_10nexus_core12graph_simpleNtB5_5Graph20calculate_self_loops
FN:686,_RNvMs6_NtCs4yQ6d7adrZY_10nexus_core12graph_simpleNtB5_5Graph20shortest_path_length
FN:478,_RNvMs6_NtCs4yQ6d7adrZY_10nexus_core12graph_simpleNtB5_5Graph23calculate_graph_density
FN:503,_RNvMs6_NtCs4yQ6d7adrZY_10nexus_core12graph_simpleNtB5_5Graph24calculate_isolated_nodes
FN:636,_RNvMs6_NtCs4yQ6d7adrZY_10nexus_core12graph_simpleNtB5_5Graph25calculate_path_statistics
FN:455,_RNvMs6_NtCs4yQ6d7adrZY_10nexus_core12graph_simpleNtB5_5Graph27calculate_degree_statistics
FN:538,_RNvMs6_NtCs4yQ6d7adrZY_10nexus_core12graph_simpleNtB5_5Graph29calculate_bidirectional_edges
FN:488,_RNvMs6_NtCs4yQ6d7adrZY_10nexus_core12graph_simpleNtB5_5Graph30calculate_connected_components
FN:675,_RNvMs6_NtCs4yQ6d7adrZY_10nexus_core12graph_simpleNtB5_5Graph30calculate_edge_type_statistics
FN:662,_RNvMs6_NtCs4yQ6d7adrZY_10nexus_core12graph_simpleNtB5_5Graph30calculate_node_type_statistics
FN:586,_RNvMs6_NtCs4yQ6d7adrZY_10nexus_core12graph_simpleNtB5_5Graph36calculate_avg_clustering_coefficient
FN:267,_RNvMs6_NtCs4yQ6d7adrZY_10nexus_core12graph_simpleNtB5_5Graph3new
FN:414,_RNvMs6_NtCs4yQ6d7adrZY_10nexus_core12graph_simpleNtB5_5Graph5clear
FN:422,_RNvMs6_NtCs4yQ6d7adrZY_10nexus_core12graph_simpleNtB5_5Graph5stats
FN:346,_RNvMs6_NtCs4yQ6d7adrZY_10nexus_core12graph_simpleNtB5_5Graph8get_edge
FN:288,_RNvMs6_NtCs4yQ6d7adrZY_10nexus_core12graph_simpleNtB5_5Graph8get_node
FN:573,_RNvMs6_NtCs4yQ6d7adrZY_10nexus_core12graph_simpleNtB5_5Graph9dfs_visit
FN:30,_RNvXs0_NtCs4yQ6d7adrZY_10nexus_core12graph_simpleyINtNtCs9Kp62OsN3pY_4core7convert4FromNtB5_6NodeIdE4from
FN:52,_RNvXs2_NtCs4yQ6d7adrZY_10nexus_core12graph_simpleNtB5_6EdgeIdINtNtCs9Kp62OsN3pY_4core7convert4FromyE4from
FN:58,_RNvXs3_NtCs4yQ6d7adrZY_10nexus_core12graph_simpleyINtNtCs9Kp62OsN3pY_4core7convert4FromNtB5_6EdgeIdE4from
FN:728,_RNvXs7_NtCs4yQ6d7adrZY_10nexus_core12graph_simpleNtB5_5GraphNtNtCs9Kp62OsN3pY_4core7default7Default7default
FN:734,_RNvXs8_NtCs4yQ6d7adrZY_10nexus_core12graph_simpleNtB5_5GraphNtNtCs9Kp62OsN3pY_4core3fmt5Debug3fmt
FN:24,_RNvXs_NtCs4yQ6d7adrZY_10nexus_core12graph_simpleNtB4_6NodeIdINtNtCs9Kp62OsN3pY_4core7convert4FromyE4from
FN:102,_RNvMs4_NtCs7bzfDg8Kx2o_10nexus_core12graph_simpleNtB5_4Node15with_properties
FN:195,_RNvMs5_NtCs7bzfDg8Kx2o_10nexus_core12graph_simpleNtB5_4Edge15with_properties
FN:409,_RNvMs6_NtCs7bzfDg8Kx2o_10nexus_core12graph_simpleNtB5_5Graph10edge_count
FN:404,_RNvMs6_NtCs7bzfDg8Kx2o_10nexus_core12graph_simpleNtB5_5Graph10node_count
FN:372,_RNvMs6_NtCs7bzfDg8Kx2o_10nexus_core12graph_simpleNtB5_5Graph13get_all_edges
FN:30,_RNvXs0_NtCs7bzfDg8Kx2o_10nexus_core12graph_simpleyINtNtCs9Kp62OsN3pY_4core7convert4FromNtB5_6NodeIdE4from
FN:52,_RNvXs2_NtCs7bzfDg8Kx2o_10nexus_core12graph_simpleNtB5_6EdgeIdINtNtCs9Kp62OsN3pY_4core7convert4FromyE4from
FN:58,_RNvXs3_NtCs7bzfDg8Kx2o_10nexus_core12graph_simpleyINtNtCs9Kp62OsN3pY_4core7convert4FromNtB5_6EdgeIdE4from
FN:728,_RNvXs7_NtCs7bzfDg8Kx2o_10nexus_core12graph_simpleNtB5_5GraphNtNtCs9Kp62OsN3pY_4core7default7Default7default
FN:734,_RNvXs8_NtCs7bzfDg8Kx2o_10nexus_core12graph_simpleNtB5_5GraphNtNtCs9Kp62OsN3pY_4core3fmt5Debug3fmt
FN:24,_RNvXs_NtCs7bzfDg8Kx2o_10nexus_core12graph_simpleNtB4_6NodeIdINtNtCs9Kp62OsN3pY_4core7convert4FromyE4from
FN:1115,_RNvNtNtCs7bzfDg8Kx2o_10nexus_core12graph_simple5testss_16test_clear_graph
FN:956,_RNvNtNtCs7bzfDg8Kx2o_10nexus_core12graph_simple5testss_16test_graph_stats
FN:832,_RNvNtNtCs7bzfDg8Kx2o_10nexus_core12graph_simple5testss_18test_edge_creation
FN:883,_RNvNtNtCs7bzfDg8Kx2o_10nexus_core12graph_simple5testss_18test_edge_deletion
FN:1095,_RNvNtNtCs7bzfDg8Kx2o_10nexus_core12graph_simple5testss_18test_edge_is_empty
FN:784,_RNvNtNtCs7bzfDg8Kx2o_10nexus_core12graph_simple5testss_18test_node_creation
FN:871,_RNvNtNtCs7bzfDg8Kx2o_10nexus_core12graph_simple5testss_18test_node_deletion
FN:1080,_RNvNtNtCs7bzfDg8Kx2o_10nexus_core12graph_simple5testss_18test_node_is_empty
FN:997,_RNvNtNtCs7bzfDg8Kx2o_10nexus_core12graph_simple5testss_19test_edge_other_end
FN:851,_RNvNtNtCs7bzfDg8Kx2o_10nexus_core12graph_simple5testss_20test_edge_properties
FN:811,_RNvNtNtCs7bzfDg8Kx2o_10nexus_core12graph_simple5testss_20test_node_properties
FN:915,_RNvNtNtCs7bzfDg8Kx2o_10nexus_core12graph_simple5testss_22test_get_edges_by_type
FN:937,_RNvNtNtCs7bzfDg8Kx2o_10nexus_core12graph_simple5testss_23test_get_edges_for_node
FN:900,_RNvNtNtCs7bzfDg8Kx2o_10nexus_core12graph_simple5testss_23test_get_nodes_by_label
FN:971,_RNvNtNtCs7bzfDg8Kx2o_10nexus_core12graph_simple5testss_26test_node_label_operations
FN:1046,_RNvNtNtCs7bzfDg8Kx2o_10nexus_core12graph_simple5testss_29test_edge_property_operations
FN:1014,_RNvNtNtCs7bzfDg8Kx2o_10nexus_core12graph_simple5testss_29test_node_property_operations
FN:797,_RNvNtNtCs7bzfDg8Kx2o_10nexus_core12graph_simple5testss_30test_node_with_multiple_labels
FN:1139,_RNvNtNtCs7bzfDg8Kx2o_10nexus_core12graph_simple5testss_41test_edge_creation_with_nonexistent_nodes
FN:1150,_RNvNtNtCs7bzfDg8Kx2o_10nexus_core12graph_simple5testss_42test_node_deletion_removes_connected_edges
FN:522,_RNCNCNvMs6_NtCs7bzfDg8Kx2o_10nexus_core12graph_simpleNtB9_5Graph20calculate_leaf_nodes00Bb_
FN:509,_RNCNCNvMs6_NtCs7bzfDg8Kx2o_10nexus_core12graph_simpleNtB9_5Graph24calculate_isolated_nodes00Bb_
FN:123,_RNCNvMs4_NtCs7bzfDg8Kx2o_10nexus_core12graph_simpleNtB7_4Node12remove_label0B9_
FN:308,_RNCNvMs6_NtCs7bzfDg8Kx2o_10nexus_core12graph_simpleNtB7_5Graph11delete_node0B9_
FN:390,_RNCNvMs6_NtCs7bzfDg8Kx2o_10nexus_core12graph_simpleNtB7_5Graph17get_edges_by_type0B9_
FN:399,_RNCNvMs6_NtCs7bzfDg8Kx2o_10nexus_core12graph_simpleNtB7_5Graph18get_edges_for_node0B9_
FN:381,_RNCNvMs6_NtCs7bzfDg8Kx2o_10nexus_core12graph_simpleNtB7_5Graph18get_nodes_by_label0B9_
FN:518,_RNCNvMs6_NtCs7bzfDg8Kx2o_10nexus_core12graph_simpleNtB7_5Graph20calculate_leaf_nodes0B9_
FN:533,_RNCNvMs6_NtCs7bzfDg8Kx2o_10nexus_core12graph_simpleNtB7_5Graph20calculate_self_loops0B9_
FN:506,_RNCNvMs6_NtCs7bzfDg8Kx2o_10nexus_core12graph_simpleNtB7_5Graph24calculate_isolated_nodes0B9_
FN:461,_RNCNvMs6_NtCs7bzfDg8Kx2o_10nexus_core12graph_simpleNtB7_5Graph27calculate_degree_statistics0B9_
FN:472,_RNCNvMs6_NtCs7bzfDg8Kx2o_10nexus_core12graph_simpleNtB7_5Graph27calculate_degree_statisticss0_0B9_
FN:471,_RNCNvMs6_NtCs7bzfDg8Kx2o_10nexus_core12graph_simpleNtB7_5Graph27calculate_degree_statisticss_0B9_
FN:557,_RNCNvMs6_NtCs7bzfDg8Kx2o_10nexus_core12graph_simpleNtB7_5Graph29calculate_bidirectional_edges0B9_
FN:561,_RNCNvMs6_NtCs7bzfDg8Kx2o_10nexus_core12graph_simpleNtB7_5Graph29calculate_bidirectional_edgess_0B9_
FN:594,_RNCNvMs6_NtCs7bzfDg8Kx2o_10nexus_core12graph_simpleNtB7_5Graph36calculate_avg_clustering_coefficient0B9_
FN:612,_RNCNvMs6_NtCs7bzfDg8Kx2o_10nexus_core12graph_simpleNtB7_5Graph36calculate_avg_clustering_coefficients_0B9_
FN:13,_RNvMNtCs7bzfDg8Kx2o_10nexus_core12graph_simpleNtB2_6NodeId3new
FN:18,_RNvMNtCs7bzfDg8Kx2o_10nexus_core12graph_simpleNtB2_6NodeId5value
FN:41,_RNvMs1_NtCs7bzfDg8Kx2o_10nexus_core12graph_simpleNtB5_6EdgeId3new
FN:46,_RNvMs1_NtCs7bzfDg8Kx2o_10nexus_core12graph_simpleNtB5_6EdgeId5value
FN:142,_RNvMs4_NtCs7bzfDg8Kx2o_10nexus_core12graph_simpleNtB5_4Node12get_property
FN:152,_RNvMs4_NtCs7bzfDg8Kx2o_10nexus_core12graph_simpleNtB5_4Node12has_property
FN:122,_RNvMs4_NtCs7bzfDg8Kx2o_10nexus_core12graph_simpleNtB5_4Node12remove_label
FN:137,_RNvMs4_NtCs7bzfDg8Kx2o_10nexus_core12graph_simpleNtB5_4Node12set_property
FN:157,_RNvMs4_NtCs7bzfDg8Kx2o_10nexus_core12graph_simpleNtB5_4Node13property_keys
FN:147,_RNvMs4_NtCs7bzfDg8Kx2o_10nexus_core12graph_simpleNtB5_4Node15remove_property
FN:93,_RNvMs4_NtCs7bzfDg8Kx2o_10nexus_core12graph_simpleNtB5_4Node3new
FN:162,_RNvMs4_NtCs7bzfDg8Kx2o_10nexus_core12graph_simpleNtB5_4Node8is_empty
FN:115,_RNvMs4_NtCs7bzfDg8Kx2o_10nexus_core12graph_simpleNtB5_4Node9add_label
FN:132,_RNvMs4_NtCs7bzfDg8Kx2o_10nexus_core12graph_simpleNtB5_4Node9has_label
FN:217,_RNvMs5_NtCs7bzfDg8Kx2o_10nexus_core12graph_simpleNtB5_4Edge12get_property
FN:227,_RNvMs5_NtCs7bzfDg8Kx2o_10nexus_core12graph_simpleNtB5_4Edge12has_property
FN:212,_RNvMs5_NtCs7bzfDg8Kx2o_10nexus_core12graph_simpleNtB5_4Edge12set_property
FN:232,_RNvMs5_NtCs7bzfDg8Kx2o_10nexus_core12graph_simpleNtB5_4Edge13property_keys
FN:222,_RNvMs5_NtCs7bzfDg8Kx2o_10nexus_core12graph_simpleNtB5_4Edge15remove_property
FN:184,_RNvMs5_NtCs7bzfDg8Kx2o_10nexus_core12graph_simpleNtB5_4Edge3new
FN:237,_RNvMs5_NtCs7bzfDg8Kx2o_10nexus_core12graph_simpleNtB5_4Edge8is_empty
FN:242,_RNvMs5_NtCs7bzfDg8Kx2o_10nexus_core12graph_simpleNtB5_4Edge9other_end
FN:316,_RNvMs6_NtCs7bzfDg8Kx2o_10nexus_core12graph_simpleNtB5_5Graph11create_edge
FN:277,_RNvMs6_NtCs7bzfDg8Kx2o_10nexus_core12graph_simpleNtB5_5Graph11create_node
FN:362,_RNvMs6_NtCs7bzfDg8Kx2o_10nexus_core12graph_simpleNtB5_5Graph11delete_edge
FN:304,_RNvMs6_NtCs7bzfDg8Kx2o_10nexus_core12graph_simpleNtB5_5Graph11delete_node
FN:356,_RNvMs6_NtCs7bzfDg8Kx2o_10nexus_core12graph_simpleNtB5_5Graph11update_edge
FN:298,_RNvMs6_NtCs7bzfDg8Kx2o_10nexus_core12graph_simpleNtB5_5Graph11update_node
FN:351,_RNvMs6_NtCs7bzfDg8Kx2o_10nexus_core12graph_simpleNtB5_5Graph12get_edge_mut
FN:293,_RNvMs6_NtCs7bzfDg8Kx2o_10nexus_core12graph_simpleNtB5_5Graph12get_node_mut
FN:367,_RNvMs6_NtCs7bzfDg8Kx2o_10nexus_core12graph_simpleNtB5_5Graph13get_all_nodes
FN:386,_RNvMs6_NtCs7bzfDg8Kx2o_10nexus_core12graph_simpleNtB5_5Graph17get_edges_by_type
FN:395,_RNvMs6_NtCs7bzfDg8Kx2o_10nexus_core12graph_simpleNtB5_5Graph18get_edges_for_node
FN:377,_RNvMs6_NtCs7bzfDg8Kx2o_10nexus_core12graph_simpleNtB5_5Graph18get_nodes_by_label
FN:515,_RNvMs6_NtCs7bzfDg8Kx2o_10nexus_core12graph_simpleNtB5_5Graph20calculate_leaf_nodes
FN:530,_RNvMs6_NtCs7bzfDg8Kx2o_10nexus_core12graph_simpleNtB5_5Graph20calculate_self_loops
FN:686,_RNvMs6_NtCs7bzfDg8Kx2o_10nexus_core12graph_simpleNtB5_5Graph20shortest_path_length
FN:478,_RNvMs6_NtCs7bzfDg8Kx2o_10nexus_core12graph_simpleNtB5_5Graph23calculate_graph_density
FN:503,_RNvMs6_NtCs7bzfDg8Kx2o_10nexus_core12graph_simpleNtB5_5Graph24calculate_isolated_nodes
FN:636,_RNvMs6_NtCs7bzfDg8Kx2o_10nexus_core12graph_simpleNtB5_5Graph25calculate_path_statistics
FN:455,_RNvMs6_NtCs7bzfDg8Kx2o_10nexus_core12graph_simpleNtB5_5Graph27calculate_degree_statistics
FN:538,_RNvMs6_NtCs7bzfDg8Kx2o_10nexus_core12graph_simpleNtB5_5Graph29calculate_bidirectional_edges
FN:488,_RNvMs6_NtCs7bzfDg8Kx2o_10nexus_core12graph_simpleNtB5_5Graph30calculate_connected_components
FN:675,_RNvMs6_NtCs7bzfDg8Kx2o_10nexus_core12graph_simpleNtB5_5Graph30calculate_edge_type_statistics
FN:662,_RNvMs6_NtCs7bzfDg8Kx2o_10nexus_core12graph_simpleNtB5_5Graph30calculate_node_type_statistics
FN:586,_RNvMs6_NtCs7bzfDg8Kx2o_10nexus_core12graph_simpleNtB5_5Graph36calculate_avg_clustering_coefficient
FN:267,_RNvMs6_NtCs7bzfDg8Kx2o_10nexus_core12graph_simpleNtB5_5Graph3new
FN:414,_RNvMs6_NtCs7bzfDg8Kx2o_10nexus_core12graph_simpleNtB5_5Graph5clear
FN:422,_RNvMs6_NtCs7bzfDg8Kx2o_10nexus_core12graph_simpleNtB5_5Graph5stats
FN:346,_RNvMs6_NtCs7bzfDg8Kx2o_10nexus_core12graph_simpleNtB5_5Graph8get_edge
FN:288,_RNvMs6_NtCs7bzfDg8Kx2o_10nexus_core12graph_simpleNtB5_5Graph8get_node
FN:573,_RNvMs6_NtCs7bzfDg8Kx2o_10nexus_core12graph_simpleNtB5_5Graph9dfs_visit
FNDA:0,_RNCNCNvMs6_NtCs4yQ6d7adrZY_10nexus_core12graph_simpleNtB9_5Graph20calculate_leaf_nodes00Bb_
FNDA:0,_RNCNCNvMs6_NtCs4yQ6d7adrZY_10nexus_core12graph_simpleNtB9_5Graph24calculate_isolated_nodes00Bb_
FNDA:0,_RNCNvMs4_NtCs4yQ6d7adrZY_10nexus_core12graph_simpleNtB7_4Node12remove_label0B9_
FNDA:0,_RNCNvMs6_NtCs4yQ6d7adrZY_10nexus_core12graph_simpleNtB7_5Graph11delete_node0B9_
FNDA:0,_RNCNvMs6_NtCs4yQ6d7adrZY_10nexus_core12graph_simpleNtB7_5Graph17get_edges_by_type0B9_
FNDA:0,_RNCNvMs6_NtCs4yQ6d7adrZY_10nexus_core12graph_simpleNtB7_5Graph18get_edges_for_node0B9_
FNDA:0,_RNCNvMs6_NtCs4yQ6d7adrZY_10nexus_core12graph_simpleNtB7_5Graph18get_nodes_by_label0B9_
FNDA:0,_RNCNvMs6_NtCs4yQ6d7adrZY_10nexus_core12graph_simpleNtB7_5Graph20calculate_leaf_nodes0B9_
FNDA:0,_RNCNvMs6_NtCs4yQ6d7adrZY_10nexus_core12graph_simpleNtB7_5Graph20calculate_self_loops0B9_
FNDA:0,_RNCNvMs6_NtCs4yQ6d7adrZY_10nexus_core12graph_simpleNtB7_5Graph24calculate_isolated_nodes0B9_
FNDA:0,_RNCNvMs6_NtCs4yQ6d7adrZY_10nexus_core12graph_simpleNtB7_5Graph27calculate_degree_statistics0B9_
FNDA:0,_RNCNvMs6_NtCs4yQ6d7adrZY_10nexus_core12graph_simpleNtB7_5Graph27calculate_degree_statisticss0_0B9_
FNDA:0,_RNCNvMs6_NtCs4yQ6d7adrZY_10nexus_core12graph_simpleNtB7_5Graph27calculate_degree_statisticss_0B9_
FNDA:0,_RNCNvMs6_NtCs4yQ6d7adrZY_10nexus_core12graph_simpleNtB7_5Graph29calculate_bidirectional_edges0B9_
FNDA:0,_RNCNvMs6_NtCs4yQ6d7adrZY_10nexus_core12graph_simpleNtB7_5Graph29calculate_bidirectional_edgess_0B9_
FNDA:0,_RNCNvMs6_NtCs4yQ6d7adrZY_10nexus_core12graph_simpleNtB7_5Graph36calculate_avg_clustering_coefficient0B9_
FNDA:0,_RNCNvMs6_NtCs4yQ6d7adrZY_10nexus_core12graph_simpleNtB7_5Graph36calculate_avg_clustering_coefficients_0B9_
FNDA:0,_RNvMNtCs4yQ6d7adrZY_10nexus_core12graph_simpleNtB2_6NodeId3new
FNDA:0,_RNvMNtCs4yQ6d7adrZY_10nexus_core12graph_simpleNtB2_6NodeId5value
FNDA:0,_RNvMs1_NtCs4yQ6d7adrZY_10nexus_core12graph_simpleNtB5_6EdgeId3new
FNDA:0,_RNvMs1_NtCs4yQ6d7adrZY_10nexus_core12graph_simpleNtB5_6EdgeId5value
FNDA:0,_RNvMs4_NtCs4yQ6d7adrZY_10nexus_core12graph_simpleNtB5_4Node12get_property
FNDA:0,_RNvMs4_NtCs4yQ6d7adrZY_10nexus_core12graph_simpleNtB5_4Node12has_property
FNDA:0,_RNvMs4_NtCs4yQ6d7adrZY_10nexus_core12graph_simpleNtB5_4Node12remove_label
FNDA:0,_RNvMs4_NtCs4yQ6d7adrZY_10nexus_core12graph_simpleNtB5_4Node12set_property
FNDA:0,_RNvMs4_NtCs4yQ6d7adrZY_10nexus_core12graph_simpleNtB5_4Node13property_keys
FNDA:0,_RNvMs4_NtCs4yQ6d7adrZY_10nexus_core12graph_simpleNtB5_4Node15remove_property
FNDA:0,_RNvMs4_NtCs4yQ6d7adrZY_10nexus_core12graph_simpleNtB5_4Node15with_properties
FNDA:0,_RNvMs4_NtCs4yQ6d7adrZY_10nexus_core12graph_simpleNtB5_4Node3new
FNDA:0,_RNvMs4_NtCs4yQ6d7adrZY_10nexus_core12graph_simpleNtB5_4Node8is_empty
FNDA:0,_RNvMs4_NtCs4yQ6d7adrZY_10nexus_core12graph_simpleNtB5_4Node9add_label
FNDA:0,_RNvMs4_NtCs4yQ6d7adrZY_10nexus_core12graph_simpleNtB5_4Node9has_label
FNDA:0,_RNvMs5_NtCs4yQ6d7adrZY_10nexus_core12graph_simpleNtB5_4Edge12get_property
FNDA:0,_RNvMs5_NtCs4yQ6d7adrZY_10nexus_core12graph_simpleNtB5_4Edge12has_property
FNDA:0,_RNvMs5_NtCs4yQ6d7adrZY_10nexus_core12graph_simpleNtB5_4Edge12set_property
FNDA:0,_RNvMs5_NtCs4yQ6d7adrZY_10nexus_core12graph_simpleNtB5_4Edge13property_keys
FNDA:0,_RNvMs5_NtCs4yQ6d7adrZY_10nexus_core12graph_simpleNtB5_4Edge15remove_property
FNDA:0,_RNvMs5_NtCs4yQ6d7adrZY_10nexus_core12graph_simpleNtB5_4Edge15with_properties
FNDA:0,_RNvMs5_NtCs4yQ6d7adrZY_10nexus_core12graph_simpleNtB5_4Edge3new
FNDA:0,_RNvMs5_NtCs4yQ6d7adrZY_10nexus_core12graph_simpleNtB5_4Edge8is_empty
FNDA:0,_RNvMs5_NtCs4yQ6d7adrZY_10nexus_core12graph_simpleNtB5_4Edge9other_end
FNDA:0,_RNvMs6_NtCs4yQ6d7adrZY_10nexus_core12graph_simpleNtB5_5Graph10edge_count
FNDA:0,_RNvMs6_NtCs4yQ6d7adrZY_10nexus_core12graph_simpleNtB5_5Graph10node_count
FNDA:0,_RNvMs6_NtCs4yQ6d7adrZY_10nexus_core12graph_simpleNtB5_5Graph11create_edge
FNDA:0,_RNvMs6_NtCs4yQ6d7adrZY_10nexus_core12graph_simpleNtB5_5Graph11create_node
FNDA:0,_RNvMs6_NtCs4yQ6d7adrZY_10nexus_core12graph_simpleNtB5_5Graph11delete_edge
FNDA:0,_RNvMs6_NtCs4yQ6d7adrZY_10nexus_core12graph_simpleNtB5_5Graph11delete_node
FNDA:0,_RNvMs6_NtCs4yQ6d7adrZY_10nexus_core12graph_simpleNtB5_5Graph11update_edge
FNDA:0,_RNvMs6_NtCs4yQ6d7adrZY_10nexus_core12graph_simpleNtB5_5Graph11update_node
FNDA:0,_RNvMs6_NtCs4yQ6d7adrZY_10nexus_core12graph_simpleNtB5_5Graph12get_edge_mut
FNDA:0,_RNvMs6_NtCs4yQ6d7adrZY_10nexus_core12graph_simpleNtB5_5Graph12get_node_mut
FNDA:0,_RNvMs6_NtCs4yQ6d7adrZY_10nexus_core12graph_simpleNtB5_5Graph13get_all_edges
FNDA:0,_RNvMs6_NtCs4yQ6d7adrZY_10nexus_core12graph_simpleNtB5_5Graph13get_all_nodes
FNDA:0,_RNvMs6_NtCs4yQ6d7adrZY_10nexus_core12graph_simpleNtB5_5Graph17get_edges_by_type
FNDA:0,_RNvMs6_NtCs4yQ6d7adrZY_10nexus_core12graph_simpleNtB5_5Graph18get_edges_for_node
FNDA:0,_RNvMs6_NtCs4yQ6d7adrZY_10nexus_core12graph_simpleNtB5_5Graph18get_nodes_by_label
FNDA:0,_RNvMs6_NtCs4yQ6d7adrZY_10nexus_core12graph_simpleNtB5_5Graph20calculate_leaf_nodes
FNDA:0,_RNvMs6_NtCs4yQ6d7adrZY_10nexus_core12graph_simpleNtB5_5Graph20calculate_self_loops
FNDA:0,_RNvMs6_NtCs4yQ6d7adrZY_10nexus_core12graph_simpleNtB5_5Graph20shortest_path_length
FNDA:0,_RNvMs6_NtCs4yQ6d7adrZY_10nexus_core12graph_simpleNtB5_5Graph23calculate_graph_density
FNDA:0,_RNvMs6_NtCs4yQ6d7adrZY_10nexus_core12graph_simpleNtB5_5Graph24calculate_isolated_nodes
FNDA:0,_RNvMs6_NtCs4yQ6d7adrZY_10nexus_core12graph_simpleNtB5_5Graph25calculate_path_statistics
FNDA:0,_RNvMs6_NtCs4yQ6d7adrZY_10nexus_core12graph_simpleNtB5_5Graph27calculate_degree_statistics
FNDA:0,_RNvMs6_NtCs4yQ6d7adrZY_10nexus_core12graph_simpleNtB5_5Graph29calculate_bidirectional_edges
FNDA:0,_RNvMs6_NtCs4yQ6d7adrZY_10nexus_core12graph_simpleNtB5_5Graph30calculate_connected_components
FNDA:0,_RNvMs6_NtCs4yQ6d7adrZY_10nexus_core12graph_simpleNtB5_5Graph30calculate_edge_type_statistics
FNDA:0,_RNvMs6_NtCs4yQ6d7adrZY_10nexus_core12graph_simpleNtB5_5Graph30calculate_node_type_statistics
FNDA:0,_RNvMs6_NtCs4yQ6d7adrZY_10nexus_core12graph_simpleNtB5_5Graph36calculate_avg_clustering_coefficient
FNDA:0,_RNvMs6_NtCs4yQ6d7adrZY_10nexus_core12graph_simpleNtB5_5Graph3new
FNDA:0,_RNvMs6_NtCs4yQ6d7adrZY_10nexus_core12graph_simpleNtB5_5Graph5clear
FNDA:0,_RNvMs6_NtCs4yQ6d7adrZY_10nexus_core12graph_simpleNtB5_5Graph5stats
FNDA:0,_RNvMs6_NtCs4yQ6d7adrZY_10nexus_core12graph_simpleNtB5_5Graph8get_edge
FNDA:0,_RNvMs6_NtCs4yQ6d7adrZY_10nexus_core12graph_simpleNtB5_5Graph8get_node
FNDA:0,_RNvMs6_NtCs4yQ6d7adrZY_10nexus_core12graph_simpleNtB5_5Graph9dfs_visit
FNDA:0,_RNvXs0_NtCs4yQ6d7adrZY_10nexus_core12graph_simpleyINtNtCs9Kp62OsN3pY_4core7convert4FromNtB5_6NodeIdE4from
FNDA:0,_RNvXs2_NtCs4yQ6d7adrZY_10nexus_core12graph_simpleNtB5_6EdgeIdINtNtCs9Kp62OsN3pY_4core7convert4FromyE4from
FNDA:0,_RNvXs3_NtCs4yQ6d7adrZY_10nexus_core12graph_simpleyINtNtCs9Kp62OsN3pY_4core7convert4FromNtB5_6EdgeIdE4from
FNDA:0,_RNvXs7_NtCs4yQ6d7adrZY_10nexus_core12graph_simpleNtB5_5GraphNtNtCs9Kp62OsN3pY_4core7default7Default7default
FNDA:0,_RNvXs8_NtCs4yQ6d7adrZY_10nexus_core12graph_simpleNtB5_5GraphNtNtCs9Kp62OsN3pY_4core3fmt5Debug3fmt
FNDA:0,_RNvXs_NtCs4yQ6d7adrZY_10nexus_core12graph_simpleNtB4_6NodeIdINtNtCs9Kp62OsN3pY_4core7convert4FromyE4from
FNDA:0,_RNvMs4_NtCs7bzfDg8Kx2o_10nexus_core12graph_simpleNtB5_4Node15with_properties
FNDA:0,_RNvMs5_NtCs7bzfDg8Kx2o_10nexus_core12graph_simpleNtB5_4Edge15with_properties
FNDA:0,_RNvMs6_NtCs7bzfDg8Kx2o_10nexus_core12graph_simpleNtB5_5Graph10edge_count
FNDA:0,_RNvMs6_NtCs7bzfDg8Kx2o_10nexus_core12graph_simpleNtB5_5Graph10node_count
FNDA:0,_RNvMs6_NtCs7bzfDg8Kx2o_10nexus_core12graph_simpleNtB5_5Graph13get_all_edges
FNDA:0,_RNvXs0_NtCs7bzfDg8Kx2o_10nexus_core12graph_simpleyINtNtCs9Kp62OsN3pY_4core7convert4FromNtB5_6NodeIdE4from
FNDA:0,_RNvXs2_NtCs7bzfDg8Kx2o_10nexus_core12graph_simpleNtB5_6EdgeIdINtNtCs9Kp62OsN3pY_4core7convert4FromyE4from
FNDA:0,_RNvXs3_NtCs7bzfDg8Kx2o_10nexus_core12graph_simpleyINtNtCs9Kp62OsN3pY_4core7convert4FromNtB5_6EdgeIdE4from
FNDA:0,_RNvXs7_NtCs7bzfDg8Kx2o_10nexus_core12graph_simpleNtB5_5GraphNtNtCs9Kp62OsN3pY_4core7default7Default7default
FNDA:0,_RNvXs8_NtCs7bzfDg8Kx2o_10nexus_core12graph_simpleNtB5_5GraphNtNtCs9Kp62OsN3pY_4core3fmt5Debug3fmt
FNDA:0,_RNvXs_NtCs7bzfDg8Kx2o_10nexus_core12graph_simpleNtB4_6NodeIdINtNtCs9Kp62OsN3pY_4core7convert4FromyE4from
FNDA:1,_RNvNtNtCs7bzfDg8Kx2o_10nexus_core12graph_simple5testss_16test_clear_graph
FNDA:1,_RNvNtNtCs7bzfDg8Kx2o_10nexus_core12graph_simple5testss_16test_graph_stats
FNDA:1,_RNvNtNtCs7bzfDg8Kx2o_10nexus_core12graph_simple5testss_18test_edge_creation
FNDA:1,_RNvNtNtCs7bzfDg8Kx2o_10nexus_core12graph_simple5testss_18test_edge_deletion
FNDA:1,_RNvNtNtCs7bzfDg8Kx2o_10nexus_core12graph_simple5testss_18test_edge_is_empty
FNDA:1,_RNvNtNtCs7bzfDg8Kx2o_10nexus_core12graph_simple5testss_18test_node_creation
FNDA:1,_RNvNtNtCs7bzfDg8Kx2o_10nexus_core12graph_simple5testss_18test_node_deletion
FNDA:1,_RNvNtNtCs7bzfDg8Kx2o_10nexus_core12graph_simple5testss_18test_node_is_empty
FNDA:1,_RNvNtNtCs7bzfDg8Kx2o_10nexus_core12graph_simple5testss_19test_edge_other_end
FNDA:1,_RNvNtNtCs7bzfDg8Kx2o_10nexus_core12graph_simple5testss_20test_edge_properties
FNDA:1,_RNvNtNtCs7bzfDg8Kx2o_10nexus_core12graph_simple5testss_20test_node_properties
FNDA:1,_RNvNtNtCs7bzfDg8Kx2o_10nexus_core12graph_simple5testss_22test_get_edges_by_type
FNDA:1,_RNvNtNtCs7bzfDg8Kx2o_10nexus_core12graph_simple5testss_23test_get_edges_for_node
FNDA:1,_RNvNtNtCs7bzfDg8Kx2o_10nexus_core12graph_simple5testss_23test_get_nodes_by_label
FNDA:1,_RNvNtNtCs7bzfDg8Kx2o_10nexus_core12graph_simple5testss_26test_node_label_operations
FNDA:1,_RNvNtNtCs7bzfDg8Kx2o_10nexus_core12graph_simple5testss_29test_edge_property_operations
FNDA:1,_RNvNtNtCs7bzfDg8Kx2o_10nexus_core12graph_simple5testss_29test_node_property_operations
FNDA:1,_RNvNtNtCs7bzfDg8Kx2o_10nexus_core12graph_simple5testss_30test_node_with_multiple_labels
FNDA:1,_RNvNtNtCs7bzfDg8Kx2o_10nexus_core12graph_simple5testss_41test_edge_creation_with_nonexistent_nodes
FNDA:1,_RNvNtNtCs7bzfDg8Kx2o_10nexus_core12graph_simple5testss_42test_node_deletion_removes_connected_edges
FNDA:2,_RNCNCNvMs6_NtCs7bzfDg8Kx2o_10nexus_core12graph_simpleNtB9_5Graph20calculate_leaf_nodes00Bb_
FNDA:2,_RNCNCNvMs6_NtCs7bzfDg8Kx2o_10nexus_core12graph_simpleNtB9_5Graph24calculate_isolated_nodes00Bb_
FNDA:2,_RNCNvMs4_NtCs7bzfDg8Kx2o_10nexus_core12graph_simpleNtB7_4Node12remove_label0B9_
FNDA:2,_RNCNvMs6_NtCs7bzfDg8Kx2o_10nexus_core12graph_simpleNtB7_5Graph11delete_node0B9_
FNDA:4,_RNCNvMs6_NtCs7bzfDg8Kx2o_10nexus_core12graph_simpleNtB7_5Graph17get_edges_by_type0B9_
FNDA:2,_RNCNvMs6_NtCs7bzfDg8Kx2o_10nexus_core12graph_simpleNtB7_5Graph18get_edges_for_node0B9_
FNDA:6,_RNCNvMs6_NtCs7bzfDg8Kx2o_10nexus_core12graph_simpleNtB7_5Graph18get_nodes_by_label0B9_
FNDA:2,_RNCNvMs6_NtCs7bzfDg8Kx2o_10nexus_core12graph_simpleNtB7_5Graph20calculate_leaf_nodes0B9_
FNDA:1,_RNCNvMs6_NtCs7bzfDg8Kx2o_10nexus_core12graph_simpleNtB7_5Graph20calculate_self_loops0B9_
FNDA:2,_RNCNvMs6_NtCs7bzfDg8Kx2o_10nexus_core12graph_simpleNtB7_5Graph24calculate_isolated_nodes0B9_
FNDA:2,_RNCNvMs6_NtCs7bzfDg8Kx2o_10nexus_core12graph_simpleNtB7_5Graph27calculate_degree_statistics0B9_
FNDA:2,_RNCNvMs6_NtCs7bzfDg8Kx2o_10nexus_core12graph_simpleNtB7_5Graph27calculate_degree_statisticss0_0B9_
FNDA:2,_RNCNvMs6_NtCs7bzfDg8Kx2o_10nexus_core12graph_simpleNtB7_5Graph27calculate_degree_statisticss_0B9_
FNDA:1,_RNCNvMs6_NtCs7bzfDg8Kx2o_10nexus_core12graph_simpleNtB7_5Graph29calculate_bidirectional_edges0B9_
FNDA:1,_RNCNvMs6_NtCs7bzfDg8Kx2o_10nexus_core12graph_simpleNtB7_5Graph29calculate_bidirectional_edgess_0B9_
FNDA:2,_RNCNvMs6_NtCs7bzfDg8Kx2o_10nexus_core12graph_simpleNtB7_5Graph36calculate_avg_clustering_coefficient0B9_
FNDA:0,_RNCNvMs6_NtCs7bzfDg8Kx2o_10nexus_core12graph_simpleNtB7_5Graph36calculate_avg_clustering_coefficients_0B9_
FNDA:100,_RNvMNtCs7bzfDg8Kx2o_10nexus_core12graph_simpleNtB2_6NodeId3new
FNDA:2,_RNvMNtCs7bzfDg8Kx2o_10nexus_core12graph_simpleNtB2_6NodeId5value
FNDA:14,_RNvMs1_NtCs7bzfDg8Kx2o_10nexus_core12graph_simpleNtB5_6EdgeId3new
FNDA:1,_RNvMs1_NtCs7bzfDg8Kx2o_10nexus_core12graph_simpleNtB5_6EdgeId5value
FNDA:26,_RNvMs4_NtCs7bzfDg8Kx2o_10nexus_core12graph_simpleNtB5_4Node12get_property
FNDA:6,_RNvMs4_NtCs7bzfDg8Kx2o_10nexus_core12graph_simpleNtB5_4Node12has_property
FNDA:2,_RNvMs4_NtCs7bzfDg8Kx2o_10nexus_core12graph_simpleNtB5_4Node12remove_label
FNDA:68,_RNvMs4_NtCs7bzfDg8Kx2o_10nexus_core12graph_simpleNtB5_4Node12set_property
FNDA:2,_RNvMs4_NtCs7bzfDg8Kx2o_10nexus_core12graph_simpleNtB5_4Node13property_keys
FNDA:1,_RNvMs4_NtCs7bzfDg8Kx2o_10nexus_core12graph_simpleNtB5_4Node15remove_property
FNDA:76,_RNvMs4_NtCs7bzfDg8Kx2o_10nexus_core12graph_simpleNtB5_4Node3new
FNDA:2,_RNvMs4_NtCs7bzfDg8Kx2o_10nexus_core12graph_simpleNtB5_4Node8is_empty
FNDA:2,_RNvMs4_NtCs7bzfDg8Kx2o_10nexus_core12graph_simpleNtB5_4Node9add_label
FNDA:12,_RNvMs4_NtCs7bzfDg8Kx2o_10nexus_core12graph_simpleNtB5_4Node9has_label
FNDA:1,_RNvMs5_NtCs7bzfDg8Kx2o_10nexus_core12graph_simpleNtB5_4Edge12get_property
FNDA:5,_RNvMs5_NtCs7bzfDg8Kx2o_10nexus_core12graph_simpleNtB5_4Edge12has_property
FNDA:4,_RNvMs5_NtCs7bzfDg8Kx2o_10nexus_core12graph_simpleNtB5_4Edge12set_property
FNDA:2,_RNvMs5_NtCs7bzfDg8Kx2o_10nexus_core12graph_simpleNtB5_4Edge13property_keys
FNDA:1,_RNvMs5_NtCs7bzfDg8Kx2o_10nexus_core12graph_simpleNtB5_4Edge15remove_property
FNDA:14,_RNvMs5_NtCs7bzfDg8Kx2o_10nexus_core12graph_simpleNtB5_4Edge3new
FNDA:2,_RNvMs5_NtCs7bzfDg8Kx2o_10nexus_core12graph_simpleNtB5_4Edge8is_empty
FNDA:3,_RNvMs5_NtCs7bzfDg8Kx2o_10nexus_core12graph_simpleNtB5_4Edge9other_end
FNDA:15,_RNvMs6_NtCs7bzfDg8Kx2o_10nexus_core12graph_simpleNtB5_5Graph11create_edge
FNDA:76,_RNvMs6_NtCs7bzfDg8Kx2o_10nexus_core12graph_simpleNtB5_5Graph11create_node
FNDA:1,_RNvMs6_NtCs7bzfDg8Kx2o_10nexus_core12graph_simpleNtB5_5Graph11delete_edge
FNDA:2,_RNvMs6_NtCs7bzfDg8Kx2o_10nexus_core12graph_simpleNtB5_5Graph11delete_node
FNDA:3,_RNvMs6_NtCs7bzfDg8Kx2o_10nexus_core12graph_simpleNtB5_5Graph11update_edge
FNDA:44,_RNvMs6_NtCs7bzfDg8Kx2o_10nexus_core12graph_simpleNtB5_5Graph11update_node
FNDA:3,_RNvMs6_NtCs7bzfDg8Kx2o_10nexus_core12graph_simpleNtB5_5Graph12get_edge_mut
FNDA:44,_RNvMs6_NtCs7bzfDg8Kx2o_10nexus_core12graph_simpleNtB5_5Graph12get_node_mut
FNDA:10,_RNvMs6_NtCs7bzfDg8Kx2o_10nexus_core12graph_simpleNtB5_5Graph13get_all_nodes
FNDA:2,_RNvMs6_NtCs7bzfDg8Kx2o_10nexus_core12graph_simpleNtB5_5Graph17get_edges_by_type
FNDA:56,_RNvMs6_NtCs7bzfDg8Kx2o_10nexus_core12graph_simpleNtB5_5Graph18get_edges_for_node
FNDA:2,_RNvMs6_NtCs7bzfDg8Kx2o_10nexus_core12graph_simpleNtB5_5Graph18get_nodes_by_label
FNDA:1,_RNvMs6_NtCs7bzfDg8Kx2o_10nexus_core12graph_simpleNtB5_5Graph20calculate_leaf_nodes
FNDA:1,_RNvMs6_NtCs7bzfDg8Kx2o_10nexus_core12graph_simpleNtB5_5Graph20calculate_self_loops
FNDA:2,_RNvMs6_NtCs7bzfDg8Kx2o_10nexus_core12graph_simpleNtB5_5Graph20shortest_path_length
FNDA:1,_RNvMs6_NtCs7bzfDg8Kx2o_10nexus_core12graph_simpleNtB5_5Graph23calculate_graph_density
FNDA:1,_RNvMs6_NtCs7bzfDg8Kx2o_10nexus_core12graph_simpleNtB5_5Graph24calculate_isolated_nodes
FNDA:1,_RNvMs6_NtCs7bzfDg8Kx2o_10nexus_core12graph_simpleNtB5_5Graph25calculate_path_statistics
FNDA:1,_RNvMs6_NtCs7bzfDg8Kx2o_10nexus_core12graph_simpleNtB5_5Graph27calculate_degree_statistics
FNDA:1,_RNvMs6_NtCs7bzfDg8Kx2o_10nexus_core12graph_simpleNtB5_5Graph29calculate_bidirectional_edges
FNDA:1,_RNvMs6_NtCs7bzfDg8Kx2o_10nexus_core12graph_simpleNtB5_5Graph30calculate_connected_components
FNDA:1,_RNvMs6_NtCs7bzfDg8Kx2o_10nexus_core12graph_simpleNtB5_5Graph30calculate_edge_type_statistics
FNDA:1,_RNvMs6_NtCs7bzfDg8Kx2o_10nexus_core12graph_simpleNtB5_5Graph30calculate_node_type_statistics
FNDA:1,_RNvMs6_NtCs7bzfDg8Kx2o_10nexus_core12graph_simpleNtB5_5Graph36calculate_avg_clustering_coefficient
FNDA:30,_RNvMs6_NtCs7bzfDg8Kx2o_10nexus_core12graph_simpleNtB5_5Graph3new
FNDA:1,_RNvMs6_NtCs7bzfDg8Kx2o_10nexus_core12graph_simpleNtB5_5Graph5clear
FNDA:1,_RNvMs6_NtCs7bzfDg8Kx2o_10nexus_core12graph_simpleNtB5_5Graph5stats
FNDA:10,_RNvMs6_NtCs7bzfDg8Kx2o_10nexus_core12graph_simpleNtB5_5Graph8get_edge
FNDA:6,_RNvMs6_NtCs7bzfDg8Kx2o_10nexus_core12graph_simpleNtB5_5Graph8get_node
FNDA:2,_RNvMs6_NtCs7bzfDg8Kx2o_10nexus_core12graph_simpleNtB5_5Graph9dfs_visit
FNF:100
FNH:88
DA:13,100
DA:14,100
DA:15,100
DA:18,2
DA:19,2
DA:20,2
DA:24,0
DA:25,0
DA:26,0
DA:30,0
DA:31,0
DA:32,0
DA:41,14
DA:42,14
DA:43,14
DA:46,1
DA:47,1
DA:48,1
DA:52,0
DA:53,0
DA:54,0
DA:58,0
DA:59,0
DA:60,0
DA:93,76
DA:94,76
DA:95,76
DA:96,76
DA:97,76
DA:98,76
DA:99,76
DA:102,0
DA:103,0
DA:104,0
DA:105,0
DA:106,0
DA:107,0
DA:108,0
DA:109,0
DA:110,0
DA:111,0
DA:112,0
DA:115,2
DA:116,2
DA:117,2
DA:118,2
DA:119,2
DA:122,2
DA:123,2
DA:124,1
DA:125,1
DA:127,1
DA:129,2
DA:132,12
DA:133,12
DA:134,12
DA:137,68
DA:138,68
DA:139,68
DA:142,26
DA:143,26
DA:144,26
DA:147,1
DA:148,1
DA:149,1
DA:152,6
DA:153,6
DA:154,6
DA:157,2
DA:158,2
DA:159,2
DA:162,2
DA:163,2
DA:164,2
DA:184,14
DA:185,14
DA:186,14
DA:187,14
DA:188,14
DA:189,14
DA:190,14
DA:191,14
DA:192,14
DA:195,0
DA:196,0
DA:197,0
DA:198,0
DA:199,0
DA:200,0
DA:201,0
DA:202,0
DA:203,0
DA:204,0
DA:205,0
DA:206,0
DA:207,0
DA:208,0
DA:209,0
DA:212,4
DA:213,4
DA:214,4
DA:217,1
DA:218,1
DA:219,1
DA:222,1
DA:223,1
DA:224,1
DA:227,5
DA:228,5
DA:229,5
DA:232,2
DA:233,2
DA:234,2
DA:237,2
DA:238,2
DA:239,2
DA:242,3
DA:243,3
DA:244,1
DA:245,2
DA:246,1
DA:248,1
DA:250,3
DA:267,30
DA:268,30
DA:269,30
DA:270,30
DA:271,30
DA:272,30
DA:273,30
DA:274,30
DA:277,76
DA:278,76
DA:279,76
DA:281,76
DA:282,76
DA:284,76
DA:285,76
DA:288,6
DA:289,6
DA:290,6
DA:293,44
DA:294,44
DA:295,44
DA:298,44
DA:299,44
DA:300,44
DA:301,44
DA:304,2
DA:305,2
DA:307,2
DA:308,2
DA:309,2
DA:311,0
DA:313,2
DA:316,15
DA:317,15
DA:318,15
DA:319,15
DA:320,15
DA:321,15
DA:323,15
DA:324,1
DA:325,1
DA:326,1
DA:327,1
DA:328,14
DA:329,14
DA:330,0
DA:331,0
DA:332,0
DA:333,0
DA:334,14
DA:336,14
DA:337,14
DA:339,14
DA:340,14
DA:342,14
DA:343,15
DA:346,10
DA:347,10
DA:348,10
DA:351,3
DA:352,3
DA:353,3
DA:356,3
DA:357,3
DA:358,3
DA:359,3
DA:362,1
DA:363,1
DA:364,1
DA:367,10
DA:368,10
DA:369,10
DA:372,0
DA:373,0
DA:374,0
DA:377,2
DA:378,2
DA:379,2
DA:380,2
DA:381,6
DA:382,2
DA:383,2
DA:386,2
DA:387,2
DA:388,2
DA:389,2
DA:390,4
DA:391,2
DA:392,2
DA:395,56
DA:396,56
DA:397,56
DA:398,56
DA:399,56
DA:400,56
DA:401,56
DA:404,0
DA:405,0
DA:406,0
DA:409,0
DA:410,0
DA:411,0
DA:414,1
DA:415,1
DA:416,1
DA:417,1
DA:418,1
DA:419,1
DA:422,1
DA:423,1
DA:424,1
DA:427,1
DA:428,1
DA:429,1
DA:430,1
DA:431,1
DA:432,1
DA:433,1
DA:435,1
DA:436,1
DA:437,1
DA:438,1
DA:439,1
DA:440,1
DA:441,1
DA:442,1
DA:443,1
DA:444,1
DA:445,1
DA:446,1
DA:447,1
DA:448,1
DA:449,1
DA:450,1
DA:451,1
DA:452,1
DA:453,1
DA:455,1
DA:456,1
DA:457,2
DA:458,2
DA:459,2
DA:460,2
DA:461,2
DA:462,2
DA:463,2
DA:466,1
DA:467,0
DA:468,1
DA:470,1
DA:471,2
DA:472,2
DA:474,1
DA:475,1
DA:478,1
DA:479,1
DA:480,0
DA:481,1
DA:483,1
DA:484,1
DA:485,1
DA:488,1
DA:489,1
DA:490,1
DA:492,2
DA:493,2
DA:494,1
DA:495,1
DA:496,1
DA:499,1
DA:500,1
DA:503,1
DA:504,1
DA:505,1
DA:506,2
DA:507,2
DA:508,2
DA:509,2
DA:510,2
DA:511,1
DA:512,1
DA:515,1
DA:516,1
DA:517,1
DA:518,2
DA:519,2
DA:520,2
DA:521,2
DA:522,2
DA:523,2
DA:524,2
DA:525,2
DA:526,1
DA:527,1
DA:530,1
DA:531,1
DA:532,1
DA:533,1
DA:534,1
DA:535,1
DA:538,1
DA:539,1
DA:540,1
DA:542,1
DA:543,1
DA:544,1
DA:546,0
DA:549,1
DA:550,0
DA:551,1
DA:554,1
DA:555,1
DA:556,1
DA:557,1
DA:558,1
DA:559,1
DA:560,1
DA:561,1
DA:563,1
DA:564,0
DA:565,0
DA:566,1
DA:569,1
DA:570,1
DA:573,2
DA:574,2
DA:576,2
DA:577,2
DA:578,0
DA:579,2
DA:580,1
DA:581,1
DA:583,2
DA:586,1
DA:587,1
DA:588,1
DA:590,2
DA:591,2
DA:592,2
DA:593,2
DA:594,2
DA:595,2
DA:596,1
DA:597,1
DA:598,1
DA:600,0
DA:602,2
DA:603,2
DA:605,2
DA:606,2
DA:607,0
DA:609,0
DA:610,0
DA:611,0
DA:612,0
DA:613,0
DA:614,0
DA:615,0
DA:616,0
DA:617,0
DA:621,0
DA:622,0
DA:623,0
DA:624,0
DA:625,0
DA:628,1
DA:629,1
DA:631,0
DA:633,1
DA:636,1
DA:637,1
DA:638,1
DA:639,1
DA:641,2
DA:642,4
DA:643,4
DA:644,2
DA:645,2
DA:646,2
DA:647,2
DA:648,2
DA:649,2
DA:653,1
DA:654,1
DA:656,0
DA:658,1
DA:659,1
DA:662,1
DA:663,1
DA:665,2
DA:666,4
DA:667,2
DA:668,2
DA:671,1
DA:672,1
DA:675,1
DA:676,1
DA:678,1
DA:679,1
DA:680,1
DA:682,1
DA:683,1
DA:686,2
DA:687,2
DA:688,0
DA:689,2
DA:691,2
DA:692,2
DA:693,2
DA:695,2
DA:696,2
DA:697,2
DA:699,2
DA:700,2
DA:702,2
DA:703,2
DA:704,1
DA:705,1
DA:706,1
DA:708,0
DA:711,2
DA:712,2
DA:713,0
DA:715,0
DA:716,0
DA:717,0
DA:718,0
DA:719,0
DA:723,0
DA:724,2
DA:728,0
DA:729,0
DA:730,0
DA:734,0
DA:735,0
DA:736,0
DA:737,0
DA:738,0
DA:739,0
DA:784,1
DA:785,1
DA:787,1
DA:788,1
DA:790,1
DA:791,1
DA:792,1
DA:793,1
DA:794,1
DA:797,1
DA:798,1
DA:800,1
DA:801,1
DA:802,1
DA:804,1
DA:805,1
DA:806,1
DA:807,1
DA:808,1
DA:811,1
DA:812,1
DA:814,1
DA:815,1
DA:817,1
DA:818,1
DA:819,1
DA:821,1
DA:823,1
DA:825,1
DA:826,1
DA:827,1
DA:828,1
DA:829,1
DA:832,1
DA:833,1
DA:835,1
DA:836,1
DA:838,1
DA:839,1
DA:840,1
DA:841,1
DA:843,1
DA:844,1
DA:845,1
DA:846,1
DA:847,1
DA:848,1
DA:851,1
DA:852,1
DA:854,1
DA:855,1
DA:856,1
DA:857,1
DA:858,1
DA:860,1
DA:861,1
DA:863,1
DA:865,1
DA:866,1
DA:867,1
DA:868,1
DA:871,1
DA:872,1
DA:874,1
DA:875,1
DA:877,1
DA:878,1
DA:879,1
DA:880,1
DA:883,1
DA:884,1
DA:886,1
DA:887,1
DA:888,1
DA:889,1
DA:890,1
DA:892,1
DA:894,1
DA:895,1
DA:896,1
DA:897,1
DA:900,1
DA:901,1
DA:903,1
DA:904,1
DA:905,1
DA:907,1
DA:908,1
DA:910,1
DA:911,1
DA:912,1
DA:915,1
DA:916,1
DA:918,1
DA:919,1
DA:920,1
DA:922,1
DA:923,1
DA:924,1
DA:925,1
DA:926,1
DA:927,1
DA:929,1
DA:930,1
DA:932,1
DA:933,1
DA:934,1
DA:937,1
DA:938,1
DA:940,1
DA:941,1
DA:942,1
DA:944,1
DA:945,1
DA:946,1
DA:947,1
DA:948,1
DA:949,1
DA:951,1
DA:952,1
DA:953,1
DA:956,1
DA:957,1
DA:959,1
DA:960,1
DA:961,1
DA:962,1
DA:963,1
DA:965,1
DA:966,1
DA:967,1
DA:968,1
DA:971,1
DA:972,1
DA:974,1
DA:975,1
DA:978,1
DA:979,1
DA:980,1
DA:983,1
DA:984,1
DA:985,1
DA:986,1
DA:987,1
DA:990,1
DA:991,1
DA:993,1
DA:994,1
DA:997,1
DA:998,1
DA:1000,1
DA:1001,1
DA:1002,1
DA:1003,1
DA:1004,1
DA:1006,1
DA:1008,1
DA:1009,1
DA:1010,1
DA:1011,1
DA:1014,1
DA:1015,1
DA:1017,1
DA:1018,1
DA:1021,1
DA:1022,1
DA:1023,1
DA:1025,1
DA:1028,1
DA:1029,1
DA:1030,1
DA:1033,1
DA:1034,1
DA:1037,1
DA:1038,1
DA:1039,1
DA:1040,1
DA:1042,1
DA:1043,1
DA:1046,1
DA:1047,1
DA:1049,1
DA:1050,1
DA:1051,1
DA:1052,1
DA:1053,1
DA:1055,1
DA:1058,1
DA:1059,1
DA:1062,1
DA:1063,1
DA:1064,1
DA:1067,1
DA:1068,1
DA:1071,1
DA:1072,1
DA:1073,1
DA:1074,1
DA:1076,1
DA:1077,1
DA:1080,1
DA:1081,1
DA:1083,1
DA:1084,1
DA:1085,1
DA:1087,1
DA:1088,1
DA:1089,1
DA:1091,1
DA:1092,1
DA:1095,1
DA:1096,1
DA:1098,1
DA:1099,1
DA:1100,1
DA:1101,1
DA:1102,1
DA:1104,1
DA:1105,1
DA:1107,1
DA:1108,1
DA:1109,1
DA:1111,1
DA:1112,1
DA:1115,1
DA:1116,1
DA:1118,1
DA:1119,1
DA:1120,1
DA:1121,1
DA:1122,1
DA:1125,1
DA:1126,1
DA:1129,1
DA:1132,1
DA:1133,1
DA:1134,1
DA:1135,1
DA:1136,1
DA:1139,1
DA:1140,1
DA:1143,1
DA:1145,1
DA:1146,1
DA:1147,1
DA:1150,1
DA:1151,1
DA:1153,1
DA:1154,1
DA:1155,1
DA:1157,1
DA:1158,1
DA:1159,1
DA:1160,1
DA:1161,1
DA:1162,1
DA:1165,1
DA:1166,1
DA:1169,1
DA:1172,1
DA:1173,1
DA:1174,1
BRF:0
BRH:0
LF:742
LH:645
end_of_record
SF:/mnt/f/Node/hivellm/nexus/nexus-core/src/index/mod.rs
FN:32,_RINvMNtCs4yQ6d7adrZY_10nexus_core5indexNtB3_12IndexManager3newNtNtCslLCvXJZBaqX_3std4path7PathBufEB5_
FN:457,_RNCNvMs1_NtCs4yQ6d7adrZY_10nexus_core5indexNtB7_8KnnIndex16normalize_vector0B9_
FN:188,_RNCNvMs_NtCs4yQ6d7adrZY_10nexus_core5indexNtB6_10LabelIndex20estimate_cardinality0B8_
FN:44,_RNvMNtCs4yQ6d7adrZY_10nexus_core5indexNtB2_12IndexManager10knn_search
FN:59,_RNvMNtCs4yQ6d7adrZY_10nexus_core5indexNtB2_12IndexManager12health_check
FN:49,_RNvMNtCs4yQ6d7adrZY_10nexus_core5indexNtB2_12IndexManager17add_node_to_label
FN:54,_RNvMNtCs4yQ6d7adrZY_10nexus_core5indexNtB2_12IndexManager22remove_node_from_label
FN:317,_RNvMs1_NtCs4yQ6d7adrZY_10nexus_core5indexNtB5_8KnnIndex10add_vector
FN:422,_RNvMs1_NtCs4yQ6d7adrZY_10nexus_core5indexNtB5_8KnnIndex10has_vector
FN:372,_RNvMs1_NtCs4yQ6d7adrZY_10nexus_core5indexNtB5_8KnnIndex10search_knn
FN:312,_RNvMs1_NtCs4yQ6d7adrZY_10nexus_core5indexNtB5_8KnnIndex11new_default
FN:428,_RNvMs1_NtCs4yQ6d7adrZY_10nexus_core5indexNtB5_8KnnIndex13get_all_nodes
FN:354,_RNvMs1_NtCs4yQ6d7adrZY_10nexus_core5indexNtB5_8KnnIndex13remove_vector
FN:456,_RNvMs1_NtCs4yQ6d7adrZY_10nexus_core5indexNtB5_8KnnIndex16normalize_vector
FN:407,_RNvMs1_NtCs4yQ6d7adrZY_10nexus_core5indexNtB5_8KnnIndex18search_knn_default
FN:285,_RNvMs1_NtCs4yQ6d7adrZY_10nexus_core5indexNtB5_8KnnIndex3new
FN:434,_RNvMs1_NtCs4yQ6d7adrZY_10nexus_core5indexNtB5_8KnnIndex5clear
FN:417,_RNvMs1_NtCs4yQ6d7adrZY_10nexus_core5indexNtB5_8KnnIndex9dimension
FN:412,_RNvMs1_NtCs4yQ6d7adrZY_10nexus_core5indexNtB5_8KnnIndex9get_stats
FN:623,_RNvMs7_NtCs4yQ6d7adrZY_10nexus_core5indexNtB5_13PropertyIndex10find_exact
FN:641,_RNvMs7_NtCs4yQ6d7adrZY_10nexus_core5indexNtB5_13PropertyIndex10find_range
FN:570,_RNvMs7_NtCs4yQ6d7adrZY_10nexus_core5indexNtB5_13PropertyIndex12add_property
FN:740,_RNvMs7_NtCs4yQ6d7adrZY_10nexus_core5indexNtB5_13PropertyIndex12health_check
FN:678,_RNvMs7_NtCs4yQ6d7adrZY_10nexus_core5indexNtB5_13PropertyIndex14find_less_than
FN:596,_RNvMs7_NtCs4yQ6d7adrZY_10nexus_core5indexNtB5_13PropertyIndex15remove_property
FN:668,_RNvMs7_NtCs4yQ6d7adrZY_10nexus_core5indexNtB5_13PropertyIndex17find_greater_than
FN:699,_RNvMs7_NtCs4yQ6d7adrZY_10nexus_core5indexNtB5_13PropertyIndex17get_unique_values
FN:726,_RNvMs7_NtCs4yQ6d7adrZY_10nexus_core5indexNtB5_13PropertyIndex21estimate_memory_usage
FN:562,_RNvMs7_NtCs4yQ6d7adrZY_10nexus_core5indexNtB5_13PropertyIndex3new
FN:715,_RNvMs7_NtCs4yQ6d7adrZY_10nexus_core5indexNtB5_13PropertyIndex5clear
FN:710,_RNvMs7_NtCs4yQ6d7adrZY_10nexus_core5indexNtB5_13PropertyIndex9get_stats
FN:688,_RNvMs7_NtCs4yQ6d7adrZY_10nexus_core5indexNtB5_13PropertyIndex9has_value
FN:126,_RNvMs_NtCs4yQ6d7adrZY_10nexus_core5indexNtB4_10LabelIndex11remove_node
FN:220,_RNvMs_NtCs4yQ6d7adrZY_10nexus_core5indexNtB4_10LabelIndex12health_check
FN:203,_RNvMs_NtCs4yQ6d7adrZY_10nexus_core5indexNtB4_10LabelIndex14get_all_labels
FN:186,_RNvMs_NtCs4yQ6d7adrZY_10nexus_core5indexNtB4_10LabelIndex20estimate_cardinality
FN:152,_RNvMs_NtCs4yQ6d7adrZY_10nexus_core5indexNtB4_10LabelIndex21get_nodes_with_labels
FN:172,_RNvMs_NtCs4yQ6d7adrZY_10nexus_core5indexNtB4_10LabelIndex25get_nodes_with_any_labels
FN:98,_RNvMs_NtCs4yQ6d7adrZY_10nexus_core5indexNtB4_10LabelIndex3new
FN:209,_RNvMs_NtCs4yQ6d7adrZY_10nexus_core5indexNtB4_10LabelIndex5clear
FN:106,_RNvMs_NtCs4yQ6d7adrZY_10nexus_core5indexNtB4_10LabelIndex8add_node
FN:146,_RNvMs_NtCs4yQ6d7adrZY_10nexus_core5indexNtB4_10LabelIndex9get_nodes
FN:192,_RNvMs_NtCs4yQ6d7adrZY_10nexus_core5indexNtB4_10LabelIndex9get_stats
FN:197,_RNvMs_NtCs4yQ6d7adrZY_10nexus_core5indexNtB4_10LabelIndex9has_label
FN:241,_RNvXs0_NtCs4yQ6d7adrZY_10nexus_core5indexNtB5_10LabelIndexNtNtCs9Kp62OsN3pY_4core7default7Default7default
FN:467,_RNvXs2_NtCs4yQ6d7adrZY_10nexus_core5indexNtB5_8KnnIndexNtNtCs9Kp62OsN3pY_4core7default7Default7default
FN:502,_RNvXs4_NtCs4yQ6d7adrZY_10nexus_core5indexNtB5_13PropertyValueNtNtCs9Kp62OsN3pY_4core3cmp10PartialOrd11partial_cmp
FN:508,_RNvXs5_NtCs4yQ6d7adrZY_10nexus_core5indexNtB5_13PropertyValueNtNtCs9Kp62OsN3pY_4core3cmp3Ord3cmp
FN:761,_RNvXs8_NtCs4yQ6d7adrZY_10nexus_core5indexNtB5_13PropertyIndexNtNtCs9Kp62OsN3pY_4core7default7Default7default
FN:467,_RNvXs2_NtCs7bzfDg8Kx2o_10nexus_core5indexNtB5_8KnnIndexNtNtCs9Kp62OsN3pY_4core7default7Default7default
FN:761,_RNvXs8_NtCs7bzfDg8Kx2o_10nexus_core5indexNtB5_13PropertyIndexNtNtCs9Kp62OsN3pY_4core7default7Default7default
FN:44,_RNvMNtCs7bzfDg8Kx2o_10nexus_core5indexNtB2_12IndexManager10knn_search
FN:59,_RNvMNtCs7bzfDg8Kx2o_10nexus_core5indexNtB2_12IndexManager12health_check
FN:49,_RNvMNtCs7bzfDg8Kx2o_10nexus_core5indexNtB2_12IndexManager17add_node_to_label
FN:54,_RNvMNtCs7bzfDg8Kx2o_10nexus_core5indexNtB2_12IndexManager22remove_node_from_label
FN:317,_RNvMs1_NtCs7bzfDg8Kx2o_10nexus_core5indexNtB5_8KnnIndex10add_vector
FN:422,_RNvMs1_NtCs7bzfDg8Kx2o_10nexus_core5indexNtB5_8KnnIndex10has_vector
FN:372,_RNvMs1_NtCs7bzfDg8Kx2o_10nexus_core5indexNtB5_8KnnIndex10search_knn
FN:312,_RNvMs1_NtCs7bzfDg8Kx2o_10nexus_core5indexNtB5_8KnnIndex11new_default
FN:428,_RNvMs1_NtCs7bzfDg8Kx2o_10nexus_core5indexNtB5_8KnnIndex13get_all_nodes
FN:354,_RNvMs1_NtCs7bzfDg8Kx2o_10nexus_core5indexNtB5_8KnnIndex13remove_vector
FN:456,_RNvMs1_NtCs7bzfDg8Kx2o_10nexus_core5indexNtB5_8KnnIndex16normalize_vector
FN:407,_RNvMs1_NtCs7bzfDg8Kx2o_10nexus_core5indexNtB5_8KnnIndex18search_knn_default
FN:285,_RNvMs1_NtCs7bzfDg8Kx2o_10nexus_core5indexNtB5_8KnnIndex3new
FN:434,_RNvMs1_NtCs7bzfDg8Kx2o_10nexus_core5indexNtB5_8KnnIndex5clear
FN:417,_RNvMs1_NtCs7bzfDg8Kx2o_10nexus_core5indexNtB5_8KnnIndex9dimension
FN:412,_RNvMs1_NtCs7bzfDg8Kx2o_10nexus_core5indexNtB5_8KnnIndex9get_stats
FN:623,_RNvMs7_NtCs7bzfDg8Kx2o_10nexus_core5indexNtB5_13PropertyIndex10find_exact
FN:641,_RNvMs7_NtCs7bzfDg8Kx2o_10nexus_core5indexNtB5_13PropertyIndex10find_range
FN:570,_RNvMs7_NtCs7bzfDg8Kx2o_10nexus_core5indexNtB5_13PropertyIndex12add_property
FN:740,_RNvMs7_NtCs7bzfDg8Kx2o_10nexus_core5indexNtB5_13PropertyIndex12health_check
FN:678,_RNvMs7_NtCs7bzfDg8Kx2o_10nexus_core5indexNtB5_13PropertyIndex14find_less_than
FN:596,_RNvMs7_NtCs7bzfDg8Kx2o_10nexus_core5indexNtB5_13PropertyIndex15remove_property
FN:668,_RNvMs7_NtCs7bzfDg8Kx2o_10nexus_core5indexNtB5_13PropertyIndex17find_greater_than
FN:699,_RNvMs7_NtCs7bzfDg8Kx2o_10nexus_core5indexNtB5_13PropertyIndex17get_unique_values
FN:726,_RNvMs7_NtCs7bzfDg8Kx2o_10nexus_core5indexNtB5_13PropertyIndex21estimate_memory_usage
FN:562,_RNvMs7_NtCs7bzfDg8Kx2o_10nexus_core5indexNtB5_13PropertyIndex3new
FN:715,_RNvMs7_NtCs7bzfDg8Kx2o_10nexus_core5indexNtB5_13PropertyIndex5clear
FN:710,_RNvMs7_NtCs7bzfDg8Kx2o_10nexus_core5indexNtB5_13PropertyIndex9get_stats
FN:688,_RNvMs7_NtCs7bzfDg8Kx2o_10nexus_core5indexNtB5_13PropertyIndex9has_value
FN:126,_RNvMs_NtCs7bzfDg8Kx2o_10nexus_core5indexNtB4_10LabelIndex11remove_node
FN:220,_RNvMs_NtCs7bzfDg8Kx2o_10nexus_core5indexNtB4_10LabelIndex12health_check
FN:203,_RNvMs_NtCs7bzfDg8Kx2o_10nexus_core5indexNtB4_10LabelIndex14get_all_labels
FN:186,_RNvMs_NtCs7bzfDg8Kx2o_10nexus_core5indexNtB4_10LabelIndex20estimate_cardinality
FN:152,_RNvMs_NtCs7bzfDg8Kx2o_10nexus_core5indexNtB4_10LabelIndex21get_nodes_with_labels
FN:172,_RNvMs_NtCs7bzfDg8Kx2o_10nexus_core5indexNtB4_10LabelIndex25get_nodes_with_any_labels
FN:98,_RNvMs_NtCs7bzfDg8Kx2o_10nexus_core5indexNtB4_10LabelIndex3new
FN:209,_RNvMs_NtCs7bzfDg8Kx2o_10nexus_core5indexNtB4_10LabelIndex5clear
FN:106,_RNvMs_NtCs7bzfDg8Kx2o_10nexus_core5indexNtB4_10LabelIndex8add_node
FN:146,_RNvMs_NtCs7bzfDg8Kx2o_10nexus_core5indexNtB4_10LabelIndex9get_nodes
FN:192,_RNvMs_NtCs7bzfDg8Kx2o_10nexus_core5indexNtB4_10LabelIndex9get_stats
FN:197,_RNvMs_NtCs7bzfDg8Kx2o_10nexus_core5indexNtB4_10LabelIndex9has_label
FN:241,_RNvXs0_NtCs7bzfDg8Kx2o_10nexus_core5indexNtB5_10LabelIndexNtNtCs9Kp62OsN3pY_4core7default7Default7default
FN:502,_RNvXs4_NtCs7bzfDg8Kx2o_10nexus_core5indexNtB5_13PropertyValueNtNtCs9Kp62OsN3pY_4core3cmp10PartialOrd11partial_cmp
FN:508,_RNvXs5_NtCs7bzfDg8Kx2o_10nexus_core5indexNtB5_13PropertyValueNtNtCs9Kp62OsN3pY_4core3cmp3Ord3cmp
FN:942,_RNCNvNtNtCs7bzfDg8Kx2o_10nexus_core5index5testss_21test_normalize_vector0B7_
FN:915,_RNCNvNvNtNtCs7bzfDg8Kx2o_10nexus_core5index5testss_22test_cosine_similarity17cosine_similarity0B9_
FN:917,_RNCNvNvNtNtCs7bzfDg8Kx2o_10nexus_core5index5testss_22test_cosine_similarity17cosine_similaritys0_0B9_
FN:916,_RNCNvNvNtNtCs7bzfDg8Kx2o_10nexus_core5index5testss_22test_cosine_similarity17cosine_similaritys_0B9_
FN:32,_RINvMNtCs7bzfDg8Kx2o_10nexus_core5indexNtB3_12IndexManager3newNtNtCslLCvXJZBaqX_3std4path7PathBufEB5_
FN:32,_RINvMNtCs7bzfDg8Kx2o_10nexus_core5indexNtB3_12IndexManager3newRNtNtCslLCvXJZBaqX_3std4path4PathEB5_
FN:533,_RINvXs6_NtCs7bzfDg8Kx2o_10nexus_core5indexNtB6_13PropertyValueNtNtCs9Kp62OsN3pY_4core4hash4Hash4hashNtNtNtCslLCvXJZBaqX_3std4hash6random13DefaultHasherEB8_
FN:457,_RNCNvMs1_NtCs7bzfDg8Kx2o_10nexus_core5indexNtB7_8KnnIndex16normalize_vector0B9_
FN:188,_RNCNvMs_NtCs7bzfDg8Kx2o_10nexus_core5indexNtB6_10LabelIndex20estimate_cardinality0B8_
FN:947,_RNvNtNtCs7bzfDg8Kx2o_10nexus_core5index5testss_20test_knn_index_clear
FN:860,_RNvNtNtCs7bzfDg8Kx2o_10nexus_core5index5testss_21test_knn_index_search
FN:936,_RNvNtNtCs7bzfDg8Kx2o_10nexus_core5index5testss_21test_normalize_vector
FN:906,_RNvNtNtCs7bzfDg8Kx2o_10nexus_core5index5testss_22test_cosine_similarity
FN:962,_RNvNtNtCs7bzfDg8Kx2o_10nexus_core5index5testss_22test_label_index_clear
FN:810,_RNvNtNtCs7bzfDg8Kx2o_10nexus_core5index5testss_22test_label_index_union
FN:836,_RNvNtNtCs7bzfDg8Kx2o_10nexus_core5index5testss_23test_knn_index_creation
FN:846,_RNvNtNtCs7bzfDg8Kx2o_10nexus_core5index5testss_25test_knn_index_add_vector
FN:1120,_RNvNtNtCs7bzfDg8Kx2o_10nexus_core5index5testss_25test_knn_index_has_vector
FN:779,_RNvNtNtCs7bzfDg8Kx2o_10nexus_core5index5testss_25test_label_index_add_node
FN:771,_RNvNtNtCs7bzfDg8Kx2o_10nexus_core5index5testss_25test_label_index_creation
FN:1340,_RNvNtNtCs7bzfDg8Kx2o_10nexus_core5index5testss_25test_property_index_clear
FN:1091,_RNvNtNtCs7bzfDg8Kx2o_10nexus_core5index5testss_26test_knn_index_new_default
FN:1052,_RNvNtNtCs7bzfDg8Kx2o_10nexus_core5index5testss_26test_label_index_has_label
FN:977,_RNvNtNtCs7bzfDg8Kx2o_10nexus_core5index5testss_27test_index_manager_creation
FN:1452,_RNvNtNtCs7bzfDg8Kx2o_10nexus_core5index5testss_27test_knn_index_search_empty
FN:1409,_RNvNtNtCs7bzfDg8Kx2o_10nexus_core5index5testss_27test_property_value_hashing
FN:1131,_RNvNtNtCs7bzfDg8Kx2o_10nexus_core5index5testss_28test_knn_index_get_all_nodes
FN:889,_RNvNtNtCs7bzfDg8Kx2o_10nexus_core5index5testss_28test_knn_index_remove_vector
FN:822,_RNvNtNtCs7bzfDg8Kx2o_10nexus_core5index5testss_28test_label_index_remove_node
FN:1146,_RNvNtNtCs7bzfDg8Kx2o_10nexus_core5index5testss_28test_property_index_creation
FN:1385,_RNvNtNtCs7bzfDg8Kx2o_10nexus_core5index5testss_28test_property_value_ordering
FN:988,_RNvNtNtCs7bzfDg8Kx2o_10nexus_core5index5testss_29test_index_manager_knn_search
FN:1428,_RNvNtNtCs7bzfDg8Kx2o_10nexus_core5index5testss_29test_label_index_empty_labels
FN:1077,_RNvNtNtCs7bzfDg8Kx2o_10nexus_core5index5testss_29test_label_index_health_check
FN:797,_RNvNtNtCs7bzfDg8Kx2o_10nexus_core5index5testss_29test_label_index_intersection
FN:1293,_RNvNtNtCs7bzfDg8Kx2o_10nexus_core5index5testss_29test_property_index_has_value
FN:1195,_RNvNtNtCs7bzfDg8Kx2o_10nexus_core5index5testss_30test_property_index_find_exact
FN:1218,_RNvNtNtCs7bzfDg8Kx2o_10nexus_core5index5testss_30test_property_index_find_range
FN:1026,_RNvNtNtCs7bzfDg8Kx2o_10nexus_core5index5testss_31test_index_manager_health_check
FN:1063,_RNvNtNtCs7bzfDg8Kx2o_10nexus_core5index5testss_31test_label_index_get_all_labels
FN:1097,_RNvNtNtCs7bzfDg8Kx2o_10nexus_core5index5testss_32test_knn_index_invalid_dimension
FN:1154,_RNvNtNtCs7bzfDg8Kx2o_10nexus_core5index5testss_32test_property_index_add_property
FN:1369,_RNvNtNtCs7bzfDg8Kx2o_10nexus_core5index5testss_32test_property_index_health_check
FN:880,_RNvNtNtCs7bzfDg8Kx2o_10nexus_core5index5testss_33test_knn_index_dimension_mismatch
FN:1461,_RNvNtNtCs7bzfDg8Kx2o_10nexus_core5index5testss_33test_knn_index_remove_nonexistent
FN:1108,_RNvNtNtCs7bzfDg8Kx2o_10nexus_core5index5testss_33test_knn_index_search_knn_default
FN:1271,_RNvNtNtCs7bzfDg8Kx2o_10nexus_core5index5testss_34test_property_index_find_less_than
FN:1005,_RNvNtNtCs7bzfDg8Kx2o_10nexus_core5index5testss_35test_index_manager_label_operations
FN:1440,_RNvNtNtCs7bzfDg8Kx2o_10nexus_core5index5testss_35test_label_index_nonexistent_labels
FN:1173,_RNvNtNtCs7bzfDg8Kx2o_10nexus_core5index5testss_35test_property_index_remove_property
FN:1035,_RNvNtNtCs7bzfDg8Kx2o_10nexus_core5index5testss_37test_label_index_estimate_cardinality
FN:1249,_RNvNtNtCs7bzfDg8Kx2o_10nexus_core5index5testss_37test_property_index_find_greater_than
FN:1318,_RNvNtNtCs7bzfDg8Kx2o_10nexus_core5index5testss_37test_property_index_get_unique_values
FN:1353,_RNvNtNtCs7bzfDg8Kx2o_10nexus_core5index5testss_41test_property_index_estimate_memory_usage
FN:914,_RNvNvNtNtCs7bzfDg8Kx2o_10nexus_core5index5testss_22test_cosine_similarity17cosine_similarity
FNDA:22,_RINvMNtCs4yQ6d7adrZY_10nexus_core5indexNtB3_12IndexManager3newNtNtCslLCvXJZBaqX_3std4path7PathBufEB5_
FNDA:0,_RNCNvMs1_NtCs4yQ6d7adrZY_10nexus_core5indexNtB7_8KnnIndex16normalize_vector0B9_
FNDA:0,_RNCNvMs_NtCs4yQ6d7adrZY_10nexus_core5indexNtB6_10LabelIndex20estimate_cardinality0B8_
FNDA:4,_RNvMNtCs4yQ6d7adrZY_10nexus_core5indexNtB2_12IndexManager10knn_search
FNDA:4,_RNvMNtCs4yQ6d7adrZY_10nexus_core5indexNtB2_12IndexManager12health_check
FNDA:0,_RNvMNtCs4yQ6d7adrZY_10nexus_core5indexNtB2_12IndexManager17add_node_to_label
FNDA:0,_RNvMNtCs4yQ6d7adrZY_10nexus_core5indexNtB2_12IndexManager22remove_node_from_label
FNDA:0,_RNvMs1_NtCs4yQ6d7adrZY_10nexus_core5indexNtB5_8KnnIndex10add_vector
FNDA:0,_RNvMs1_NtCs4yQ6d7adrZY_10nexus_core5indexNtB5_8KnnIndex10has_vector
FNDA:4,_RNvMs1_NtCs4yQ6d7adrZY_10nexus_core5indexNtB5_8KnnIndex10search_knn
FNDA:11,_RNvMs1_NtCs4yQ6d7adrZY_10nexus_core5indexNtB5_8KnnIndex11new_default
FNDA:0,_RNvMs1_NtCs4yQ6d7adrZY_10nexus_core5indexNtB5_8KnnIndex13get_all_nodes
FNDA:0,_RNvMs1_NtCs4yQ6d7adrZY_10nexus_core5indexNtB5_8KnnIndex13remove_vector
FNDA:0,_RNvMs1_NtCs4yQ6d7adrZY_10nexus_core5indexNtB5_8KnnIndex16normalize_vector
FNDA:0,_RNvMs1_NtCs4yQ6d7adrZY_10nexus_core5indexNtB5_8KnnIndex18search_knn_default
FNDA:47,_RNvMs1_NtCs4yQ6d7adrZY_10nexus_core5indexNtB5_8KnnIndex3new
FNDA:0,_RNvMs1_NtCs4yQ6d7adrZY_10nexus_core5indexNtB5_8KnnIndex5clear
FNDA:0,_RNvMs1_NtCs4yQ6d7adrZY_10nexus_core5indexNtB5_8KnnIndex9dimension
FNDA:3,_RNvMs1_NtCs4yQ6d7adrZY_10nexus_core5indexNtB5_8KnnIndex9get_stats
FNDA:0,_RNvMs7_NtCs4yQ6d7adrZY_10nexus_core5indexNtB5_13PropertyIndex10find_exact
FNDA:0,_RNvMs7_NtCs4yQ6d7adrZY_10nexus_core5indexNtB5_13PropertyIndex10find_range
FNDA:0,_RNvMs7_NtCs4yQ6d7adrZY_10nexus_core5indexNtB5_13PropertyIndex12add_property
FNDA:4,_RNvMs7_NtCs4yQ6d7adrZY_10nexus_core5indexNtB5_13PropertyIndex12health_check
FNDA:0,_RNvMs7_NtCs4yQ6d7adrZY_10nexus_core5indexNtB5_13PropertyIndex14find_less_than
FNDA:0,_RNvMs7_NtCs4yQ6d7adrZY_10nexus_core5indexNtB5_13PropertyIndex15remove_property
FNDA:0,_RNvMs7_NtCs4yQ6d7adrZY_10nexus_core5indexNtB5_13PropertyIndex17find_greater_than
FNDA:0,_RNvMs7_NtCs4yQ6d7adrZY_10nexus_core5indexNtB5_13PropertyIndex17get_unique_values
FNDA:0,_RNvMs7_NtCs4yQ6d7adrZY_10nexus_core5indexNtB5_13PropertyIndex21estimate_memory_usage
FNDA:22,_RNvMs7_NtCs4yQ6d7adrZY_10nexus_core5indexNtB5_13PropertyIndex3new
FNDA:0,_RNvMs7_NtCs4yQ6d7adrZY_10nexus_core5indexNtB5_13PropertyIndex5clear
FNDA:0,_RNvMs7_NtCs4yQ6d7adrZY_10nexus_core5indexNtB5_13PropertyIndex9get_stats
FNDA:0,_RNvMs7_NtCs4yQ6d7adrZY_10nexus_core5indexNtB5_13PropertyIndex9has_value
FNDA:0,_RNvMs_NtCs4yQ6d7adrZY_10nexus_core5indexNtB4_10LabelIndex11remove_node
FNDA:4,_RNvMs_NtCs4yQ6d7adrZY_10nexus_core5indexNtB4_10LabelIndex12health_check
FNDA:0,_RNvMs_NtCs4yQ6d7adrZY_10nexus_core5indexNtB4_10LabelIndex14get_all_labels
FNDA:0,_RNvMs_NtCs4yQ6d7adrZY_10nexus_core5indexNtB4_10LabelIndex20estimate_cardinality
FNDA:0,_RNvMs_NtCs4yQ6d7adrZY_10nexus_core5indexNtB4_10LabelIndex21get_nodes_with_labels
FNDA:0,_RNvMs_NtCs4yQ6d7adrZY_10nexus_core5indexNtB4_10LabelIndex25get_nodes_with_any_labels
FNDA:47,_RNvMs_NtCs4yQ6d7adrZY_10nexus_core5indexNtB4_10LabelIndex3new
FNDA:0,_RNvMs_NtCs4yQ6d7adrZY_10nexus_core5indexNtB4_10LabelIndex5clear
FNDA:0,_RNvMs_NtCs4yQ6d7adrZY_10nexus_core5indexNtB4_10LabelIndex8add_node
FNDA:0,_RNvMs_NtCs4yQ6d7adrZY_10nexus_core5indexNtB4_10LabelIndex9get_nodes
FNDA:3,_RNvMs_NtCs4yQ6d7adrZY_10nexus_core5indexNtB4_10LabelIndex9get_stats
FNDA:0,_RNvMs_NtCs4yQ6d7adrZY_10nexus_core5indexNtB4_10LabelIndex9has_label
FNDA:11,_RNvXs0_NtCs4yQ6d7adrZY_10nexus_core5indexNtB5_10LabelIndexNtNtCs9Kp62OsN3pY_4core7default7Default7default
FNDA:0,_RNvXs2_NtCs4yQ6d7adrZY_10nexus_core5indexNtB5_8KnnIndexNtNtCs9Kp62OsN3pY_4core7default7Default7default
FNDA:0,_RNvXs4_NtCs4yQ6d7adrZY_10nexus_core5indexNtB5_13PropertyValueNtNtCs9Kp62OsN3pY_4core3cmp10PartialOrd11partial_cmp
FNDA:0,_RNvXs5_NtCs4yQ6d7adrZY_10nexus_core5indexNtB5_13PropertyValueNtNtCs9Kp62OsN3pY_4core3cmp3Ord3cmp
FNDA:0,_RNvXs8_NtCs4yQ6d7adrZY_10nexus_core5indexNtB5_13PropertyIndexNtNtCs9Kp62OsN3pY_4core7default7Default7default
FNDA:0,_RNvXs2_NtCs7bzfDg8Kx2o_10nexus_core5indexNtB5_8KnnIndexNtNtCs9Kp62OsN3pY_4core7default7Default7default
FNDA:0,_RNvXs8_NtCs7bzfDg8Kx2o_10nexus_core5indexNtB5_13PropertyIndexNtNtCs9Kp62OsN3pY_4core7default7Default7default
FNDA:2,_RNvMNtCs7bzfDg8Kx2o_10nexus_core5indexNtB2_12IndexManager10knn_search
FNDA:2,_RNvMNtCs7bzfDg8Kx2o_10nexus_core5indexNtB2_12IndexManager12health_check
FNDA:2,_RNvMNtCs7bzfDg8Kx2o_10nexus_core5indexNtB2_12IndexManager17add_node_to_label
FNDA:1,_RNvMNtCs7bzfDg8Kx2o_10nexus_core5indexNtB2_12IndexManager22remove_node_from_label
FNDA:16,_RNvMs1_NtCs7bzfDg8Kx2o_10nexus_core5indexNtB5_8KnnIndex10add_vector
FNDA:5,_RNvMs1_NtCs7bzfDg8Kx2o_10nexus_core5indexNtB5_8KnnIndex10has_vector
FNDA:5,_RNvMs1_NtCs7bzfDg8Kx2o_10nexus_core5indexNtB5_8KnnIndex10search_knn
FNDA:24,_RNvMs1_NtCs7bzfDg8Kx2o_10nexus_core5indexNtB5_8KnnIndex11new_default
FNDA:3,_RNvMs1_NtCs7bzfDg8Kx2o_10nexus_core5indexNtB5_8KnnIndex13get_all_nodes
FNDA:2,_RNvMs1_NtCs7bzfDg8Kx2o_10nexus_core5indexNtB5_8KnnIndex13remove_vector
FNDA:1,_RNvMs1_NtCs7bzfDg8Kx2o_10nexus_core5indexNtB5_8KnnIndex16normalize_vector
FNDA:1,_RNvMs1_NtCs7bzfDg8Kx2o_10nexus_core5indexNtB5_8KnnIndex18search_knn_default
FNDA:73,_RNvMs1_NtCs7bzfDg8Kx2o_10nexus_core5indexNtB5_8KnnIndex3new
FNDA:1,_RNvMs1_NtCs7bzfDg8Kx2o_10nexus_core5indexNtB5_8KnnIndex5clear
FNDA:3,_RNvMs1_NtCs7bzfDg8Kx2o_10nexus_core5indexNtB5_8KnnIndex9dimension
FNDA:6,_RNvMs1_NtCs7bzfDg8Kx2o_10nexus_core5indexNtB5_8KnnIndex9get_stats
FNDA:1,_RNvMs7_NtCs7bzfDg8Kx2o_10nexus_core5indexNtB5_13PropertyIndex10find_exact
FNDA:3,_RNvMs7_NtCs7bzfDg8Kx2o_10nexus_core5indexNtB5_13PropertyIndex10find_range
FNDA:1024,_RNvMs7_NtCs7bzfDg8Kx2o_10nexus_core5indexNtB5_13PropertyIndex12add_property
FNDA:4,_RNvMs7_NtCs7bzfDg8Kx2o_10nexus_core5indexNtB5_13PropertyIndex12health_check
FNDA:1,_RNvMs7_NtCs7bzfDg8Kx2o_10nexus_core5indexNtB5_13PropertyIndex14find_less_than
FNDA:1,_RNvMs7_NtCs7bzfDg8Kx2o_10nexus_core5indexNtB5_13PropertyIndex15remove_property
FNDA:1,_RNvMs7_NtCs7bzfDg8Kx2o_10nexus_core5indexNtB5_13PropertyIndex17find_greater_than
FNDA:2,_RNvMs7_NtCs7bzfDg8Kx2o_10nexus_core5indexNtB5_13PropertyIndex17get_unique_values
FNDA:2,_RNvMs7_NtCs7bzfDg8Kx2o_10nexus_core5indexNtB5_13PropertyIndex21estimate_memory_usage
FNDA:32,_RNvMs7_NtCs7bzfDg8Kx2o_10nexus_core5indexNtB5_13PropertyIndex3new
FNDA:1,_RNvMs7_NtCs7bzfDg8Kx2o_10nexus_core5indexNtB5_13PropertyIndex5clear
FNDA:7,_RNvMs7_NtCs7bzfDg8Kx2o_10nexus_core5indexNtB5_13PropertyIndex9get_stats
FNDA:3,_RNvMs7_NtCs7bzfDg8Kx2o_10nexus_core5indexNtB5_13PropertyIndex9has_value
FNDA:2,_RNvMs_NtCs7bzfDg8Kx2o_10nexus_core5indexNtB4_10LabelIndex11remove_node
FNDA:4,_RNvMs_NtCs7bzfDg8Kx2o_10nexus_core5indexNtB4_10LabelIndex12health_check
FNDA:2,_RNvMs_NtCs7bzfDg8Kx2o_10nexus_core5indexNtB4_10LabelIndex14get_all_labels
FNDA:4,_RNvMs_NtCs7bzfDg8Kx2o_10nexus_core5indexNtB4_10LabelIndex20estimate_cardinality
FNDA:3,_RNvMs_NtCs7bzfDg8Kx2o_10nexus_core5indexNtB4_10LabelIndex21get_nodes_with_labels
FNDA:3,_RNvMs_NtCs7bzfDg8Kx2o_10nexus_core5indexNtB4_10LabelIndex25get_nodes_with_any_labels
FNDA:69,_RNvMs_NtCs7bzfDg8Kx2o_10nexus_core5indexNtB4_10LabelIndex3new
FNDA:1,_RNvMs_NtCs7bzfDg8Kx2o_10nexus_core5indexNtB4_10LabelIndex5clear
FNDA:1023,_RNvMs_NtCs7bzfDg8Kx2o_10nexus_core5indexNtB4_10LabelIndex8add_node
FNDA:10,_RNvMs_NtCs7bzfDg8Kx2o_10nexus_core5indexNtB4_10LabelIndex9get_nodes
FNDA:6,_RNvMs_NtCs7bzfDg8Kx2o_10nexus_core5indexNtB4_10LabelIndex9get_stats
FNDA:3,_RNvMs_NtCs7bzfDg8Kx2o_10nexus_core5indexNtB4_10LabelIndex9has_label
FNDA:1,_RNvXs0_NtCs7bzfDg8Kx2o_10nexus_core5indexNtB5_10LabelIndexNtNtCs9Kp62OsN3pY_4core7default7Default7default
FNDA:21,_RNvXs4_NtCs7bzfDg8Kx2o_10nexus_core5indexNtB5_13PropertyValueNtNtCs9Kp62OsN3pY_4core3cmp10PartialOrd11partial_cmp
FNDA:13015,_RNvXs5_NtCs7bzfDg8Kx2o_10nexus_core5indexNtB5_13PropertyValueNtNtCs9Kp62OsN3pY_4core3cmp3Ord3cmp
FNDA:3,_RNCNvNtNtCs7bzfDg8Kx2o_10nexus_core5index5testss_21test_normalize_vector0B7_
FNDA:6,_RNCNvNvNtNtCs7bzfDg8Kx2o_10nexus_core5index5testss_22test_cosine_similarity17cosine_similarity0B9_
FNDA:6,_RNCNvNvNtNtCs7bzfDg8Kx2o_10nexus_core5index5testss_22test_cosine_similarity17cosine_similaritys0_0B9_
FNDA:6,_RNCNvNvNtNtCs7bzfDg8Kx2o_10nexus_core5index5testss_22test_cosine_similarity17cosine_similaritys_0B9_
FNDA:16,_RINvMNtCs7bzfDg8Kx2o_10nexus_core5indexNtB3_12IndexManager3newNtNtCslLCvXJZBaqX_3std4path7PathBufEB5_
FNDA:4,_RINvMNtCs7bzfDg8Kx2o_10nexus_core5indexNtB3_12IndexManager3newRNtNtCslLCvXJZBaqX_3std4path4PathEB5_
FNDA:7,_RINvXs6_NtCs7bzfDg8Kx2o_10nexus_core5indexNtB6_13PropertyValueNtNtCs9Kp62OsN3pY_4core4hash4Hash4hashNtNtNtCslLCvXJZBaqX_3std4hash6random13DefaultHasherEB8_
FNDA:3,_RNCNvMs1_NtCs7bzfDg8Kx2o_10nexus_core5indexNtB7_8KnnIndex16normalize_vector0B9_
FNDA:2,_RNCNvMs_NtCs7bzfDg8Kx2o_10nexus_core5indexNtB6_10LabelIndex20estimate_cardinality0B8_
FNDA:1,_RNvNtNtCs7bzfDg8Kx2o_10nexus_core5index5testss_20test_knn_index_clear
FNDA:1,_RNvNtNtCs7bzfDg8Kx2o_10nexus_core5index5testss_21test_knn_index_search
FNDA:1,_RNvNtNtCs7bzfDg8Kx2o_10nexus_core5index5testss_21test_normalize_vector
FNDA:1,_RNvNtNtCs7bzfDg8Kx2o_10nexus_core5index5testss_22test_cosine_similarity
FNDA:1,_RNvNtNtCs7bzfDg8Kx2o_10nexus_core5index5testss_22test_label_index_clear
FNDA:1,_RNvNtNtCs7bzfDg8Kx2o_10nexus_core5index5testss_22test_label_index_union
FNDA:1,_RNvNtNtCs7bzfDg8Kx2o_10nexus_core5index5testss_23test_knn_index_creation
FNDA:1,_RNvNtNtCs7bzfDg8Kx2o_10nexus_core5index5testss_25test_knn_index_add_vector
FNDA:1,_RNvNtNtCs7bzfDg8Kx2o_10nexus_core5index5testss_25test_knn_index_has_vector
FNDA:1,_RNvNtNtCs7bzfDg8Kx2o_10nexus_core5index5testss_25test_label_index_add_node
FNDA:1,_RNvNtNtCs7bzfDg8Kx2o_10nexus_core5index5testss_25test_label_index_creation
FNDA:1,_RNvNtNtCs7bzfDg8Kx2o_10nexus_core5index5testss_25test_property_index_clear
FNDA:1,_RNvNtNtCs7bzfDg8Kx2o_10nexus_core5index5testss_26test_knn_index_new_default
FNDA:1,_RNvNtNtCs7bzfDg8Kx2o_10nexus_core5index5testss_26test_label_index_has_label
FNDA:1,_RNvNtNtCs7bzfDg8Kx2o_10nexus_core5index5testss_27test_index_manager_creation
FNDA:1,_RNvNtNtCs7bzfDg8Kx2o_10nexus_core5index5testss_27test_knn_index_search_empty
FNDA:1,_RNvNtNtCs7bzfDg8Kx2o_10nexus_core5index5testss_27test_property_value_hashing
FNDA:1,_RNvNtNtCs7bzfDg8Kx2o_10nexus_core5index5testss_28test_knn_index_get_all_nodes
FNDA:1,_RNvNtNtCs7bzfDg8Kx2o_10nexus_core5index5testss_28test_knn_index_remove_vector
FNDA:1,_RNvNtNtCs7bzfDg8Kx2o_10nexus_core5index5testss_28test_label_index_remove_node
FNDA:1,_RNvNtNtCs7bzfDg8Kx2o_10nexus_core5index5testss_28test_property_index_creation
FNDA:1,_RNvNtNtCs7bzfDg8Kx2o_10nexus_core5index5testss_28test_property_value_ordering
FNDA:1,_RNvNtNtCs7bzfDg8Kx2o_10nexus_core5index5testss_29test_index_manager_knn_search
FNDA:1,_RNvNtNtCs7bzfDg8Kx2o_10nexus_core5index5testss_29test_label_index_empty_labels
FNDA:1,_RNvNtNtCs7bzfDg8Kx2o_10nexus_core5index5testss_29test_label_index_health_check
FNDA:1,_RNvNtNtCs7bzfDg8Kx2o_10nexus_core5index5testss_29test_label_index_intersection
FNDA:1,_RNvNtNtCs7bzfDg8Kx2o_10nexus_core5index5testss_29test_property_index_has_value
FNDA:1,_RNvNtNtCs7bzfDg8Kx2o_10nexus_core5index5testss_30test_property_index_find_exact
FNDA:1,_RNvNtNtCs7bzfDg8Kx2o_10nexus_core5index5testss_30test_property_index_find_range
FNDA:1,_RNvNtNtCs7bzfDg8Kx2o_10nexus_core5index5testss_31test_index_manager_health_check
FNDA:1,_RNvNtNtCs7bzfDg8Kx2o_10nexus_core5index5testss_31test_label_index_get_all_labels
FNDA:1,_RNvNtNtCs7bzfDg8Kx2o_10nexus_core5index5testss_32test_knn_index_invalid_dimension
FNDA:1,_RNvNtNtCs7bzfDg8Kx2o_10nexus_core5index5testss_32test_property_index_add_property
FNDA:1,_RNvNtNtCs7bzfDg8Kx2o_10nexus_core5index5testss_32test_property_index_health_check
FNDA:1,_RNvNtNtCs7bzfDg8Kx2o_10nexus_core5index5testss_33test_knn_index_dimension_mismatch
FNDA:1,_RNvNtNtCs7bzfDg8Kx2o_10nexus_core5index5testss_33test_knn_index_remove_nonexistent
FNDA:1,_RNvNtNtCs7bzfDg8Kx2o_10nexus_core5index5testss_33test_knn_index_search_knn_default
FNDA:1,_RNvNtNtCs7bzfDg8Kx2o_10nexus_core5index5testss_34test_property_index_find_less_than
FNDA:1,_RNvNtNtCs7bzfDg8Kx2o_10nexus_core5index5testss_35test_index_manager_label_operations
FNDA:1,_RNvNtNtCs7bzfDg8Kx2o_10nexus_core5index5testss_35test_label_index_nonexistent_labels
FNDA:1,_RNvNtNtCs7bzfDg8Kx2o_10nexus_core5index5testss_35test_property_index_remove_property
FNDA:1,_RNvNtNtCs7bzfDg8Kx2o_10nexus_core5index5testss_37test_label_index_estimate_cardinality
FNDA:1,_RNvNtNtCs7bzfDg8Kx2o_10nexus_core5index5testss_37test_property_index_find_greater_than
FNDA:1,_RNvNtNtCs7bzfDg8Kx2o_10nexus_core5index5testss_37test_property_index_get_unique_values
FNDA:1,_RNvNtNtCs7bzfDg8Kx2o_10nexus_core5index5testss_41test_property_index_estimate_memory_usage
FNDA:2,_RNvNvNtNtCs7bzfDg8Kx2o_10nexus_core5index5testss_22test_cosine_similarity17cosine_similarity
FNF:100
FNH:98
DA:32,42
DA:33,42
DA:34,42
DA:37,42
DA:38,42
DA:39,42
DA:41,42
DA:44,6
DA:45,6
DA:46,6
DA:49,2
DA:50,2
DA:51,2
DA:54,1
DA:55,1
DA:56,1
DA:59,6
DA:61,6
DA:67,6
DA:69,6
DA:70,6
DA:98,116
DA:99,116
DA:100,116
DA:101,116
DA:102,116
DA:103,116
DA:106,1023
DA:107,1023
DA:108,1023
DA:110,2056
DA:111,1033
DA:112,1033
DA:114,1023
DA:115,1023
DA:116,1023
DA:117,1023
DA:119,0
DA:122,1023
DA:123,1023
DA:126,2
DA:127,2
DA:128,2
DA:130,3
DA:131,3
DA:132,3
DA:134,2
DA:135,2
DA:136,2
DA:137,2
DA:139,0
DA:142,2
DA:143,2
DA:146,10
DA:147,10
DA:148,10
DA:149,10
DA:152,3
DA:153,3
DA:154,1
DA:155,2
DA:157,2
DA:158,2
DA:160,2
DA:161,1
DA:162,1
DA:163,1
DA:164,0
DA:168,2
DA:169,3
DA:172,3
DA:173,3
DA:174,3
DA:176,7
DA:177,4
DA:178,2
DA:179,2
DA:182,3
DA:183,3
DA:186,4
DA:187,4
DA:188,4
DA:189,4
DA:192,9
DA:193,9
DA:194,9
DA:197,3
DA:198,3
DA:199,3
DA:200,3
DA:203,2
DA:204,2
DA:205,2
DA:206,2
DA:209,1
DA:210,1
DA:211,1
DA:213,1
DA:214,1
DA:216,1
DA:217,1
DA:220,8
DA:221,8
DA:222,8
DA:225,8
DA:227,0
DA:228,8
DA:231,8
DA:233,0
DA:234,8
DA:236,8
DA:237,8
DA:241,12
DA:242,12
DA:243,12
DA:285,120
DA:286,120
DA:287,2
DA:288,2
DA:289,2
DA:290,2
DA:291,118
DA:295,118
DA:297,118
DA:298,118
DA:299,118
DA:300,118
DA:301,118
DA:302,118
DA:303,118
DA:304,118
DA:305,118
DA:306,118
DA:307,118
DA:308,118
DA:309,120
DA:312,35
DA:313,35
DA:314,35
DA:317,16
DA:318,16
DA:319,1
DA:320,1
DA:321,1
DA:322,1
DA:323,1
DA:324,15
DA:326,15
DA:327,15
DA:328,15
DA:329,15
DA:332,15
DA:333,0
DA:334,0
DA:335,15
DA:338,15
DA:339,15
DA:342,15
DA:343,15
DA:344,15
DA:347,15
DA:348,15
DA:350,15
DA:351,16
DA:354,2
DA:355,2
DA:356,2
DA:358,2
DA:359,1
DA:360,1
DA:361,1
DA:362,1
DA:363,1
DA:364,1
DA:365,1
DA:366,1
DA:368,2
DA:369,2
DA:372,9
DA:373,9
DA:374,5
DA:375,5
DA:376,5
DA:377,5
DA:378,5
DA:379,4
DA:381,4
DA:383,4
DA:384,4
DA:387,4
DA:389,4
DA:390,10
DA:391,6
DA:392,6
DA:393,6
DA:394,6
DA:395,6
DA:399,4
DA:400,4
DA:401,4
DA:403,4
DA:404,9
DA:407,1
DA:408,1
DA:409,1
DA:412,9
DA:413,9
DA:414,9
DA:417,3
DA:418,3
DA:419,3
DA:422,5
DA:423,5
DA:424,5
DA:425,5
DA:428,3
DA:429,3
DA:430,3
DA:431,3
DA:434,1
DA:435,1
DA:436,1
DA:437,1
DA:438,1
DA:441,1
DA:444,1
DA:445,1
DA:446,1
DA:449,1
DA:450,1
DA:452,1
DA:453,1
DA:456,1
DA:457,3
DA:458,1
DA:459,3
DA:460,3
DA:461,3
DA:462,0
DA:463,1
DA:467,0
DA:468,0
DA:469,0
DA:502,21
DA:503,21
DA:504,21
DA:508,13015
DA:509,13015
DA:510,12
DA:511,12983
DA:512,0
DA:513,0
DA:515,0
DA:516,0
DA:518,4
DA:519,1
DA:520,3
DA:522,2
DA:524,2
DA:525,1
DA:526,3
DA:527,4
DA:529,13015
DA:533,7
DA:534,7
DA:535,3
DA:536,2
DA:537,0
DA:538,0
DA:539,0
DA:540,0
DA:541,2
DA:542,0
DA:544,7
DA:562,54
DA:563,54
DA:564,54
DA:565,54
DA:566,54
DA:567,54
DA:570,1024
DA:571,1024
DA:572,1024
DA:573,1024
DA:574,1024
DA:575,1024
DA:576,1024
DA:577,1024
DA:578,1024
DA:580,1024
DA:581,1024
DA:582,1024
DA:584,1024
DA:585,1024
DA:586,1024
DA:587,1024
DA:589,0
DA:592,1024
DA:593,1024
DA:596,1
DA:597,1
DA:598,1
DA:599,1
DA:600,1
DA:601,1
DA:602,1
DA:603,1
DA:604,1
DA:606,1
DA:607,1
DA:608,1
DA:611,1
DA:612,0
DA:613,1
DA:615,1
DA:616,0
DA:617,0
DA:619,1
DA:620,1
DA:623,1
DA:624,1
DA:625,1
DA:626,1
DA:627,1
DA:628,1
DA:629,1
DA:631,1
DA:632,1
DA:633,1
DA:634,0
DA:635,0
DA:637,0
DA:638,1
DA:641,3
DA:642,3
DA:643,3
DA:644,3
DA:645,3
DA:646,3
DA:647,3
DA:648,3
DA:649,3
DA:651,3
DA:652,3
DA:653,1
DA:654,1
DA:655,1
DA:656,0
DA:659,9
DA:660,6
DA:661,6
DA:662,0
DA:664,3
DA:665,3
DA:668,1
DA:669,1
DA:670,1
DA:671,1
DA:672,1
DA:673,1
DA:674,1
DA:675,1
DA:678,1
DA:679,1
DA:680,1
DA:681,1
DA:682,1
DA:683,1
DA:684,1
DA:685,1
DA:688,3
DA:689,3
DA:691,3
DA:692,2
DA:694,1
DA:696,3
DA:699,2
DA:700,2
DA:702,2
DA:703,1
DA:705,1
DA:707,2
DA:710,7
DA:711,7
DA:712,7
DA:715,1
DA:716,1
DA:717,1
DA:719,1
DA:720,1
DA:722,1
DA:723,1
DA:726,2
DA:727,2
DA:728,2
DA:730,2
DA:731,1
DA:732,1
DA:733,1
DA:736,2
DA:737,2
DA:740,8
DA:741,8
DA:742,8
DA:745,8
DA:747,0
DA:748,8
DA:751,8
DA:753,0
DA:754,8
DA:756,8
DA:757,8
DA:761,0
DA:762,0
DA:763,0
DA:771,1
DA:772,1
DA:773,1
DA:774,1
DA:775,1
DA:776,1
DA:779,1
DA:780,1
DA:782,1
DA:783,1
DA:784,1
DA:786,1
DA:787,1
DA:788,1
DA:790,1
DA:791,1
DA:792,1
DA:793,1
DA:794,1
DA:797,1
DA:798,1
DA:800,1
DA:801,1
DA:802,1
DA:804,1
DA:805,1
DA:806,1
DA:807,1
DA:810,1
DA:811,1
DA:813,1
DA:814,1
DA:815,1
DA:817,1
DA:818,1
DA:819,1
DA:822,1
DA:823,1
DA:825,1
DA:826,1
DA:828,1
DA:830,1
DA:831,1
DA:832,1
DA:833,1
DA:836,1
DA:837,1
DA:838,1
DA:840,1
DA:841,1
DA:842,1
DA:843,1
DA:846,1
DA:847,1
DA:849,1
DA:850,1
DA:852,1
DA:853,1
DA:855,1
DA:856,1
DA:857,1
DA:860,1
DA:861,1
DA:863,1
DA:864,1
DA:865,1
DA:867,1
DA:868,1
DA:869,1
DA:871,1
DA:872,1
DA:874,1
DA:875,1
DA:876,1
DA:877,1
DA:880,1
DA:881,1
DA:883,1
DA:884,1
DA:885,1
DA:886,1
DA:889,1
DA:890,1
DA:892,1
DA:893,1
DA:895,1
DA:897,1
DA:899,1
DA:901,1
DA:902,1
DA:903,1
DA:906,1
DA:907,1
DA:909,1
DA:910,1
DA:911,1
DA:914,2
DA:915,6
DA:916,6
DA:917,6
DA:919,2
DA:920,0
DA:922,2
DA:924,2
DA:927,1
DA:928,1
DA:931,1
DA:932,1
DA:933,1
DA:936,1
DA:937,1
DA:939,1
DA:940,1
DA:942,3
DA:943,1
DA:944,1
DA:947,1
DA:948,1
DA:950,1
DA:951,1
DA:953,1
DA:955,1
DA:957,1
DA:958,1
DA:959,1
DA:962,1
DA:963,1
DA:965,1
DA:966,1
DA:968,1
DA:970,1
DA:972,1
DA:973,1
DA:974,1
DA:977,1
DA:978,1
DA:979,1
DA:982,1
DA:983,1
DA:984,1
DA:985,1
DA:988,1
DA:989,1
DA:990,1
DA:993,1
DA:994,1
DA:995,1
DA:996,1
DA:999,1
DA:1000,1
DA:1001,1
DA:1002,1
DA:1005,1
DA:1006,1
DA:1007,1
DA:1010,1
DA:1011,1
DA:1013,1
DA:1014,1
DA:1015,1
DA:1016,1
DA:1019,1
DA:1020,1
DA:1021,1
DA:1022,1
DA:1023,1
DA:1026,1
DA:1027,1
DA:1028,1
DA:1031,1
DA:1032,1
DA:1035,1
DA:1036,1
DA:1039,1
DA:1042,1
DA:1043,1
DA:1044,1
DA:1046,1
DA:1047,1
DA:1048,1
DA:1049,1
DA:1052,1
DA:1053,1
DA:1055,1
DA:1057,1
DA:1058,1
DA:1059,1
DA:1060,1
DA:1063,1
DA:1064,1
DA:1066,1
DA:1068,1
DA:1069,1
DA:1070,1
DA:1071,1
DA:1072,1
DA:1073,1
DA:1074,1
DA:1077,1
DA:1078,1
DA:1081,1
DA:1084,1001
DA:1085,1000
DA:1086,1000
DA:1087,1
DA:1088,1
DA:1091,1
DA:1092,1
DA:1093,1
DA:1094,1
DA:1097,1
DA:1099,1
DA:1100,1
DA:1103,1
DA:1104,1
DA:1105,1
DA:1108,1
DA:1109,1
DA:1111,1
DA:1112,1
DA:1114,1
DA:1115,1
DA:1116,1
DA:1117,1
DA:1120,1
DA:1121,1
DA:1123,1
DA:1125,1
DA:1126,1
DA:1127,1
DA:1128,1
DA:1131,1
DA:1132,1
DA:1134,1
DA:1136,1
DA:1137,1
DA:1139,1
DA:1140,1
DA:1141,1
DA:1142,1
DA:1143,1
DA:1146,1
DA:1147,1
DA:1148,1
DA:1149,1
DA:1150,1
DA:1151,1
DA:1154,1
DA:1155,1
DA:1157,1
DA:1158,1
DA:1159,1
DA:1160,1
DA:1161,1
DA:1162,1
DA:1163,1
DA:1164,1
DA:1165,1
DA:1167,1
DA:1168,1
DA:1169,1
DA:1170,1
DA:1173,1
DA:1174,1
DA:1176,1
DA:1177,1
DA:1178,1
DA:1179,1
DA:1180,1
DA:1181,1
DA:1183,1
DA:1184,1
DA:1186,1
DA:1187,1
DA:1188,1
DA:1190,1
DA:1191,1
DA:1192,1
DA:1195,1
DA:1196,1
DA:1198,1
DA:1199,1
DA:1200,1
DA:1201,1
DA:1202,1
DA:1203,1
DA:1204,1
DA:1205,1
DA:1206,1
DA:1208,1
DA:1209,1
DA:1210,1
DA:1211,1
DA:1212,1
DA:1213,1
DA:1214,1
DA:1215,1
DA:1218,1
DA:1219,1
DA:1221,1
DA:1222,1
DA:1223,1
DA:1224,1
DA:1225,1
DA:1226,1
DA:1227,1
DA:1228,1
DA:1229,1
DA:1230,1
DA:1231,1
DA:1232,1
DA:1235,1
DA:1236,1
DA:1239,1
DA:1240,1
DA:1242,1
DA:1243,1
DA:1244,1
DA:1245,1
DA:1246,1
DA:1249,1
DA:1250,1
DA:1252,1
DA:1253,1
DA:1254,1
DA:1255,1
DA:1256,1
DA:1257,1
DA:1258,1
DA:1259,1
DA:1260,1
DA:1262,1
DA:1263,1
DA:1264,1
DA:1265,1
DA:1266,1
DA:1267,1
DA:1268,1
DA:1271,1
DA:1272,1
DA:1274,1
DA:1275,1
DA:1276,1
DA:1277,1
DA:1278,1
DA:1279,1
DA:1280,1
DA:1281,1
DA:1282,1
DA:1284,1
DA:1285,1
DA:1286,1
DA:1287,1
DA:1288,1
DA:1289,1
DA:1290,1
DA:1293,1
DA:1294,1
DA:1296,1
DA:1297,1
DA:1298,1
DA:1299,1
DA:1302,1
DA:1303,1
DA:1304,1
DA:1305,1
DA:1306,1
DA:1307,1
DA:1308,1
DA:1310,1
DA:1311,1
DA:1312,1
DA:1313,1
DA:1315,1
DA:1318,1
DA:1319,1
DA:1321,1
DA:1323,1
DA:1324,1
DA:1325,1
DA:1326,1
DA:1327,1
DA:1328,1
DA:1329,1
DA:1330,1
DA:1331,1
DA:1333,1
DA:1334,1
DA:1335,1
DA:1336,1
DA:1337,1
DA:1340,1
DA:1341,1
DA:1343,1
DA:1344,1
DA:1345,1
DA:1346,1
DA:1348,1
DA:1349,1
DA:1350,1
DA:1353,1
DA:1354,1
DA:1357,1
DA:1358,1
DA:1361,1
DA:1362,1
DA:1363,1
DA:1364,1
DA:1365,1
DA:1366,1
DA:1369,1
DA:1370,1
DA:1373,1
DA:1376,1001
DA:1377,1000
DA:1378,1000
DA:1379,1000
DA:1380,1000
DA:1381,1
DA:1382,1
DA:1385,1
DA:1387,1
DA:1388,1
DA:1389,1
DA:1390,1
DA:1391,1
DA:1392,1
DA:1393,1
DA:1395,5
DA:1396,25
DA:1397,25
DA:1398,10
DA:1399,15
DA:1400,10
DA:1402,5
DA:1406,1
DA:1409,1
DA:1412,1
DA:1414,1
DA:1415,1
DA:1416,1
DA:1418,1
DA:1419,1
DA:1422,1
DA:1423,1
DA:1424,1
DA:1425,1
DA:1428,1
DA:1429,1
DA:1432,1
DA:1433,1
DA:1435,1
DA:1436,1
DA:1437,1
DA:1440,1
DA:1441,1
DA:1444,1
DA:1445,1
DA:1447,1
DA:1448,1
DA:1449,1
DA:1452,1
DA:1453,1
DA:1455,1
DA:1456,1
DA:1457,1
DA:1458,1
DA:1461,1
DA:1462,1
DA:1465,1
DA:1467,1
DA:1468,1
DA:1469,1
BRF:0
BRH:0
LF:894
LH:859
end_of_record
SF:/mnt/f/Node/hivellm/nexus/nexus-core/src/lib.rs
FN:210,_RNvMCs7bzfDg8Kx2o_10nexus_coreNtB2_6Engine14validate_graph
FN:220,_RNvMCs7bzfDg8Kx2o_10nexus_coreNtB2_6Engine18graph_health_check
FN:205,_RNvMCs7bzfDg8Kx2o_10nexus_coreNtB2_6Engine10knn_search
FN:165,_RNvMCs7bzfDg8Kx2o_10nexus_coreNtB2_6Engine11create_node
FN:137,_RNvMCs7bzfDg8Kx2o_10nexus_coreNtB2_6Engine11new_default
FN:225,_RNvMCs7bzfDg8Kx2o_10nexus_coreNtB2_6Engine12health_check
FN:156,_RNvMCs7bzfDg8Kx2o_10nexus_coreNtB2_6Engine14execute_cypher
FN:199,_RNvMCs7bzfDg8Kx2o_10nexus_coreNtB2_6Engine16get_relationship
FN:177,_RNvMCs7bzfDg8Kx2o_10nexus_coreNtB2_6Engine19create_relationship
FN:98,_RNvMCs7bzfDg8Kx2o_10nexus_coreNtB2_6Engine3new
FN:142,_RNvMCs7bzfDg8Kx2o_10nexus_coreNtB2_6Engine5stats
FN:193,_RNvMCs7bzfDg8Kx2o_10nexus_coreNtB2_6Engine8get_node
FN:339,_RNvXs_Cs7bzfDg8Kx2o_10nexus_coreNtB4_6EngineNtNtCs9Kp62OsN3pY_4core7default7Default7default
FN:403,_RNvNtCs7bzfDg8Kx2o_10nexus_core5testss_13test_error_io
FN:362,_RNvNtCs7bzfDg8Kx2o_10nexus_core5testss_14test_error_wal
FN:486,_RNvNtCs7bzfDg8Kx2o_10nexus_core5testss_16test_error_debug
FN:382,_RNvNtCs7bzfDg8Kx2o_10nexus_core5testss_16test_error_index
FN:525,_RNvNtCs7bzfDg8Kx2o_10nexus_core5testss_17test_engine_stats
FN:368,_RNvNtCs7bzfDg8Kx2o_10nexus_core5testss_18test_error_catalog
FN:349,_RNvNtCs7bzfDg8Kx2o_10nexus_core5testss_18test_error_storage
FN:511,_RNvNtCs7bzfDg8Kx2o_10nexus_core5testss_19test_engine_default
FN:437,_RNvNtCs7bzfDg8Kx2o_10nexus_core5testss_19test_error_database
FN:389,_RNvNtCs7bzfDg8Kx2o_10nexus_core5testss_19test_error_executor
FN:396,_RNvNtCs7bzfDg8Kx2o_10nexus_core5testss_19test_error_internal
FN:493,_RNvNtCs7bzfDg8Kx2o_10nexus_core5testss_20test_engine_creation
FN:581,_RNvNtCs7bzfDg8Kx2o_10nexus_core5testss_20test_engine_get_node
FN:447,_RNvNtCs7bzfDg8Kx2o_10nexus_core5testss_20test_error_not_found
FN:454,_RNvNtCs7bzfDg8Kx2o_10nexus_core5testss_21test_error_invalid_id
FN:356,_RNvNtCs7bzfDg8Kx2o_10nexus_core5testss_21test_error_page_cache
FN:411,_RNvNtCs7bzfDg8Kx2o_10nexus_core5testss_21test_node_type_export
FN:601,_RNvNtCs7bzfDg8Kx2o_10nexus_core5testss_22test_engine_knn_search
FN:375,_RNvNtCs7bzfDg8Kx2o_10nexus_core5testss_22test_error_transaction
FN:733,_RNvNtCs7bzfDg8Kx2o_10nexus_core5testss_22test_health_state_copy
FN:553,_RNvNtCs7bzfDg8Kx2o_10nexus_core5testss_23test_engine_create_node
FN:518,_RNvNtCs7bzfDg8Kx2o_10nexus_core5testss_23test_engine_new_default
FN:701,_RNvNtCs7bzfDg8Kx2o_10nexus_core5testss_23test_engine_stats_clone
FN:743,_RNvNtCs7bzfDg8Kx2o_10nexus_core5testss_23test_engine_stats_debug
FN:770,_RNvNtCs7bzfDg8Kx2o_10nexus_core5testss_23test_health_state_debug
FN:612,_RNvNtCs7bzfDg8Kx2o_10nexus_core5testss_24test_engine_health_check
FN:479,_RNvNtCs7bzfDg8Kx2o_10nexus_core5testss_24test_error_cypher_syntax
FN:468,_RNvNtCs7bzfDg8Kx2o_10nexus_core5testss_24test_error_type_mismatch
FN:717,_RNvNtCs7bzfDg8Kx2o_10nexus_core5testss_24test_health_status_clone
FN:754,_RNvNtCs7bzfDg8Kx2o_10nexus_core5testss_24test_health_status_debug
FN:543,_RNvNtCs7bzfDg8Kx2o_10nexus_core5testss_26test_engine_execute_cypher
FN:801,_RNvNtCs7bzfDg8Kx2o_10nexus_core5testss_26test_engine_mut_operations
FN:679,_RNvNtCs7bzfDg8Kx2o_10nexus_core5testss_26test_health_state_variants
FN:785,_RNvNtCs7bzfDg8Kx2o_10nexus_core5testss_28test_engine_component_access
FN:591,_RNvNtCs7bzfDg8Kx2o_10nexus_core5testss_28test_engine_get_relationship
FN:566,_RNvNtCs7bzfDg8Kx2o_10nexus_core5testss_31test_engine_create_relationship
FN:633,_RNvNtCs7bzfDg8Kx2o_10nexus_core5testss_31test_engine_stats_serialization
FN:461,_RNvNtCs7bzfDg8Kx2o_10nexus_core5testss_31test_error_constraint_violation
FN:657,_RNvNtCs7bzfDg8Kx2o_10nexus_core5testss_32test_health_status_serialization
FN:205,_RNvMCs4yQ6d7adrZY_10nexus_coreNtB2_6Engine10knn_search
FN:165,_RNvMCs4yQ6d7adrZY_10nexus_coreNtB2_6Engine11create_node
FN:137,_RNvMCs4yQ6d7adrZY_10nexus_coreNtB2_6Engine11new_default
FN:225,_RNvMCs4yQ6d7adrZY_10nexus_coreNtB2_6Engine12health_check
FN:156,_RNvMCs4yQ6d7adrZY_10nexus_coreNtB2_6Engine14execute_cypher
FN:210,_RNvMCs4yQ6d7adrZY_10nexus_coreNtB2_6Engine14validate_graph
FN:199,_RNvMCs4yQ6d7adrZY_10nexus_coreNtB2_6Engine16get_relationship
FN:220,_RNvMCs4yQ6d7adrZY_10nexus_coreNtB2_6Engine18graph_health_check
FN:177,_RNvMCs4yQ6d7adrZY_10nexus_coreNtB2_6Engine19create_relationship
FN:98,_RNvMCs4yQ6d7adrZY_10nexus_coreNtB2_6Engine3new
FN:142,_RNvMCs4yQ6d7adrZY_10nexus_coreNtB2_6Engine5stats
FN:193,_RNvMCs4yQ6d7adrZY_10nexus_coreNtB2_6Engine8get_node
FN:339,_RNvXs_Cs4yQ6d7adrZY_10nexus_coreNtB4_6EngineNtNtCs9Kp62OsN3pY_4core7default7Default7default
FNDA:0,_RNvMCs7bzfDg8Kx2o_10nexus_coreNtB2_6Engine14validate_graph
FNDA:0,_RNvMCs7bzfDg8Kx2o_10nexus_coreNtB2_6Engine18graph_health_check
FNDA:1,_RNvMCs7bzfDg8Kx2o_10nexus_coreNtB2_6Engine10knn_search
FNDA:2,_RNvMCs7bzfDg8Kx2o_10nexus_coreNtB2_6Engine11create_node
FNDA:1,_RNvMCs7bzfDg8Kx2o_10nexus_coreNtB2_6Engine11new_default
FNDA:1,_RNvMCs7bzfDg8Kx2o_10nexus_coreNtB2_6Engine12health_check
FNDA:2,_RNvMCs7bzfDg8Kx2o_10nexus_coreNtB2_6Engine14execute_cypher
FNDA:2,_RNvMCs7bzfDg8Kx2o_10nexus_coreNtB2_6Engine16get_relationship
FNDA:2,_RNvMCs7bzfDg8Kx2o_10nexus_coreNtB2_6Engine19create_relationship
FNDA:16,_RNvMCs7bzfDg8Kx2o_10nexus_coreNtB2_6Engine3new
FNDA:5,_RNvMCs7bzfDg8Kx2o_10nexus_coreNtB2_6Engine5stats
FNDA:2,_RNvMCs7bzfDg8Kx2o_10nexus_coreNtB2_6Engine8get_node
FNDA:1,_RNvXs_Cs7bzfDg8Kx2o_10nexus_coreNtB4_6EngineNtNtCs9Kp62OsN3pY_4core7default7Default7default
FNDA:1,_RNvNtCs7bzfDg8Kx2o_10nexus_core5testss_13test_error_io
FNDA:1,_RNvNtCs7bzfDg8Kx2o_10nexus_core5testss_14test_error_wal
FNDA:1,_RNvNtCs7bzfDg8Kx2o_10nexus_core5testss_16test_error_debug
FNDA:1,_RNvNtCs7bzfDg8Kx2o_10nexus_core5testss_16test_error_index
FNDA:1,_RNvNtCs7bzfDg8Kx2o_10nexus_core5testss_17test_engine_stats
FNDA:1,_RNvNtCs7bzfDg8Kx2o_10nexus_core5testss_18test_error_catalog
FNDA:1,_RNvNtCs7bzfDg8Kx2o_10nexus_core5testss_18test_error_storage
FNDA:1,_RNvNtCs7bzfDg8Kx2o_10nexus_core5testss_19test_engine_default
FNDA:1,_RNvNtCs7bzfDg8Kx2o_10nexus_core5testss_19test_error_database
FNDA:1,_RNvNtCs7bzfDg8Kx2o_10nexus_core5testss_19test_error_executor
FNDA:1,_RNvNtCs7bzfDg8Kx2o_10nexus_core5testss_19test_error_internal
FNDA:1,_RNvNtCs7bzfDg8Kx2o_10nexus_core5testss_20test_engine_creation
FNDA:1,_RNvNtCs7bzfDg8Kx2o_10nexus_core5testss_20test_engine_get_node
FNDA:1,_RNvNtCs7bzfDg8Kx2o_10nexus_core5testss_20test_error_not_found
FNDA:1,_RNvNtCs7bzfDg8Kx2o_10nexus_core5testss_21test_error_invalid_id
FNDA:1,_RNvNtCs7bzfDg8Kx2o_10nexus_core5testss_21test_error_page_cache
FNDA:1,_RNvNtCs7bzfDg8Kx2o_10nexus_core5testss_21test_node_type_export
FNDA:1,_RNvNtCs7bzfDg8Kx2o_10nexus_core5testss_22test_engine_knn_search
FNDA:1,_RNvNtCs7bzfDg8Kx2o_10nexus_core5testss_22test_error_transaction
FNDA:1,_RNvNtCs7bzfDg8Kx2o_10nexus_core5testss_22test_health_state_copy
FNDA:1,_RNvNtCs7bzfDg8Kx2o_10nexus_core5testss_23test_engine_create_node
FNDA:1,_RNvNtCs7bzfDg8Kx2o_10nexus_core5testss_23test_engine_new_default
FNDA:1,_RNvNtCs7bzfDg8Kx2o_10nexus_core5testss_23test_engine_stats_clone
FNDA:1,_RNvNtCs7bzfDg8Kx2o_10nexus_core5testss_23test_engine_stats_debug
FNDA:1,_RNvNtCs7bzfDg8Kx2o_10nexus_core5testss_23test_health_state_debug
FNDA:1,_RNvNtCs7bzfDg8Kx2o_10nexus_core5testss_24test_engine_health_check
FNDA:1,_RNvNtCs7bzfDg8Kx2o_10nexus_core5testss_24test_error_cypher_syntax
FNDA:1,_RNvNtCs7bzfDg8Kx2o_10nexus_core5testss_24test_error_type_mismatch
FNDA:1,_RNvNtCs7bzfDg8Kx2o_10nexus_core5testss_24test_health_status_clone
FNDA:1,_RNvNtCs7bzfDg8Kx2o_10nexus_core5testss_24test_health_status_debug
FNDA:1,_RNvNtCs7bzfDg8Kx2o_10nexus_core5testss_26test_engine_execute_cypher
FNDA:1,_RNvNtCs7bzfDg8Kx2o_10nexus_core5testss_26test_engine_mut_operations
FNDA:1,_RNvNtCs7bzfDg8Kx2o_10nexus_core5testss_26test_health_state_variants
FNDA:1,_RNvNtCs7bzfDg8Kx2o_10nexus_core5testss_28test_engine_component_access
FNDA:1,_RNvNtCs7bzfDg8Kx2o_10nexus_core5testss_28test_engine_get_relationship
FNDA:1,_RNvNtCs7bzfDg8Kx2o_10nexus_core5testss_31test_engine_create_relationship
FNDA:1,_RNvNtCs7bzfDg8Kx2o_10nexus_core5testss_31test_engine_stats_serialization
FNDA:1,_RNvNtCs7bzfDg8Kx2o_10nexus_core5testss_31test_error_constraint_violation
FNDA:1,_RNvNtCs7bzfDg8Kx2o_10nexus_core5testss_32test_health_status_serialization
FNDA:4,_RNvMCs4yQ6d7adrZY_10nexus_coreNtB2_6Engine10knn_search
FNDA:8,_RNvMCs4yQ6d7adrZY_10nexus_coreNtB2_6Engine11create_node
FNDA:0,_RNvMCs4yQ6d7adrZY_10nexus_coreNtB2_6Engine11new_default
FNDA:4,_RNvMCs4yQ6d7adrZY_10nexus_coreNtB2_6Engine12health_check
FNDA:0,_RNvMCs4yQ6d7adrZY_10nexus_coreNtB2_6Engine14execute_cypher
FNDA:0,_RNvMCs4yQ6d7adrZY_10nexus_coreNtB2_6Engine14validate_graph
FNDA:0,_RNvMCs4yQ6d7adrZY_10nexus_coreNtB2_6Engine16get_relationship
FNDA:0,_RNvMCs4yQ6d7adrZY_10nexus_coreNtB2_6Engine18graph_health_check
FNDA:0,_RNvMCs4yQ6d7adrZY_10nexus_coreNtB2_6Engine19create_relationship
FNDA:22,_RNvMCs4yQ6d7adrZY_10nexus_coreNtB2_6Engine3new
FNDA:22,_RNvMCs4yQ6d7adrZY_10nexus_coreNtB2_6Engine5stats
FNDA:4,_RNvMCs4yQ6d7adrZY_10nexus_coreNtB2_6Engine8get_node
FNDA:0,_RNvXs_Cs4yQ6d7adrZY_10nexus_coreNtB4_6EngineNtNtCs9Kp62OsN3pY_4core7default7Default7default
FNF:52
FNH:50
DA:98,38
DA:100,38
DA:101,38
DA:104,38
DA:107,38
DA:110,38
DA:113,38
DA:116,38
DA:119,38
DA:122,38
DA:123,38
DA:125,38
DA:126,38
DA:127,38
DA:128,38
DA:129,38
DA:130,38
DA:131,38
DA:132,38
DA:133,38
DA:134,38
DA:137,1
DA:138,1
DA:139,1
DA:142,27
DA:143,27
DA:144,27
DA:145,27
DA:146,27
DA:147,27
DA:148,27
DA:149,27
DA:150,27
DA:151,27
DA:152,27
DA:153,27
DA:156,2
DA:157,2
DA:158,2
DA:159,2
DA:160,2
DA:161,2
DA:162,2
DA:165,10
DA:166,10
DA:167,10
DA:168,10
DA:169,10
DA:170,10
DA:171,10
DA:172,10
DA:173,10
DA:174,10
DA:177,2
DA:178,2
DA:179,2
DA:180,2
DA:181,2
DA:182,2
DA:183,2
DA:184,2
DA:185,2
DA:186,2
DA:187,2
DA:188,2
DA:189,2
DA:190,2
DA:193,6
DA:194,6
DA:195,6
DA:196,6
DA:199,2
DA:200,2
DA:201,2
DA:202,2
DA:205,5
DA:206,5
DA:207,5
DA:210,0
DA:212,0
DA:213,0
DA:214,0
DA:215,0
DA:216,0
DA:217,0
DA:220,0
DA:221,0
DA:222,0
DA:225,5
DA:226,5
DA:227,5
DA:228,5
DA:229,5
DA:232,5
DA:233,5
DA:234,5
DA:235,5
DA:236,5
DA:237,5
DA:238,0
DA:239,0
DA:240,0
DA:241,0
DA:242,0
DA:243,0
DA:247,5
DA:248,0
DA:249,0
DA:250,0
DA:251,0
DA:252,0
DA:253,5
DA:254,5
DA:255,5
DA:256,5
DA:257,5
DA:258,5
DA:262,5
DA:263,5
DA:264,5
DA:265,5
DA:266,5
DA:267,5
DA:268,0
DA:269,0
DA:270,0
DA:271,0
DA:272,0
DA:273,0
DA:277,5
DA:278,0
DA:279,0
DA:280,0
DA:281,0
DA:282,0
DA:283,5
DA:284,5
DA:285,5
DA:286,5
DA:287,5
DA:288,5
DA:292,5
DA:293,5
DA:294,5
DA:295,5
DA:296,5
DA:297,5
DA:298,0
DA:299,0
DA:300,0
DA:301,0
DA:302,0
DA:303,0
DA:306,5
DA:307,5
DA:339,1
DA:340,1
DA:341,1
DA:349,1
DA:350,1
DA:351,1
DA:352,1
DA:353,1
DA:356,1
DA:357,1
DA:358,1
DA:359,1
DA:362,1
DA:363,1
DA:364,1
DA:365,1
DA:368,1
DA:369,1
DA:370,1
DA:371,1
DA:372,1
DA:375,1
DA:376,1
DA:377,1
DA:378,1
DA:379,1
DA:382,1
DA:383,1
DA:384,1
DA:385,1
DA:386,1
DA:389,1
DA:390,1
DA:391,1
DA:392,1
DA:393,1
DA:396,1
DA:397,1
DA:398,1
DA:399,1
DA:400,1
DA:403,1
DA:404,1
DA:405,1
DA:406,1
DA:407,1
DA:408,1
DA:411,1
DA:415,1
DA:416,1
DA:417,1
DA:418,1
DA:419,1
DA:422,1
DA:423,1
DA:424,1
DA:425,1
DA:426,1
DA:429,1
DA:430,1
DA:432,1
DA:433,1
DA:434,1
DA:437,1
DA:438,1
DA:439,1
DA:440,1
DA:441,1
DA:442,1
DA:443,1
DA:444,1
DA:447,1
DA:448,1
DA:449,1
DA:450,1
DA:451,1
DA:454,1
DA:455,1
DA:456,1
DA:457,1
DA:458,1
DA:461,1
DA:462,1
DA:463,1
DA:464,1
DA:465,1
DA:468,1
DA:469,1
DA:470,1
DA:471,1
DA:472,1
DA:473,1
DA:474,1
DA:475,1
DA:476,1
DA:479,1
DA:480,1
DA:481,1
DA:482,1
DA:483,1
DA:486,1
DA:487,1
DA:488,1
DA:489,1
DA:490,1
DA:493,1
DA:494,1
DA:495,1
DA:496,1
DA:501,1
DA:502,1
DA:503,1
DA:504,1
DA:505,1
DA:506,1
DA:507,1
DA:508,1
DA:511,1
DA:512,1
DA:514,1
DA:515,1
DA:518,1
DA:519,1
DA:520,1
DA:521,1
DA:522,1
DA:525,1
DA:526,1
DA:527,1
DA:532,1
DA:533,1
DA:534,1
DA:535,1
DA:536,1
DA:537,1
DA:538,1
DA:539,1
DA:540,1
DA:543,1
DA:544,1
DA:547,1
DA:549,1
DA:550,1
DA:553,1
DA:554,1
DA:557,1
DA:558,1
DA:560,1
DA:562,1
DA:563,1
DA:566,1
DA:567,1
DA:570,1
DA:573,1
DA:574,1
DA:577,1
DA:578,1
DA:581,1
DA:582,1
DA:585,1
DA:587,1
DA:588,1
DA:591,1
DA:592,1
DA:595,1
DA:597,1
DA:598,1
DA:601,1
DA:602,1
DA:605,1
DA:606,1
DA:608,1
DA:609,1
DA:612,1
DA:613,1
DA:616,1
DA:619,1
DA:620,1
DA:623,1
DA:626,1
DA:627,6
DA:628,5
DA:630,1
DA:633,1
DA:634,1
DA:635,1
DA:638,1
DA:639,1
DA:640,1
DA:641,1
DA:642,1
DA:643,1
DA:644,1
DA:645,1
DA:646,1
DA:649,1
DA:650,1
DA:651,1
DA:652,1
DA:653,1
DA:654,1
DA:657,1
DA:658,1
DA:659,1
DA:660,1
DA:661,1
DA:662,1
DA:663,1
DA:664,1
DA:667,1
DA:668,1
DA:669,1
DA:670,1
DA:673,1
DA:674,1
DA:675,1
DA:676,1
DA:679,1
DA:681,1
DA:682,1
DA:683,1
DA:685,1
DA:686,1
DA:687,1
DA:690,1
DA:691,1
DA:693,1
DA:694,1
DA:696,1
DA:697,1
DA:698,1
DA:701,1
DA:702,1
DA:703,1
DA:704,1
DA:706,1
DA:707,1
DA:708,1
DA:709,1
DA:710,1
DA:711,1
DA:712,1
DA:713,1
DA:714,1
DA:717,1
DA:718,1
DA:719,1
DA:720,1
DA:721,1
DA:722,1
DA:723,1
DA:724,1
DA:726,1
DA:727,1
DA:728,1
DA:729,1
DA:730,1
DA:733,1
DA:734,1
DA:735,1
DA:737,1
DA:738,1
DA:739,1
DA:740,1
DA:743,1
DA:744,1
DA:745,1
DA:746,1
DA:748,1
DA:749,1
DA:750,1
DA:751,1
DA:754,1
DA:755,1
DA:756,1
DA:757,1
DA:758,1
DA:759,1
DA:760,1
DA:761,1
DA:763,1
DA:764,1
DA:765,1
DA:766,1
DA:767,1
DA:770,1
DA:771,1
DA:772,1
DA:773,1
DA:775,1
DA:776,1
DA:777,1
DA:779,1
DA:780,1
DA:781,1
DA:782,1
DA:785,1
DA:786,1
DA:789,1
DA:790,1
DA:791,1
DA:792,1
DA:793,1
DA:794,1
DA:795,1
DA:798,1
DA:801,1
DA:802,1
DA:805,1
DA:806,1
DA:807,1
DA:808,1
DA:809,1
DA:810,1
DA:811,1
DA:814,1
BRF:0
BRH:0
LF:471
LH:433
end_of_record
SF:/mnt/f/Node/hivellm/nexus/nexus-core/src/page_cache/mod.rs
FN:260,_RNCNvMs0_NtCs4yQ6d7adrZY_10nexus_core10page_cacheNtB7_9PageCache11insert_page0B9_
FN:430,_RNCNvMs0_NtCs4yQ6d7adrZY_10nexus_core10page_cacheNtB7_9PageCache5clear0B9_
FN:69,_RNvMNtCs4yQ6d7adrZY_10nexus_core10page_cacheNtB2_4Page10mark_dirty
FN:74,_RNvMNtCs4yQ6d7adrZY_10nexus_core10page_cacheNtB2_4Page11clear_dirty
FN:95,_RNvMNtCs4yQ6d7adrZY_10nexus_core10page_cacheNtB2_4Page13get_pin_count
FN:135,_RNvMNtCs4yQ6d7adrZY_10nexus_core10page_cacheNtB2_4Page15update_checksum
FN:110,_RNvMNtCs4yQ6d7adrZY_10nexus_core10page_cacheNtB2_4Page16compute_checksum
FN:100,_RNvMNtCs4yQ6d7adrZY_10nexus_core10page_cacheNtB2_4Page17set_reference_bit
FN:115,_RNvMNtCs4yQ6d7adrZY_10nexus_core10page_cacheNtB2_4Page17validate_checksum
FN:105,_RNvMNtCs4yQ6d7adrZY_10nexus_core10page_cacheNtB2_4Page19clear_reference_bit
FN:52,_RNvMNtCs4yQ6d7adrZY_10nexus_core10page_cacheNtB2_4Page3new
FN:84,_RNvMNtCs4yQ6d7adrZY_10nexus_core10page_cacheNtB2_4Page3pin
FN:89,_RNvMNtCs4yQ6d7adrZY_10nexus_core10page_cacheNtB2_4Page5unpin
FN:64,_RNvMNtCs4yQ6d7adrZY_10nexus_core10page_cacheNtB2_4Page8is_dirty
FN:79,_RNvMNtCs4yQ6d7adrZY_10nexus_core10page_cacheNtB2_4Page9is_pinned
FN:273,_RNvMs0_NtCs4yQ6d7adrZY_10nexus_core10page_cacheNtB5_9PageCache10evict_page
FN:386,_RNvMs0_NtCs4yQ6d7adrZY_10nexus_core10page_cacheNtB5_9PageCache10flush_page
FN:355,_RNvMs0_NtCs4yQ6d7adrZY_10nexus_core10page_cacheNtB5_9PageCache10mark_dirty
FN:457,_RNvMs0_NtCs4yQ6d7adrZY_10nexus_core10page_cacheNtB5_9PageCache10miss_count
FN:342,_RNvMs0_NtCs4yQ6d7adrZY_10nexus_core10page_cacheNtB5_9PageCache10unpin_page
FN:256,_RNvMs0_NtCs4yQ6d7adrZY_10nexus_core10page_cacheNtB5_9PageCache11insert_page
FN:462,_RNvMs0_NtCs4yQ6d7adrZY_10nexus_core10page_cacheNtB5_9PageCache12health_check
FN:402,_RNvMs0_NtCs4yQ6d7adrZY_10nexus_core10page_cacheNtB5_9PageCache13contains_page
FN:412,_RNvMs0_NtCs4yQ6d7adrZY_10nexus_core10page_cacheNtB5_9PageCache3len
FN:210,_RNvMs0_NtCs4yQ6d7adrZY_10nexus_core10page_cacheNtB5_9PageCache3new
FN:422,_RNvMs0_NtCs4yQ6d7adrZY_10nexus_core10page_cacheNtB5_9PageCache5clear
FN:369,_RNvMs0_NtCs4yQ6d7adrZY_10nexus_core10page_cacheNtB5_9PageCache5flush
FN:407,_RNvMs0_NtCs4yQ6d7adrZY_10nexus_core10page_cacheNtB5_9PageCache5stats
FN:228,_RNvMs0_NtCs4yQ6d7adrZY_10nexus_core10page_cacheNtB5_9PageCache8get_page
FN:417,_RNvMs0_NtCs4yQ6d7adrZY_10nexus_core10page_cacheNtB5_9PageCache8is_empty
FN:331,_RNvMs0_NtCs4yQ6d7adrZY_10nexus_core10page_cacheNtB5_9PageCache8pin_page
FN:452,_RNvMs0_NtCs4yQ6d7adrZY_10nexus_core10page_cacheNtB5_9PageCache9hit_count
FN:166,_RNvMs_NtCs4yQ6d7adrZY_10nexus_core10page_cacheNtB4_14PageCacheStats8hit_rate
FN:110,_RNvMNtCs7bzfDg8Kx2o_10nexus_core10page_cacheNtB2_4Page16compute_checksum
FN:602,_RNvNtNtCs7bzfDg8Kx2o_10nexus_core10page_cache5testss_16test_cache_flush
FN:729,_RNvNtNtCs7bzfDg8Kx2o_10nexus_core10page_cache5testss_16test_clear_cache
FN:770,_RNvNtNtCs7bzfDg8Kx2o_10nexus_core10page_cache5testss_18test_contains_page
FN:780,_RNvNtNtCs7bzfDg8Kx2o_10nexus_core10page_cache5testss_18test_page_checksum
FN:487,_RNvNtNtCs7bzfDg8Kx2o_10nexus_core10page_cache5testss_18test_page_creation
FN:541,_RNvNtNtCs7bzfDg8Kx2o_10nexus_core10page_cache5testss_19test_cache_creation
FN:626,_RNvNtNtCs7bzfDg8Kx2o_10nexus_core10page_cache5testss_19test_cache_eviction
FN:555,_RNvNtNtCs7bzfDg8Kx2o_10nexus_core10page_cache5testss_19test_cache_get_page
FN:830,_RNvNtNtCs7bzfDg8Kx2o_10nexus_core10page_cache5testss_19test_page_constants
FN:508,_RNvNtNtCs7bzfDg8Kx2o_10nexus_core10page_cache5testss_19test_page_pin_unpin
FN:574,_RNvNtNtCs7bzfDg8Kx2o_10nexus_core10page_cache5testss_20test_cache_pin_unpin
FN:496,_RNvNtNtCs7bzfDg8Kx2o_10nexus_core10page_cache5testss_20test_page_dirty_flag
FN:588,_RNvNtNtCs7bzfDg8Kx2o_10nexus_core10page_cache5testss_21test_cache_mark_dirty
FN:800,_RNvNtNtCs7bzfDg8Kx2o_10nexus_core10page_cache5testss_22test_concurrent_access
FN:714,_RNvNtNtCs7bzfDg8Kx2o_10nexus_core10page_cache5testss_22test_flush_single_page
FN:531,_RNvNtNtCs7bzfDg8Kx2o_10nexus_core10page_cache5testss_23test_page_reference_bit
FN:549,_RNvNtNtCs7bzfDg8Kx2o_10nexus_core10page_cache5testss_24test_cache_zero_capacity
FN:663,_RNvNtNtCs7bzfDg8Kx2o_10nexus_core10page_cache5testss_24test_clock_second_chance
FN:749,_RNvNtNtCs7bzfDg8Kx2o_10nexus_core10page_cache5testss_25test_hit_rate_calculation
FN:647,_RNvNtNtCs7bzfDg8Kx2o_10nexus_core10page_cache5testss_26test_eviction_skips_pinned
FN:696,_RNvNtNtCs7bzfDg8Kx2o_10nexus_core10page_cache5testss_32test_flush_dirty_before_eviction
FN:69,_RNvMNtCs7bzfDg8Kx2o_10nexus_core10page_cacheNtB2_4Page10mark_dirty
FN:74,_RNvMNtCs7bzfDg8Kx2o_10nexus_core10page_cacheNtB2_4Page11clear_dirty
FN:95,_RNvMNtCs7bzfDg8Kx2o_10nexus_core10page_cacheNtB2_4Page13get_pin_count
FN:135,_RNvMNtCs7bzfDg8Kx2o_10nexus_core10page_cacheNtB2_4Page15update_checksum
FN:100,_RNvMNtCs7bzfDg8Kx2o_10nexus_core10page_cacheNtB2_4Page17set_reference_bit
FN:115,_RNvMNtCs7bzfDg8Kx2o_10nexus_core10page_cacheNtB2_4Page17validate_checksum
FN:105,_RNvMNtCs7bzfDg8Kx2o_10nexus_core10page_cacheNtB2_4Page19clear_reference_bit
FN:52,_RNvMNtCs7bzfDg8Kx2o_10nexus_core10page_cacheNtB2_4Page3new
FN:84,_RNvMNtCs7bzfDg8Kx2o_10nexus_core10page_cacheNtB2_4Page3pin
FN:89,_RNvMNtCs7bzfDg8Kx2o_10nexus_core10page_cacheNtB2_4Page5unpin
FN:64,_RNvMNtCs7bzfDg8Kx2o_10nexus_core10page_cacheNtB2_4Page8is_dirty
FN:79,_RNvMNtCs7bzfDg8Kx2o_10nexus_core10page_cacheNtB2_4Page9is_pinned
FN:273,_RNvMs0_NtCs7bzfDg8Kx2o_10nexus_core10page_cacheNtB5_9PageCache10evict_page
FN:386,_RNvMs0_NtCs7bzfDg8Kx2o_10nexus_core10page_cacheNtB5_9PageCache10flush_page
FN:355,_RNvMs0_NtCs7bzfDg8Kx2o_10nexus_core10page_cacheNtB5_9PageCache10mark_dirty
FN:457,_RNvMs0_NtCs7bzfDg8Kx2o_10nexus_core10page_cacheNtB5_9PageCache10miss_count
FN:342,_RNvMs0_NtCs7bzfDg8Kx2o_10nexus_core10page_cacheNtB5_9PageCache10unpin_page
FN:256,_RNvMs0_NtCs7bzfDg8Kx2o_10nexus_core10page_cacheNtB5_9PageCache11insert_page
FN:462,_RNvMs0_NtCs7bzfDg8Kx2o_10nexus_core10page_cacheNtB5_9PageCache12health_check
FN:402,_RNvMs0_NtCs7bzfDg8Kx2o_10nexus_core10page_cacheNtB5_9PageCache13contains_page
FN:412,_RNvMs0_NtCs7bzfDg8Kx2o_10nexus_core10page_cacheNtB5_9PageCache3len
FN:210,_RNvMs0_NtCs7bzfDg8Kx2o_10nexus_core10page_cacheNtB5_9PageCache3new
FN:422,_RNvMs0_NtCs7bzfDg8Kx2o_10nexus_core10page_cacheNtB5_9PageCache5clear
FN:369,_RNvMs0_NtCs7bzfDg8Kx2o_10nexus_core10page_cacheNtB5_9PageCache5flush
FN:407,_RNvMs0_NtCs7bzfDg8Kx2o_10nexus_core10page_cacheNtB5_9PageCache5stats
FN:228,_RNvMs0_NtCs7bzfDg8Kx2o_10nexus_core10page_cacheNtB5_9PageCache8get_page
FN:417,_RNvMs0_NtCs7bzfDg8Kx2o_10nexus_core10page_cacheNtB5_9PageCache8is_empty
FN:331,_RNvMs0_NtCs7bzfDg8Kx2o_10nexus_core10page_cacheNtB5_9PageCache8pin_page
FN:452,_RNvMs0_NtCs7bzfDg8Kx2o_10nexus_core10page_cacheNtB5_9PageCache9hit_count
FN:166,_RNvMs_NtCs7bzfDg8Kx2o_10nexus_core10page_cacheNtB4_14PageCacheStats8hit_rate
FN:260,_RNCNvMs0_NtCs7bzfDg8Kx2o_10nexus_core10page_cacheNtB7_9PageCache11insert_page0B9_
FN:430,_RNCNvMs0_NtCs7bzfDg8Kx2o_10nexus_core10page_cacheNtB7_9PageCache5clear0B9_
FN:812,_RNCNvNtNtCs7bzfDg8Kx2o_10nexus_core10page_cache5testss_22test_concurrent_access0B7_
FN:688,_RNCNvNtNtCs7bzfDg8Kx2o_10nexus_core10page_cache5testss_24test_clock_second_chance0B7_
FNDA:62,_RNCNvMs0_NtCs4yQ6d7adrZY_10nexus_core10page_cacheNtB7_9PageCache11insert_page0B9_
FNDA:0,_RNCNvMs0_NtCs4yQ6d7adrZY_10nexus_core10page_cacheNtB7_9PageCache5clear0B9_
FNDA:1,_RNvMNtCs4yQ6d7adrZY_10nexus_core10page_cacheNtB2_4Page10mark_dirty
FNDA:1,_RNvMNtCs4yQ6d7adrZY_10nexus_core10page_cacheNtB2_4Page11clear_dirty
FNDA:0,_RNvMNtCs4yQ6d7adrZY_10nexus_core10page_cacheNtB2_4Page13get_pin_count
FNDA:0,_RNvMNtCs4yQ6d7adrZY_10nexus_core10page_cacheNtB2_4Page15update_checksum
FNDA:0,_RNvMNtCs4yQ6d7adrZY_10nexus_core10page_cacheNtB2_4Page16compute_checksum
FNDA:9,_RNvMNtCs4yQ6d7adrZY_10nexus_core10page_cacheNtB2_4Page17set_reference_bit
FNDA:0,_RNvMNtCs4yQ6d7adrZY_10nexus_core10page_cacheNtB2_4Page17validate_checksum
FNDA:30,_RNvMNtCs4yQ6d7adrZY_10nexus_core10page_cacheNtB2_4Page19clear_reference_bit
FNDA:22,_RNvMNtCs4yQ6d7adrZY_10nexus_core10page_cacheNtB2_4Page3new
FNDA:0,_RNvMNtCs4yQ6d7adrZY_10nexus_core10page_cacheNtB2_4Page3pin
FNDA:0,_RNvMNtCs4yQ6d7adrZY_10nexus_core10page_cacheNtB2_4Page5unpin
FNDA:16,_RNvMNtCs4yQ6d7adrZY_10nexus_core10page_cacheNtB2_4Page8is_dirty
FNDA:30,_RNvMNtCs4yQ6d7adrZY_10nexus_core10page_cacheNtB2_4Page9is_pinned
FNDA:15,_RNvMs0_NtCs4yQ6d7adrZY_10nexus_core10page_cacheNtB5_9PageCache10evict_page
FNDA:0,_RNvMs0_NtCs4yQ6d7adrZY_10nexus_core10page_cacheNtB5_9PageCache10flush_page
FNDA:1,_RNvMs0_NtCs4yQ6d7adrZY_10nexus_core10page_cacheNtB5_9PageCache10mark_dirty
FNDA:22,_RNvMs0_NtCs4yQ6d7adrZY_10nexus_core10page_cacheNtB5_9PageCache10miss_count
FNDA:0,_RNvMs0_NtCs4yQ6d7adrZY_10nexus_core10page_cacheNtB5_9PageCache10unpin_page
FNDA:22,_RNvMs0_NtCs4yQ6d7adrZY_10nexus_core10page_cacheNtB5_9PageCache11insert_page
FNDA:4,_RNvMs0_NtCs4yQ6d7adrZY_10nexus_core10page_cacheNtB5_9PageCache12health_check
FNDA:0,_RNvMs0_NtCs4yQ6d7adrZY_10nexus_core10page_cacheNtB5_9PageCache13contains_page
FNDA:1,_RNvMs0_NtCs4yQ6d7adrZY_10nexus_core10page_cacheNtB5_9PageCache3len
FNDA:25,_RNvMs0_NtCs4yQ6d7adrZY_10nexus_core10page_cacheNtB5_9PageCache3new
FNDA:0,_RNvMs0_NtCs4yQ6d7adrZY_10nexus_core10page_cacheNtB5_9PageCache5clear
FNDA:1,_RNvMs0_NtCs4yQ6d7adrZY_10nexus_core10page_cacheNtB5_9PageCache5flush
FNDA:3,_RNvMs0_NtCs4yQ6d7adrZY_10nexus_core10page_cacheNtB5_9PageCache5stats
FNDA:31,_RNvMs0_NtCs4yQ6d7adrZY_10nexus_core10page_cacheNtB5_9PageCache8get_page
FNDA:0,_RNvMs0_NtCs4yQ6d7adrZY_10nexus_core10page_cacheNtB5_9PageCache8is_empty
FNDA:0,_RNvMs0_NtCs4yQ6d7adrZY_10nexus_core10page_cacheNtB5_9PageCache8pin_page
FNDA:22,_RNvMs0_NtCs4yQ6d7adrZY_10nexus_core10page_cacheNtB5_9PageCache9hit_count
FNDA:0,_RNvMs_NtCs4yQ6d7adrZY_10nexus_core10page_cacheNtB4_14PageCacheStats8hit_rate
FNDA:0,_RNvMNtCs7bzfDg8Kx2o_10nexus_core10page_cacheNtB2_4Page16compute_checksum
FNDA:1,_RNvNtNtCs7bzfDg8Kx2o_10nexus_core10page_cache5testss_16test_cache_flush
FNDA:1,_RNvNtNtCs7bzfDg8Kx2o_10nexus_core10page_cache5testss_16test_clear_cache
FNDA:1,_RNvNtNtCs7bzfDg8Kx2o_10nexus_core10page_cache5testss_18test_contains_page
FNDA:1,_RNvNtNtCs7bzfDg8Kx2o_10nexus_core10page_cache5testss_18test_page_checksum
FNDA:1,_RNvNtNtCs7bzfDg8Kx2o_10nexus_core10page_cache5testss_18test_page_creation
FNDA:1,_RNvNtNtCs7bzfDg8Kx2o_10nexus_core10page_cache5testss_19test_cache_creation
FNDA:1,_RNvNtNtCs7bzfDg8Kx2o_10nexus_core10page_cache5testss_19test_cache_eviction
FNDA:1,_RNvNtNtCs7bzfDg8Kx2o_10nexus_core10page_cache5testss_19test_cache_get_page
FNDA:1,_RNvNtNtCs7bzfDg8Kx2o_10nexus_core10page_cache5testss_19test_page_constants
FNDA:1,_RNvNtNtCs7bzfDg8Kx2o_10nexus_core10page_cache5testss_19test_page_pin_unpin
FNDA:1,_RNvNtNtCs7bzfDg8Kx2o_10nexus_core10page_cache5testss_20test_cache_pin_unpin
FNDA:1,_RNvNtNtCs7bzfDg8Kx2o_10nexus_core10page_cache5testss_20test_page_dirty_flag
FNDA:1,_RNvNtNtCs7bzfDg8Kx2o_10nexus_core10page_cache5testss_21test_cache_mark_dirty
FNDA:1,_RNvNtNtCs7bzfDg8Kx2o_10nexus_core10page_cache5testss_22test_concurrent_access
FNDA:1,_RNvNtNtCs7bzfDg8Kx2o_10nexus_core10page_cache5testss_22test_flush_single_page
FNDA:1,_RNvNtNtCs7bzfDg8Kx2o_10nexus_core10page_cache5testss_23test_page_reference_bit
FNDA:1,_RNvNtNtCs7bzfDg8Kx2o_10nexus_core10page_cache5testss_24test_cache_zero_capacity
FNDA:1,_RNvNtNtCs7bzfDg8Kx2o_10nexus_core10page_cache5testss_24test_clock_second_chance
FNDA:1,_RNvNtNtCs7bzfDg8Kx2o_10nexus_core10page_cache5testss_25test_hit_rate_calculation
FNDA:1,_RNvNtNtCs7bzfDg8Kx2o_10nexus_core10page_cache5testss_26test_eviction_skips_pinned
FNDA:1,_RNvNtNtCs7bzfDg8Kx2o_10nexus_core10page_cache5testss_32test_flush_dirty_before_eviction
FNDA:14,_RNvMNtCs7bzfDg8Kx2o_10nexus_core10page_cacheNtB2_4Page10mark_dirty
FNDA:13,_RNvMNtCs7bzfDg8Kx2o_10nexus_core10page_cacheNtB2_4Page11clear_dirty
FNDA:5,_RNvMNtCs7bzfDg8Kx2o_10nexus_core10page_cacheNtB2_4Page13get_pin_count
FNDA:1,_RNvMNtCs7bzfDg8Kx2o_10nexus_core10page_cacheNtB2_4Page15update_checksum
FNDA:11,_RNvMNtCs7bzfDg8Kx2o_10nexus_core10page_cacheNtB2_4Page17set_reference_bit
FNDA:2,_RNvMNtCs7bzfDg8Kx2o_10nexus_core10page_cacheNtB2_4Page17validate_checksum
FNDA:15,_RNvMNtCs7bzfDg8Kx2o_10nexus_core10page_cacheNtB2_4Page19clear_reference_bit
FNDA:141,_RNvMNtCs7bzfDg8Kx2o_10nexus_core10page_cacheNtB2_4Page3new
FNDA:7,_RNvMNtCs7bzfDg8Kx2o_10nexus_core10page_cacheNtB2_4Page3pin
FNDA:3,_RNvMNtCs7bzfDg8Kx2o_10nexus_core10page_cacheNtB2_4Page5unpin
FNDA:23,_RNvMNtCs7bzfDg8Kx2o_10nexus_core10page_cacheNtB2_4Page8is_dirty
FNDA:31,_RNvMNtCs7bzfDg8Kx2o_10nexus_core10page_cacheNtB2_4Page9is_pinned
FNDA:4,_RNvMs0_NtCs7bzfDg8Kx2o_10nexus_core10page_cacheNtB5_9PageCache10evict_page
FNDA:1,_RNvMs0_NtCs7bzfDg8Kx2o_10nexus_core10page_cacheNtB5_9PageCache10flush_page
FNDA:13,_RNvMs0_NtCs7bzfDg8Kx2o_10nexus_core10page_cacheNtB5_9PageCache10mark_dirty
FNDA:6,_RNvMs0_NtCs7bzfDg8Kx2o_10nexus_core10page_cacheNtB5_9PageCache10miss_count
FNDA:1,_RNvMs0_NtCs7bzfDg8Kx2o_10nexus_core10page_cacheNtB5_9PageCache10unpin_page
FNDA:136,_RNvMs0_NtCs7bzfDg8Kx2o_10nexus_core10page_cacheNtB5_9PageCache11insert_page
FNDA:1,_RNvMs0_NtCs7bzfDg8Kx2o_10nexus_core10page_cacheNtB5_9PageCache12health_check
FNDA:8,_RNvMs0_NtCs7bzfDg8Kx2o_10nexus_core10page_cacheNtB5_9PageCache13contains_page
FNDA:9,_RNvMs0_NtCs7bzfDg8Kx2o_10nexus_core10page_cacheNtB5_9PageCache3len
FNDA:31,_RNvMs0_NtCs7bzfDg8Kx2o_10nexus_core10page_cacheNtB5_9PageCache3new
FNDA:1,_RNvMs0_NtCs7bzfDg8Kx2o_10nexus_core10page_cacheNtB5_9PageCache5clear
FNDA:2,_RNvMs0_NtCs7bzfDg8Kx2o_10nexus_core10page_cacheNtB5_9PageCache5flush
FNDA:11,_RNvMs0_NtCs7bzfDg8Kx2o_10nexus_core10page_cacheNtB5_9PageCache5stats
FNDA:147,_RNvMs0_NtCs7bzfDg8Kx2o_10nexus_core10page_cacheNtB5_9PageCache8get_page
FNDA:1,_RNvMs0_NtCs7bzfDg8Kx2o_10nexus_core10page_cacheNtB5_9PageCache8is_empty
FNDA:5,_RNvMs0_NtCs7bzfDg8Kx2o_10nexus_core10page_cacheNtB5_9PageCache8pin_page
FNDA:6,_RNvMs0_NtCs7bzfDg8Kx2o_10nexus_core10page_cacheNtB5_9PageCache9hit_count
FNDA:1,_RNvMs_NtCs7bzfDg8Kx2o_10nexus_core10page_cacheNtB4_14PageCacheStats8hit_rate
FNDA:5133,_RNCNvMs0_NtCs7bzfDg8Kx2o_10nexus_core10page_cacheNtB7_9PageCache11insert_page0B9_
FNDA:5,_RNCNvMs0_NtCs7bzfDg8Kx2o_10nexus_core10page_cacheNtB7_9PageCache5clear0B9_
FNDA:10,_RNCNvNtNtCs7bzfDg8Kx2o_10nexus_core10page_cache5testss_22test_concurrent_access0B7_
FNDA:2,_RNCNvNtNtCs7bzfDg8Kx2o_10nexus_core10page_cache5testss_24test_clock_second_chance0B7_
FNF:56
FNH:55
DA:52,163
DA:53,163
DA:54,163
DA:55,163
DA:56,163
DA:57,163
DA:58,163
DA:59,163
DA:60,163
DA:61,163
DA:64,39
DA:65,39
DA:66,39
DA:69,15
DA:70,15
DA:71,15
DA:74,14
DA:75,14
DA:76,14
DA:79,61
DA:80,61
DA:81,61
DA:84,7
DA:85,7
DA:86,7
DA:89,3
DA:90,3
DA:91,3
DA:92,3
DA:95,5
DA:96,5
DA:97,5
DA:100,20
DA:101,20
DA:102,20
DA:105,45
DA:106,45
DA:107,45
DA:110,0
DA:111,0
DA:112,0
DA:115,2
DA:116,2
DA:117,0
DA:118,2
DA:120,2
DA:122,2
DA:124,2
DA:125,1
DA:126,1
DA:127,1
DA:128,1
DA:129,1
DA:131,1
DA:132,2
DA:135,1
DA:136,1
DA:137,1
DA:138,1
DA:139,1
DA:140,1
DA:166,1
DA:167,1
DA:168,0
DA:170,1
DA:172,1
DA:210,56
DA:211,56
DA:212,1
DA:213,55
DA:215,55
DA:216,55
DA:217,55
DA:218,55
DA:219,55
DA:220,55
DA:221,55
DA:222,55
DA:223,56
DA:228,178
DA:229,178
DA:232,178
DA:233,19
DA:234,19
DA:235,19
DA:236,159
DA:239,159
DA:242,159
DA:243,19
DA:244,140
DA:247,158
DA:250,158
DA:252,158
DA:253,178
DA:256,158
DA:257,158
DA:260,5195
DA:261,158
DA:262,158
DA:264,0
DA:265,0
DA:266,0
DA:269,158
DA:270,158
DA:273,19
DA:274,19
DA:275,19
DA:278,50
DA:279,1
DA:280,49
DA:283,49
DA:284,49
DA:286,49
DA:287,6
DA:288,6
DA:289,6
DA:290,43
DA:293,43
DA:295,25
DA:296,25
DA:297,25
DA:298,18
DA:301,18
DA:304,18
DA:305,1
DA:306,1
DA:307,1
DA:308,1
DA:309,17
DA:312,18
DA:313,18
DA:314,18
DA:315,18
DA:318,18
DA:320,18
DA:321,0
DA:322,0
DA:325,0
DA:326,0
DA:328,19
DA:331,5
DA:332,5
DA:333,5
DA:334,5
DA:335,5
DA:337,0
DA:339,5
DA:342,1
DA:343,1
DA:344,1
DA:345,1
DA:346,1
DA:347,1
DA:348,1
DA:350,0
DA:352,1
DA:355,14
DA:356,14
DA:357,14
DA:358,14
DA:359,14
DA:360,14
DA:361,14
DA:362,14
DA:364,0
DA:366,14
DA:369,3
DA:370,3
DA:372,14
DA:373,11
DA:374,11
DA:375,11
DA:376,11
DA:377,11
DA:378,11
DA:381,3
DA:382,3
DA:383,3
DA:386,1
DA:387,1
DA:388,1
DA:389,1
DA:390,1
DA:391,1
DA:392,1
DA:393,1
DA:394,1
DA:395,1
DA:397,0
DA:399,1
DA:402,8
DA:403,8
DA:404,8
DA:407,14
DA:408,14
DA:409,14
DA:412,10
DA:413,10
DA:414,10
DA:417,1
DA:418,1
DA:419,1
DA:422,1
DA:424,1
DA:427,1
DA:428,1
DA:429,1
DA:430,5
DA:431,1
DA:432,1
DA:434,5
DA:435,4
DA:436,4
DA:439,11
DA:440,10
DA:441,5
DA:442,4
DA:443,4
DA:444,5
DA:447,1
DA:448,1
DA:449,1
DA:452,28
DA:453,28
DA:454,28
DA:457,28
DA:458,28
DA:459,28
DA:462,5
DA:464,5
DA:465,0
DA:466,5
DA:469,5
DA:470,0
DA:471,5
DA:474,5
DA:475,0
DA:476,5
DA:478,5
DA:479,5
DA:487,1
DA:488,1
DA:489,1
DA:490,1
DA:491,1
DA:492,1
DA:493,1
DA:496,1
DA:497,1
DA:498,1
DA:500,1
DA:501,1
DA:503,1
DA:504,1
DA:505,1
DA:508,1
DA:509,1
DA:510,1
DA:511,1
DA:513,1
DA:514,1
DA:515,1
DA:517,1
DA:518,1
DA:520,1
DA:521,1
DA:522,1
DA:524,1
DA:525,1
DA:526,1
DA:527,1
DA:528,1
DA:531,1
DA:532,1
DA:534,1
DA:535,1
DA:537,1
DA:538,1
DA:541,1
DA:542,1
DA:543,1
DA:544,1
DA:545,1
DA:546,1
DA:549,1
DA:550,1
DA:551,1
DA:552,1
DA:555,1
DA:556,1
DA:558,1
DA:559,1
DA:560,1
DA:563,1
DA:564,1
DA:565,1
DA:567,1
DA:568,1
DA:569,1
DA:570,1
DA:571,1
DA:574,1
DA:575,1
DA:577,1
DA:578,1
DA:580,1
DA:581,1
DA:583,1
DA:584,1
DA:585,1
DA:588,1
DA:589,1
DA:591,1
DA:592,1
DA:594,1
DA:595,1
DA:597,1
DA:598,1
DA:599,1
DA:602,1
DA:603,1
DA:606,6
DA:607,5
DA:608,5
DA:609,5
DA:611,1
DA:612,1
DA:615,1
DA:617,1
DA:618,1
DA:619,1
DA:622,1
DA:623,1
DA:626,1
DA:627,1
DA:630,6
DA:631,5
DA:632,5
DA:634,1
DA:637,1
DA:639,1
DA:640,1
DA:642,1
DA:643,1
DA:644,1
DA:647,1
DA:648,1
DA:651,4
DA:652,3
DA:653,3
DA:654,3
DA:657,1
DA:658,1
DA:659,1
DA:660,1
DA:663,1
DA:664,1
DA:667,4
DA:668,3
DA:669,3
DA:672,1
DA:673,1
DA:674,1
DA:675,1
DA:678,1
DA:681,1
DA:682,1
DA:684,1
DA:685,1
DA:688,2
DA:689,1
DA:690,1
DA:691,0
DA:693,1
DA:696,1
DA:697,1
DA:700,1
DA:701,1
DA:704,1
DA:705,1
DA:708,1
DA:709,1
DA:710,1
DA:711,1
DA:714,1
DA:715,1
DA:717,1
DA:718,1
DA:720,1
DA:722,1
DA:724,1
DA:725,1
DA:726,1
DA:729,1
DA:730,1
DA:733,6
DA:734,5
DA:735,5
DA:736,5
DA:739,1
DA:741,1
DA:744,1
DA:745,1
DA:746,1
DA:749,1
DA:750,1
DA:753,6
DA:754,5
DA:755,5
DA:758,6
DA:759,5
DA:760,5
DA:762,1
DA:763,1
DA:764,1
DA:765,1
DA:766,1
DA:767,1
DA:770,1
DA:771,1
DA:773,1
DA:775,1
DA:776,1
DA:777,1
DA:780,1
DA:781,1
DA:784,1
DA:787,1
DA:790,1
DA:793,1
DA:796,1
DA:797,1
DA:800,1
DA:805,1
DA:807,1
DA:810,11
DA:811,10
DA:812,10
DA:813,110
DA:814,100
DA:815,100
DA:816,100
DA:817,10
DA:818,10
DA:821,11
DA:822,10
DA:823,10
DA:825,1
DA:826,1
DA:827,1
DA:830,1
DA:831,1
DA:832,1
DA:833,1
DA:834,1
BRF:0
BRH:0
LF:459
LH:439
end_of_record
SF:/mnt/f/Node/hivellm/nexus/nexus-core/src/retry.rs
FN:568,_RNCNCNCNvNtNtCs7bzfDg8Kx2o_10nexus_core5retry5testss_18test_retry_network000Bb_
FN:550,_RNCNCNCNvNtNtCs7bzfDg8Kx2o_10nexus_core5retry5testss_18test_retry_storage000Bb_
FN:586,_RNCNCNCNvNtNtCs7bzfDg8Kx2o_10nexus_core5retry5testss_19test_retry_database000Bb_
FN:532,_RNCNCNCNvNtNtCs7bzfDg8Kx2o_10nexus_core5retry5testss_30test_retry_non_retryable_error000Bb_
FN:513,_RNCNCNCNvNtNtCs7bzfDg8Kx2o_10nexus_core5retry5testss_32test_retry_max_attempts_exceeded000Bb_
FN:483,_RNCNCNCNvNtNtCs7bzfDg8Kx2o_10nexus_core5retry5testss_32test_retry_success_after_retries000Bb_
FN:464,_RNCNCNCNvNtNtCs7bzfDg8Kx2o_10nexus_core5retry5testss_32test_retry_success_first_attempt000Bb_
FN:566,_RNCNCNvNtNtCs7bzfDg8Kx2o_10nexus_core5retry5testss_18test_retry_network00B9_
FN:548,_RNCNCNvNtNtCs7bzfDg8Kx2o_10nexus_core5retry5testss_18test_retry_storage00B9_
FN:584,_RNCNCNvNtNtCs7bzfDg8Kx2o_10nexus_core5retry5testss_19test_retry_database00B9_
FN:530,_RNCNCNvNtNtCs7bzfDg8Kx2o_10nexus_core5retry5testss_30test_retry_non_retryable_error00B9_
FN:511,_RNCNCNvNtNtCs7bzfDg8Kx2o_10nexus_core5retry5testss_32test_retry_max_attempts_exceeded00B9_
FN:481,_RNCNCNvNtNtCs7bzfDg8Kx2o_10nexus_core5retry5testss_32test_retry_success_after_retries00B9_
FN:462,_RNCNCNvNtNtCs7bzfDg8Kx2o_10nexus_core5retry5testss_32test_retry_success_first_attempt00B9_
FN:562,_RNCNvNtNtCs7bzfDg8Kx2o_10nexus_core5retry5testss_18test_retry_network0B7_
FN:544,_RNCNvNtNtCs7bzfDg8Kx2o_10nexus_core5retry5testss_18test_retry_storage0B7_
FN:580,_RNCNvNtNtCs7bzfDg8Kx2o_10nexus_core5retry5testss_19test_retry_database0B7_
FN:525,_RNCNvNtNtCs7bzfDg8Kx2o_10nexus_core5retry5testss_30test_retry_non_retryable_error0B7_
FN:499,_RNCNvNtNtCs7bzfDg8Kx2o_10nexus_core5retry5testss_32test_retry_max_attempts_exceeded0B7_
FN:476,_RNCNvNtNtCs7bzfDg8Kx2o_10nexus_core5retry5testss_32test_retry_success_after_retries0B7_
FN:457,_RNCNvNtNtCs7bzfDg8Kx2o_10nexus_core5retry5testss_32test_retry_success_first_attempt0B7_
FN:562,_RNvNtNtCs7bzfDg8Kx2o_10nexus_core5retry5testss_18test_retry_network
FN:544,_RNvNtNtCs7bzfDg8Kx2o_10nexus_core5retry5testss_18test_retry_storage
FN:580,_RNvNtNtCs7bzfDg8Kx2o_10nexus_core5retry5testss_19test_retry_database
FN:235,_RNvNtNtCs7bzfDg8Kx2o_10nexus_core5retry5testss_21test_retry_config_new
FN:255,_RNvNtNtCs7bzfDg8Kx2o_10nexus_core5retry5testss_22test_retry_config_slow
FN:290,_RNvNtNtCs7bzfDg8Kx2o_10nexus_core5retry5testss_22test_retry_context_new
FN:274,_RNvNtNtCs7bzfDg8Kx2o_10nexus_core5retry5testss_22test_retry_stats_clone
FN:245,_RNvNtNtCs7bzfDg8Kx2o_10nexus_core5retry5testss_23test_retry_config_quick
FN:299,_RNvNtNtCs7bzfDg8Kx2o_10nexus_core5retry5testss_24test_retry_context_stats
FN:265,_RNvNtNtCs7bzfDg8Kx2o_10nexus_core5retry5testss_24test_retry_stats_default
FN:225,_RNvNtNtCs7bzfDg8Kx2o_10nexus_core5retry5testss_25test_retry_config_default
FN:317,_RNvNtNtCs7bzfDg8Kx2o_10nexus_core5retry5testss_28test_is_retryable_io_timeout
FN:403,_RNvNtNtCs7bzfDg8Kx2o_10nexus_core5retry5testss_29test_is_retryable_other_error
FN:525,_RNvNtNtCs7bzfDg8Kx2o_10nexus_core5retry5testss_30test_retry_non_retryable_error
FN:323,_RNvNtNtCs7bzfDg8Kx2o_10nexus_core5retry5testss_32test_is_retryable_io_interrupted
FN:368,_RNvNtNtCs7bzfDg8Kx2o_10nexus_core5retry5testss_32test_is_retryable_io_would_block
FN:499,_RNvNtNtCs7bzfDg8Kx2o_10nexus_core5retry5testss_32test_retry_max_attempts_exceeded
FN:476,_RNvNtNtCs7bzfDg8Kx2o_10nexus_core5retry5testss_32test_retry_success_after_retries
FN:457,_RNvNtNtCs7bzfDg8Kx2o_10nexus_core5retry5testss_32test_retry_success_first_attempt
FN:311,_RNvNtNtCs7bzfDg8Kx2o_10nexus_core5retry5testss_33test_is_retryable_retryable_error
FN:409,_RNvNtNtCs7bzfDg8Kx2o_10nexus_core5retry5testss_34test_calculate_delay_first_attempt
FN:359,_RNvNtNtCs7bzfDg8Kx2o_10nexus_core5retry5testss_34test_is_retryable_io_not_connected
FN:377,_RNvNtNtCs7bzfDg8Kx2o_10nexus_core5retry5testss_34test_is_retryable_io_not_retryable
FN:443,_RNvNtNtCs7bzfDg8Kx2o_10nexus_core5retry5testss_35test_calculate_delay_never_negative
FN:419,_RNvNtNtCs7bzfDg8Kx2o_10nexus_core5retry5testss_35test_calculate_delay_second_attempt
FN:386,_RNvNtNtCs7bzfDg8Kx2o_10nexus_core5retry5testss_36test_is_retryable_database_retryable
FN:341,_RNvNtNtCs7bzfDg8Kx2o_10nexus_core5retry5testss_37test_is_retryable_io_connection_reset
FN:429,_RNvNtNtCs7bzfDg8Kx2o_10nexus_core5retry5testss_39test_calculate_delay_respects_max_delay
FN:350,_RNvNtNtCs7bzfDg8Kx2o_10nexus_core5retry5testss_39test_is_retryable_io_connection_aborted
FN:332,_RNvNtNtCs7bzfDg8Kx2o_10nexus_core5retry5testss_39test_is_retryable_io_connection_refused
FN:395,_RNvNtNtCs7bzfDg8Kx2o_10nexus_core5retry5testss_40test_is_retryable_database_not_retryable
FN:92,_RNvMs0_NtCs7bzfDg8Kx2o_10nexus_core5retryNtB5_12RetryContext3new
FN:101,_RNvMs0_NtCs7bzfDg8Kx2o_10nexus_core5retryNtB5_12RetryContext5stats
FN:36,_RNvMs_NtCs7bzfDg8Kx2o_10nexus_core5retryNtB4_11RetryConfig3new
FN:58,_RNvMs_NtCs7bzfDg8Kx2o_10nexus_core5retryNtB4_11RetryConfig4slow
FN:47,_RNvMs_NtCs7bzfDg8Kx2o_10nexus_core5retryNtB4_11RetryConfig5quick
FN:147,_RNvNtCs7bzfDg8Kx2o_10nexus_core5retry12is_retryable
FN:174,_RNvNtCs7bzfDg8Kx2o_10nexus_core5retry15calculate_delay
FN:23,_RNvXNtCs7bzfDg8Kx2o_10nexus_core5retryNtB2_11RetryConfigNtNtCs9Kp62OsN3pY_4core7default7Default7default
FN:201,_RINvNtCs7bzfDg8Kx2o_10nexus_core5retry13retry_networkNCNCNvNtB2_5testss_18test_retry_network00NCNCBR_00lEB4_
FN:192,_RINvNtCs7bzfDg8Kx2o_10nexus_core5retry13retry_storageNCNCNvNtB2_5testss_18test_retry_storage00NCNCBR_00lEB4_
FN:210,_RINvNtCs7bzfDg8Kx2o_10nexus_core5retry14retry_databaseNCNCNvNtB2_5testss_19test_retry_database00NCNCBS_00lEB4_
FN:109,_RINvNtCs7bzfDg8Kx2o_10nexus_core5retry5retryNCNCNvNtB2_5testss_18test_retry_network00NCNCBI_00lEB4_
FN:109,_RINvNtCs7bzfDg8Kx2o_10nexus_core5retry5retryNCNCNvNtB2_5testss_18test_retry_storage00NCNCBI_00lEB4_
FN:109,_RINvNtCs7bzfDg8Kx2o_10nexus_core5retry5retryNCNCNvNtB2_5testss_19test_retry_database00NCNCBI_00lEB4_
FN:109,_RINvNtCs7bzfDg8Kx2o_10nexus_core5retry5retryNCNCNvNtB2_5testss_30test_retry_non_retryable_error00NCNCBI_00lEB4_
FN:109,_RINvNtCs7bzfDg8Kx2o_10nexus_core5retry5retryNCNCNvNtB2_5testss_32test_retry_max_attempts_exceeded00NCNCBI_00lEB4_
FN:109,_RINvNtCs7bzfDg8Kx2o_10nexus_core5retry5retryNCNCNvNtB2_5testss_32test_retry_success_after_retries00NCNCBI_00lEB4_
FN:109,_RINvNtCs7bzfDg8Kx2o_10nexus_core5retry5retryNCNCNvNtB2_5testss_32test_retry_success_first_attempt00NCNCBI_00lEB4_
FN:205,_RNCINvNtCs7bzfDg8Kx2o_10nexus_core5retry13retry_networkNCNCNvNtB4_5testss_18test_retry_network00NCNCBT_00lE0B6_
FN:196,_RNCINvNtCs7bzfDg8Kx2o_10nexus_core5retry13retry_storageNCNCNvNtB4_5testss_18test_retry_storage00NCNCBT_00lE0B6_
FN:214,_RNCINvNtCs7bzfDg8Kx2o_10nexus_core5retry14retry_databaseNCNCNvNtB4_5testss_19test_retry_database00NCNCBU_00lE0B6_
FN:113,_RNCINvNtCs7bzfDg8Kx2o_10nexus_core5retry5retryNCNCNvNtB4_5testss_18test_retry_network00NCNCBK_00lE0B6_
FN:113,_RNCINvNtCs7bzfDg8Kx2o_10nexus_core5retry5retryNCNCNvNtB4_5testss_18test_retry_storage00NCNCBK_00lE0B6_
FN:113,_RNCINvNtCs7bzfDg8Kx2o_10nexus_core5retry5retryNCNCNvNtB4_5testss_19test_retry_database00NCNCBK_00lE0B6_
FN:113,_RNCINvNtCs7bzfDg8Kx2o_10nexus_core5retry5retryNCNCNvNtB4_5testss_30test_retry_non_retryable_error00NCNCBK_00lE0B6_
FN:113,_RNCINvNtCs7bzfDg8Kx2o_10nexus_core5retry5retryNCNCNvNtB4_5testss_32test_retry_max_attempts_exceeded00NCNCBK_00lE0B6_
FN:113,_RNCINvNtCs7bzfDg8Kx2o_10nexus_core5retry5retryNCNCNvNtB4_5testss_32test_retry_success_after_retries00NCNCBK_00lE0B6_
FN:113,_RNCINvNtCs7bzfDg8Kx2o_10nexus_core5retry5retryNCNCNvNtB4_5testss_32test_retry_success_first_attempt00NCNCBK_00lE0B6_
FNDA:1,_RNCNCNCNvNtNtCs7bzfDg8Kx2o_10nexus_core5retry5testss_18test_retry_network000Bb_
FNDA:1,_RNCNCNCNvNtNtCs7bzfDg8Kx2o_10nexus_core5retry5testss_18test_retry_storage000Bb_
FNDA:1,_RNCNCNCNvNtNtCs7bzfDg8Kx2o_10nexus_core5retry5testss_19test_retry_database000Bb_
FNDA:1,_RNCNCNCNvNtNtCs7bzfDg8Kx2o_10nexus_core5retry5testss_30test_retry_non_retryable_error000Bb_
FNDA:2,_RNCNCNCNvNtNtCs7bzfDg8Kx2o_10nexus_core5retry5testss_32test_retry_max_attempts_exceeded000Bb_
FNDA:3,_RNCNCNCNvNtNtCs7bzfDg8Kx2o_10nexus_core5retry5testss_32test_retry_success_after_retries000Bb_
FNDA:1,_RNCNCNCNvNtNtCs7bzfDg8Kx2o_10nexus_core5retry5testss_32test_retry_success_first_attempt000Bb_
FNDA:1,_RNCNCNvNtNtCs7bzfDg8Kx2o_10nexus_core5retry5testss_18test_retry_network00B9_
FNDA:1,_RNCNCNvNtNtCs7bzfDg8Kx2o_10nexus_core5retry5testss_18test_retry_storage00B9_
FNDA:1,_RNCNCNvNtNtCs7bzfDg8Kx2o_10nexus_core5retry5testss_19test_retry_database00B9_
FNDA:1,_RNCNCNvNtNtCs7bzfDg8Kx2o_10nexus_core5retry5testss_30test_retry_non_retryable_error00B9_
FNDA:2,_RNCNCNvNtNtCs7bzfDg8Kx2o_10nexus_core5retry5testss_32test_retry_max_attempts_exceeded00B9_
FNDA:3,_RNCNCNvNtNtCs7bzfDg8Kx2o_10nexus_core5retry5testss_32test_retry_success_after_retries00B9_
FNDA:1,_RNCNCNvNtNtCs7bzfDg8Kx2o_10nexus_core5retry5testss_32test_retry_success_first_attempt00B9_
FNDA:1,_RNCNvNtNtCs7bzfDg8Kx2o_10nexus_core5retry5testss_18test_retry_network0B7_
FNDA:1,_RNCNvNtNtCs7bzfDg8Kx2o_10nexus_core5retry5testss_18test_retry_storage0B7_
FNDA:1,_RNCNvNtNtCs7bzfDg8Kx2o_10nexus_core5retry5testss_19test_retry_database0B7_
FNDA:1,_RNCNvNtNtCs7bzfDg8Kx2o_10nexus_core5retry5testss_30test_retry_non_retryable_error0B7_
FNDA:1,_RNCNvNtNtCs7bzfDg8Kx2o_10nexus_core5retry5testss_32test_retry_max_attempts_exceeded0B7_
FNDA:1,_RNCNvNtNtCs7bzfDg8Kx2o_10nexus_core5retry5testss_32test_retry_success_after_retries0B7_
FNDA:1,_RNCNvNtNtCs7bzfDg8Kx2o_10nexus_core5retry5testss_32test_retry_success_first_attempt0B7_
FNDA:1,_RNvNtNtCs7bzfDg8Kx2o_10nexus_core5retry5testss_18test_retry_network
FNDA:1,_RNvNtNtCs7bzfDg8Kx2o_10nexus_core5retry5testss_18test_retry_storage
FNDA:1,_RNvNtNtCs7bzfDg8Kx2o_10nexus_core5retry5testss_19test_retry_database
FNDA:1,_RNvNtNtCs7bzfDg8Kx2o_10nexus_core5retry5testss_21test_retry_config_new
FNDA:1,_RNvNtNtCs7bzfDg8Kx2o_10nexus_core5retry5testss_22test_retry_config_slow
FNDA:1,_RNvNtNtCs7bzfDg8Kx2o_10nexus_core5retry5testss_22test_retry_context_new
FNDA:1,_RNvNtNtCs7bzfDg8Kx2o_10nexus_core5retry5testss_22test_retry_stats_clone
FNDA:1,_RNvNtNtCs7bzfDg8Kx2o_10nexus_core5retry5testss_23test_retry_config_quick
FNDA:1,_RNvNtNtCs7bzfDg8Kx2o_10nexus_core5retry5testss_24test_retry_context_stats
FNDA:1,_RNvNtNtCs7bzfDg8Kx2o_10nexus_core5retry5testss_24test_retry_stats_default
FNDA:1,_RNvNtNtCs7bzfDg8Kx2o_10nexus_core5retry5testss_25test_retry_config_default
FNDA:1,_RNvNtNtCs7bzfDg8Kx2o_10nexus_core5retry5testss_28test_is_retryable_io_timeout
FNDA:1,_RNvNtNtCs7bzfDg8Kx2o_10nexus_core5retry5testss_29test_is_retryable_other_error
FNDA:1,_RNvNtNtCs7bzfDg8Kx2o_10nexus_core5retry5testss_30test_retry_non_retryable_error
FNDA:1,_RNvNtNtCs7bzfDg8Kx2o_10nexus_core5retry5testss_32test_is_retryable_io_interrupted
FNDA:1,_RNvNtNtCs7bzfDg8Kx2o_10nexus_core5retry5testss_32test_is_retryable_io_would_block
FNDA:1,_RNvNtNtCs7bzfDg8Kx2o_10nexus_core5retry5testss_32test_retry_max_attempts_exceeded
FNDA:1,_RNvNtNtCs7bzfDg8Kx2o_10nexus_core5retry5testss_32test_retry_success_after_retries
FNDA:1,_RNvNtNtCs7bzfDg8Kx2o_10nexus_core5retry5testss_32test_retry_success_first_attempt
FNDA:1,_RNvNtNtCs7bzfDg8Kx2o_10nexus_core5retry5testss_33test_is_retryable_retryable_error
FNDA:1,_RNvNtNtCs7bzfDg8Kx2o_10nexus_core5retry5testss_34test_calculate_delay_first_attempt
FNDA:1,_RNvNtNtCs7bzfDg8Kx2o_10nexus_core5retry5testss_34test_is_retryable_io_not_connected
FNDA:1,_RNvNtNtCs7bzfDg8Kx2o_10nexus_core5retry5testss_34test_is_retryable_io_not_retryable
FNDA:1,_RNvNtNtCs7bzfDg8Kx2o_10nexus_core5retry5testss_35test_calculate_delay_never_negative
FNDA:1,_RNvNtNtCs7bzfDg8Kx2o_10nexus_core5retry5testss_35test_calculate_delay_second_attempt
FNDA:1,_RNvNtNtCs7bzfDg8Kx2o_10nexus_core5retry5testss_36test_is_retryable_database_retryable
FNDA:1,_RNvNtNtCs7bzfDg8Kx2o_10nexus_core5retry5testss_37test_is_retryable_io_connection_reset
FNDA:1,_RNvNtNtCs7bzfDg8Kx2o_10nexus_core5retry5testss_39test_calculate_delay_respects_max_delay
FNDA:1,_RNvNtNtCs7bzfDg8Kx2o_10nexus_core5retry5testss_39test_is_retryable_io_connection_aborted
FNDA:1,_RNvNtNtCs7bzfDg8Kx2o_10nexus_core5retry5testss_39test_is_retryable_io_connection_refused
FNDA:1,_RNvNtNtCs7bzfDg8Kx2o_10nexus_core5retry5testss_40test_is_retryable_database_not_retryable
FNDA:9,_RNvMs0_NtCs7bzfDg8Kx2o_10nexus_core5retryNtB5_12RetryContext3new
FNDA:1,_RNvMs0_NtCs7bzfDg8Kx2o_10nexus_core5retryNtB5_12RetryContext5stats
FNDA:1,_RNvMs_NtCs7bzfDg8Kx2o_10nexus_core5retryNtB4_11RetryConfig3new
FNDA:2,_RNvMs_NtCs7bzfDg8Kx2o_10nexus_core5retryNtB4_11RetryConfig4slow
FNDA:5,_RNvMs_NtCs7bzfDg8Kx2o_10nexus_core5retryNtB4_11RetryConfig5quick
FNDA:17,_RNvNtCs7bzfDg8Kx2o_10nexus_core5retry12is_retryable
FNDA:7,_RNvNtCs7bzfDg8Kx2o_10nexus_core5retry15calculate_delay
FNDA:6,_RNvXNtCs7bzfDg8Kx2o_10nexus_core5retryNtB2_11RetryConfigNtNtCs9Kp62OsN3pY_4core7default7Default7default
FNDA:1,_RINvNtCs7bzfDg8Kx2o_10nexus_core5retry13retry_networkNCNCNvNtB2_5testss_18test_retry_network00NCNCBR_00lEB4_
FNDA:1,_RINvNtCs7bzfDg8Kx2o_10nexus_core5retry13retry_storageNCNCNvNtB2_5testss_18test_retry_storage00NCNCBR_00lEB4_
FNDA:1,_RINvNtCs7bzfDg8Kx2o_10nexus_core5retry14retry_databaseNCNCNvNtB2_5testss_19test_retry_database00NCNCBS_00lEB4_
FNDA:1,_RINvNtCs7bzfDg8Kx2o_10nexus_core5retry5retryNCNCNvNtB2_5testss_18test_retry_network00NCNCBI_00lEB4_
FNDA:1,_RINvNtCs7bzfDg8Kx2o_10nexus_core5retry5retryNCNCNvNtB2_5testss_18test_retry_storage00NCNCBI_00lEB4_
FNDA:1,_RINvNtCs7bzfDg8Kx2o_10nexus_core5retry5retryNCNCNvNtB2_5testss_19test_retry_database00NCNCBI_00lEB4_
FNDA:1,_RINvNtCs7bzfDg8Kx2o_10nexus_core5retry5retryNCNCNvNtB2_5testss_30test_retry_non_retryable_error00NCNCBI_00lEB4_
FNDA:1,_RINvNtCs7bzfDg8Kx2o_10nexus_core5retry5retryNCNCNvNtB2_5testss_32test_retry_max_attempts_exceeded00NCNCBI_00lEB4_
FNDA:1,_RINvNtCs7bzfDg8Kx2o_10nexus_core5retry5retryNCNCNvNtB2_5testss_32test_retry_success_after_retries00NCNCBI_00lEB4_
FNDA:1,_RINvNtCs7bzfDg8Kx2o_10nexus_core5retry5retryNCNCNvNtB2_5testss_32test_retry_success_first_attempt00NCNCBI_00lEB4_
FNDA:1,_RNCINvNtCs7bzfDg8Kx2o_10nexus_core5retry13retry_networkNCNCNvNtB4_5testss_18test_retry_network00NCNCBT_00lE0B6_
FNDA:1,_RNCINvNtCs7bzfDg8Kx2o_10nexus_core5retry13retry_storageNCNCNvNtB4_5testss_18test_retry_storage00NCNCBT_00lE0B6_
FNDA:1,_RNCINvNtCs7bzfDg8Kx2o_10nexus_core5retry14retry_databaseNCNCNvNtB4_5testss_19test_retry_database00NCNCBU_00lE0B6_
FNDA:1,_RNCINvNtCs7bzfDg8Kx2o_10nexus_core5retry5retryNCNCNvNtB4_5testss_18test_retry_network00NCNCBK_00lE0B6_
FNDA:1,_RNCINvNtCs7bzfDg8Kx2o_10nexus_core5retry5retryNCNCNvNtB4_5testss_18test_retry_storage00NCNCBK_00lE0B6_
FNDA:1,_RNCINvNtCs7bzfDg8Kx2o_10nexus_core5retry5retryNCNCNvNtB4_5testss_19test_retry_database00NCNCBK_00lE0B6_
FNDA:1,_RNCINvNtCs7bzfDg8Kx2o_10nexus_core5retry5retryNCNCNvNtB4_5testss_30test_retry_non_retryable_error00NCNCBK_00lE0B6_
FNDA:1,_RNCINvNtCs7bzfDg8Kx2o_10nexus_core5retry5retryNCNCNvNtB4_5testss_32test_retry_max_attempts_exceeded00NCNCBK_00lE0B6_
FNDA:1,_RNCINvNtCs7bzfDg8Kx2o_10nexus_core5retry5retryNCNCNvNtB4_5testss_32test_retry_success_after_retries00NCNCBK_00lE0B6_
FNDA:1,_RNCINvNtCs7bzfDg8Kx2o_10nexus_core5retry5retryNCNCNvNtB4_5testss_32test_retry_success_first_attempt00NCNCBK_00lE0B6_
FNF:68
FNH:68
DA:23,6
DA:24,6
DA:25,6
DA:26,6
DA:27,6
DA:28,6
DA:29,6
DA:30,6
DA:31,6
DA:36,1
DA:37,1
DA:38,1
DA:39,1
DA:40,1
DA:41,1
DA:42,1
DA:43,1
DA:44,1
DA:47,5
DA:48,5
DA:49,5
DA:50,5
DA:51,5
DA:52,5
DA:53,5
DA:54,5
DA:55,5
DA:58,2
DA:59,2
DA:60,2
DA:61,2
DA:62,2
DA:63,2
DA:64,2
DA:65,2
DA:66,2
DA:92,9
DA:93,9
DA:94,9
DA:95,9
DA:96,9
DA:97,9
DA:98,9
DA:101,1
DA:102,1
DA:103,1
DA:104,1
DA:105,1
DA:109,7
DA:110,7
DA:111,7
DA:112,7
DA:113,7
DA:114,7
DA:115,7
DA:118,10
DA:119,10
DA:121,10
DA:122,5
DA:123,5
DA:125,5
DA:127,5
DA:128,1
DA:129,4
DA:132,4
DA:133,1
DA:134,3
DA:137,3
DA:140,3
DA:144,7
DA:147,17
DA:148,17
DA:149,5
DA:150,8
DA:151,1
DA:152,8
DA:162,2
DA:164,2
DA:165,2
DA:166,1
DA:167,1
DA:169,2
DA:171,17
DA:174,7
DA:176,7
DA:177,7
DA:180,7
DA:183,7
DA:184,7
DA:186,7
DA:188,7
DA:189,7
DA:192,1
DA:193,1
DA:194,1
DA:195,1
DA:196,1
DA:197,1
DA:198,1
DA:201,1
DA:202,1
DA:203,1
DA:204,1
DA:205,1
DA:206,1
DA:207,1
DA:210,1
DA:211,1
DA:212,1
DA:213,1
DA:214,1
DA:215,1
DA:216,1
DA:225,1
DA:226,1
DA:227,1
DA:228,1
DA:229,1
DA:230,1
DA:231,1
DA:232,1
DA:235,1
DA:236,1
DA:237,1
DA:238,1
DA:239,1
DA:240,1
DA:241,1
DA:242,1
DA:245,1
DA:246,1
DA:247,1
DA:248,1
DA:249,1
DA:250,1
DA:251,1
DA:252,1
DA:255,1
DA:256,1
DA:257,1
DA:258,1
DA:259,1
DA:260,1
DA:261,1
DA:262,1
DA:265,1
DA:266,1
DA:267,1
DA:268,1
DA:269,1
DA:270,1
DA:271,1
DA:274,1
DA:275,1
DA:276,1
DA:277,1
DA:278,1
DA:279,1
DA:280,1
DA:282,1
DA:283,1
DA:284,1
DA:285,1
DA:286,1
DA:287,1
DA:290,1
DA:291,1
DA:292,1
DA:294,1
DA:295,1
DA:296,1
DA:299,1
DA:300,1
DA:301,1
DA:303,1
DA:304,1
DA:305,1
DA:306,1
DA:307,1
DA:308,1
DA:311,1
DA:312,1
DA:313,1
DA:314,1
DA:317,1
DA:318,1
DA:319,1
DA:320,1
DA:323,1
DA:324,1
DA:325,1
DA:326,1
DA:327,1
DA:328,1
DA:329,1
DA:332,1
DA:333,1
DA:334,1
DA:335,1
DA:336,1
DA:337,1
DA:338,1
DA:341,1
DA:342,1
DA:343,1
DA:344,1
DA:345,1
DA:346,1
DA:347,1
DA:350,1
DA:351,1
DA:352,1
DA:353,1
DA:354,1
DA:355,1
DA:356,1
DA:359,1
DA:360,1
DA:361,1
DA:362,1
DA:363,1
DA:364,1
DA:365,1
DA:368,1
DA:369,1
DA:370,1
DA:371,1
DA:372,1
DA:373,1
DA:374,1
DA:377,1
DA:378,1
DA:379,1
DA:380,1
DA:381,1
DA:382,1
DA:383,1
DA:386,1
DA:389,1
DA:390,1
DA:391,1
DA:392,1
DA:395,1
DA:397,1
DA:398,1
DA:399,1
DA:400,1
DA:403,1
DA:404,1
DA:405,1
DA:406,1
DA:409,1
DA:410,1
DA:411,1
DA:414,1
DA:415,1
DA:416,1
DA:419,1
DA:420,1
DA:421,1
DA:424,1
DA:425,1
DA:426,1
DA:429,1
DA:430,1
DA:431,1
DA:432,1
DA:433,1
DA:434,1
DA:435,1
DA:436,1
DA:438,1
DA:439,1
DA:440,1
DA:443,1
DA:444,1
DA:445,1
DA:446,1
DA:447,1
DA:448,1
DA:449,1
DA:450,1
DA:452,1
DA:453,1
DA:454,1
DA:457,1
DA:458,1
DA:459,1
DA:460,1
DA:462,1
DA:463,1
DA:464,1
DA:465,1
DA:466,1
DA:467,1
DA:468,1
DA:469,1
DA:471,1
DA:472,1
DA:473,1
DA:476,1
DA:477,1
DA:478,1
DA:479,1
DA:481,3
DA:482,3
DA:483,3
DA:484,3
DA:485,3
DA:486,2
DA:488,1
DA:490,3
DA:491,3
DA:492,1
DA:494,1
DA:495,1
DA:496,1
DA:499,1
DA:500,1
DA:501,1
DA:502,1
DA:503,1
DA:504,1
DA:505,1
DA:506,1
DA:508,1
DA:509,1
DA:511,2
DA:512,2
DA:513,2
DA:514,2
DA:515,2
DA:516,2
DA:517,2
DA:518,1
DA:520,1
DA:521,1
DA:522,1
DA:525,1
DA:526,1
DA:527,1
DA:528,1
DA:530,1
DA:531,1
DA:532,1
DA:533,1
DA:534,1
DA:535,1
DA:536,1
DA:537,1
DA:539,1
DA:540,1
DA:541,1
DA:544,1
DA:545,1
DA:546,1
DA:548,1
DA:549,1
DA:550,1
DA:551,1
DA:552,1
DA:553,1
DA:554,1
DA:555,1
DA:557,1
DA:558,1
DA:559,1
DA:562,1
DA:563,1
DA:564,1
DA:566,1
DA:567,1
DA:568,1
DA:569,1
DA:570,1
DA:571,1
DA:572,1
DA:573,1
DA:575,1
DA:576,1
DA:577,1
DA:580,1
DA:581,1
DA:582,1
DA:584,1
DA:585,1
DA:586,1
DA:587,1
DA:588,1
DA:589,1
DA:590,1
DA:591,1
DA:593,1
DA:594,1
DA:595,1
BRF:0
BRH:0
LF:416
LH:414
end_of_record
SF:/mnt/f/Node/hivellm/nexus/nexus-core/src/storage/mod.rs
FN:172,_RINvMs2_NtCs4yQ6d7adrZY_10nexus_core7storageNtB6_11RecordStore3newRNtNtCslLCvXJZBaqX_3std4path4PathEB8_
FN:172,_RINvMs2_NtCs4yQ6d7adrZY_10nexus_core7storageNtB6_11RecordStore3newRNtNtCslLCvXJZBaqX_3std4path7PathBufEB8_
FN:232,_RNCINvMs2_NtCs4yQ6d7adrZY_10nexus_core7storageNtB8_11RecordStore3newRNtNtCslLCvXJZBaqX_3std4path4PathE0Ba_
FN:245,_RNCINvMs2_NtCs4yQ6d7adrZY_10nexus_core7storageNtB8_11RecordStore3newRNtNtCslLCvXJZBaqX_3std4path4PathEs_0Ba_
FN:232,_RNCINvMs2_NtCs4yQ6d7adrZY_10nexus_core7storageNtB8_11RecordStore3newRNtNtCslLCvXJZBaqX_3std4path7PathBufE0Ba_
FN:245,_RNCINvMs2_NtCs4yQ6d7adrZY_10nexus_core7storageNtB8_11RecordStore3newRNtNtCslLCvXJZBaqX_3std4path7PathBufEs_0Ba_
FN:86,_RNvMNtCs4yQ6d7adrZY_10nexus_core7storageNtB2_10NodeRecord10get_labels
FN:81,_RNvMNtCs4yQ6d7adrZY_10nexus_core7storageNtB2_10NodeRecord10is_deleted
FN:76,_RNvMNtCs4yQ6d7adrZY_10nexus_core7storageNtB2_10NodeRecord12mark_deleted
FN:60,_RNvMNtCs4yQ6d7adrZY_10nexus_core7storageNtB2_10NodeRecord12remove_label
FN:48,_RNvMNtCs4yQ6d7adrZY_10nexus_core7storageNtB2_10NodeRecord3new
FN:53,_RNvMNtCs4yQ6d7adrZY_10nexus_core7storageNtB2_10NodeRecord9add_label
FN:67,_RNvMNtCs4yQ6d7adrZY_10nexus_core7storageNtB2_10NodeRecord9has_label
FN:143,_RNvMs1_NtCs4yQ6d7adrZY_10nexus_core7storageNtB5_18RelationshipRecord10is_deleted
FN:138,_RNvMs1_NtCs4yQ6d7adrZY_10nexus_core7storageNtB5_18RelationshipRecord12mark_deleted
FN:124,_RNvMs1_NtCs4yQ6d7adrZY_10nexus_core7storageNtB5_18RelationshipRecord3new
FN:355,_RNvMs2_NtCs4yQ6d7adrZY_10nexus_core7storageNtB5_11RecordStore10delete_rel
FN:400,_RNvMs2_NtCs4yQ6d7adrZY_10nexus_core7storageNtB5_11RecordStore10node_count
FN:281,_RNvMs2_NtCs4yQ6d7adrZY_10nexus_core7storageNtB5_11RecordStore10write_node
FN:427,_RNvMs2_NtCs4yQ6d7adrZY_10nexus_core7storageNtB5_11RecordStore11create_node
FN:348,_RNvMs2_NtCs4yQ6d7adrZY_10nexus_core7storageNtB5_11RecordStore11delete_node
FN:410,_RNvMs2_NtCs4yQ6d7adrZY_10nexus_core7storageNtB5_11RecordStore12health_check
FN:386,_RNvMs2_NtCs4yQ6d7adrZY_10nexus_core7storageNtB5_11RecordStore14grow_rels_file
FN:274,_RNvMs2_NtCs4yQ6d7adrZY_10nexus_core7storageNtB5_11RecordStore15allocate_rel_id
FN:372,_RNvMs2_NtCs4yQ6d7adrZY_10nexus_core7storageNtB5_11RecordStore15grow_nodes_file
FN:267,_RNvMs2_NtCs4yQ6d7adrZY_10nexus_core7storageNtB5_11RecordStore16allocate_node_id
FN:534,_RNvMs2_NtCs4yQ6d7adrZY_10nexus_core7storageNtB5_11RecordStore16get_relationship
FN:405,_RNvMs2_NtCs4yQ6d7adrZY_10nexus_core7storageNtB5_11RecordStore18relationship_count
FN:466,_RNvMs2_NtCs4yQ6d7adrZY_10nexus_core7storageNtB5_11RecordStore19create_relationship
FN:362,_RNvMs2_NtCs4yQ6d7adrZY_10nexus_core7storageNtB5_11RecordStore5stats
FN:509,_RNvMs2_NtCs4yQ6d7adrZY_10nexus_core7storageNtB5_11RecordStore8get_node
FN:330,_RNvMs2_NtCs4yQ6d7adrZY_10nexus_core7storageNtB5_11RecordStore8read_rel
FN:298,_RNvMs2_NtCs4yQ6d7adrZY_10nexus_core7storageNtB5_11RecordStore9read_node
FN:313,_RNvMs2_NtCs4yQ6d7adrZY_10nexus_core7storageNtB5_11RecordStore9write_rel
FN:560,_RNvXs3_NtCs4yQ6d7adrZY_10nexus_core7storageNtB5_11RecordStoreNtNtCs9Kp62OsN3pY_4core5clone5Clone5clone
FN:60,_RNvMNtCs7bzfDg8Kx2o_10nexus_core7storageNtB2_10NodeRecord12remove_label
FN:585,_RNvNtNtCs7bzfDg8Kx2o_10nexus_core7storage5tests17create_test_store
FN:761,_RNvNtNtCs7bzfDg8Kx2o_10nexus_core7storage5testss_10test_stats
FN:602,_RNvNtNtCs7bzfDg8Kx2o_10nexus_core7storage5testss_14test_node_crud
FN:719,_RNvNtNtCs7bzfDg8Kx2o_10nexus_core7storage5testss_16test_file_growth
FN:647,_RNvNtNtCs7bzfDg8Kx2o_10nexus_core7storage5testss_16test_node_labels
FN:736,_RNvNtNtCs7bzfDg8Kx2o_10nexus_core7storage5testss_16test_persistence
FN:678,_RNvNtNtCs7bzfDg8Kx2o_10nexus_core7storage5testss_18test_node_deletion
FN:597,_RNvNtNtCs7bzfDg8Kx2o_10nexus_core7storage5testss_20test_rel_record_size
FN:592,_RNvNtNtCs7bzfDg8Kx2o_10nexus_core7storage5testss_21test_node_record_size
FN:624,_RNvNtNtCs7bzfDg8Kx2o_10nexus_core7storage5testss_22test_relationship_crud
FN:699,_RNvNtNtCs7bzfDg8Kx2o_10nexus_core7storage5testss_26test_relationship_deletion
FN:86,_RNvMNtCs7bzfDg8Kx2o_10nexus_core7storageNtB2_10NodeRecord10get_labels
FN:81,_RNvMNtCs7bzfDg8Kx2o_10nexus_core7storageNtB2_10NodeRecord10is_deleted
FN:76,_RNvMNtCs7bzfDg8Kx2o_10nexus_core7storageNtB2_10NodeRecord12mark_deleted
FN:48,_RNvMNtCs7bzfDg8Kx2o_10nexus_core7storageNtB2_10NodeRecord3new
FN:53,_RNvMNtCs7bzfDg8Kx2o_10nexus_core7storageNtB2_10NodeRecord9add_label
FN:67,_RNvMNtCs7bzfDg8Kx2o_10nexus_core7storageNtB2_10NodeRecord9has_label
FN:143,_RNvMs1_NtCs7bzfDg8Kx2o_10nexus_core7storageNtB5_18RelationshipRecord10is_deleted
FN:138,_RNvMs1_NtCs7bzfDg8Kx2o_10nexus_core7storageNtB5_18RelationshipRecord12mark_deleted
FN:124,_RNvMs1_NtCs7bzfDg8Kx2o_10nexus_core7storageNtB5_18RelationshipRecord3new
FN:355,_RNvMs2_NtCs7bzfDg8Kx2o_10nexus_core7storageNtB5_11RecordStore10delete_rel
FN:400,_RNvMs2_NtCs7bzfDg8Kx2o_10nexus_core7storageNtB5_11RecordStore10node_count
FN:281,_RNvMs2_NtCs7bzfDg8Kx2o_10nexus_core7storageNtB5_11RecordStore10write_node
FN:427,_RNvMs2_NtCs7bzfDg8Kx2o_10nexus_core7storageNtB5_11RecordStore11create_node
FN:348,_RNvMs2_NtCs7bzfDg8Kx2o_10nexus_core7storageNtB5_11RecordStore11delete_node
FN:410,_RNvMs2_NtCs7bzfDg8Kx2o_10nexus_core7storageNtB5_11RecordStore12health_check
FN:386,_RNvMs2_NtCs7bzfDg8Kx2o_10nexus_core7storageNtB5_11RecordStore14grow_rels_file
FN:274,_RNvMs2_NtCs7bzfDg8Kx2o_10nexus_core7storageNtB5_11RecordStore15allocate_rel_id
FN:372,_RNvMs2_NtCs7bzfDg8Kx2o_10nexus_core7storageNtB5_11RecordStore15grow_nodes_file
FN:267,_RNvMs2_NtCs7bzfDg8Kx2o_10nexus_core7storageNtB5_11RecordStore16allocate_node_id
FN:534,_RNvMs2_NtCs7bzfDg8Kx2o_10nexus_core7storageNtB5_11RecordStore16get_relationship
FN:405,_RNvMs2_NtCs7bzfDg8Kx2o_10nexus_core7storageNtB5_11RecordStore18relationship_count
FN:466,_RNvMs2_NtCs7bzfDg8Kx2o_10nexus_core7storageNtB5_11RecordStore19create_relationship
FN:362,_RNvMs2_NtCs7bzfDg8Kx2o_10nexus_core7storageNtB5_11RecordStore5stats
FN:509,_RNvMs2_NtCs7bzfDg8Kx2o_10nexus_core7storageNtB5_11RecordStore8get_node
FN:330,_RNvMs2_NtCs7bzfDg8Kx2o_10nexus_core7storageNtB5_11RecordStore8read_rel
FN:298,_RNvMs2_NtCs7bzfDg8Kx2o_10nexus_core7storageNtB5_11RecordStore9read_node
FN:313,_RNvMs2_NtCs7bzfDg8Kx2o_10nexus_core7storageNtB5_11RecordStore9write_rel
FN:560,_RNvXs3_NtCs7bzfDg8Kx2o_10nexus_core7storageNtB5_11RecordStoreNtNtCs9Kp62OsN3pY_4core5clone5Clone5clone
FN:172,_RINvMs2_NtCs7bzfDg8Kx2o_10nexus_core7storageNtB6_11RecordStore3newRNtNtCslLCvXJZBaqX_3std4path4PathEB8_
FN:172,_RINvMs2_NtCs7bzfDg8Kx2o_10nexus_core7storageNtB6_11RecordStore3newRNtNtCslLCvXJZBaqX_3std4path7PathBufEB8_
FN:232,_RNCINvMs2_NtCs7bzfDg8Kx2o_10nexus_core7storageNtB8_11RecordStore3newRNtNtCslLCvXJZBaqX_3std4path4PathE0Ba_
FN:245,_RNCINvMs2_NtCs7bzfDg8Kx2o_10nexus_core7storageNtB8_11RecordStore3newRNtNtCslLCvXJZBaqX_3std4path4PathEs_0Ba_
FN:232,_RNCINvMs2_NtCs7bzfDg8Kx2o_10nexus_core7storageNtB8_11RecordStore3newRNtNtCslLCvXJZBaqX_3std4path7PathBufE0Ba_
FN:245,_RNCINvMs2_NtCs7bzfDg8Kx2o_10nexus_core7storageNtB8_11RecordStore3newRNtNtCslLCvXJZBaqX_3std4path7PathBufEs_0Ba_
FNDA:43,_RINvMs2_NtCs4yQ6d7adrZY_10nexus_core7storageNtB6_11RecordStore3newRNtNtCslLCvXJZBaqX_3std4path4PathEB8_
FNDA:33,_RINvMs2_NtCs4yQ6d7adrZY_10nexus_core7storageNtB6_11RecordStore3newRNtNtCslLCvXJZBaqX_3std4path7PathBufEB8_
FNDA:1376,_RNCINvMs2_NtCs4yQ6d7adrZY_10nexus_core7storageNtB8_11RecordStore3newRNtNtCslLCvXJZBaqX_3std4path4PathE0Ba_
FNDA:2236,_RNCINvMs2_NtCs4yQ6d7adrZY_10nexus_core7storageNtB8_11RecordStore3newRNtNtCslLCvXJZBaqX_3std4path4PathEs_0Ba_
FNDA:1056,_RNCINvMs2_NtCs4yQ6d7adrZY_10nexus_core7storageNtB8_11RecordStore3newRNtNtCslLCvXJZBaqX_3std4path7PathBufE0Ba_
FNDA:1716,_RNCINvMs2_NtCs4yQ6d7adrZY_10nexus_core7storageNtB8_11RecordStore3newRNtNtCslLCvXJZBaqX_3std4path7PathBufEs_0Ba_
FNDA:0,_RNvMNtCs4yQ6d7adrZY_10nexus_core7storageNtB2_10NodeRecord10get_labels
FNDA:0,_RNvMNtCs4yQ6d7adrZY_10nexus_core7storageNtB2_10NodeRecord10is_deleted
FNDA:0,_RNvMNtCs4yQ6d7adrZY_10nexus_core7storageNtB2_10NodeRecord12mark_deleted
FNDA:0,_RNvMNtCs4yQ6d7adrZY_10nexus_core7storageNtB2_10NodeRecord12remove_label
FNDA:8,_RNvMNtCs4yQ6d7adrZY_10nexus_core7storageNtB2_10NodeRecord3new
FNDA:10019,_RNvMNtCs4yQ6d7adrZY_10nexus_core7storageNtB2_10NodeRecord9add_label
FNDA:2,_RNvMNtCs4yQ6d7adrZY_10nexus_core7storageNtB2_10NodeRecord9has_label
FNDA:0,_RNvMs1_NtCs4yQ6d7adrZY_10nexus_core7storageNtB5_18RelationshipRecord10is_deleted
FNDA:0,_RNvMs1_NtCs4yQ6d7adrZY_10nexus_core7storageNtB5_18RelationshipRecord12mark_deleted
FNDA:0,_RNvMs1_NtCs4yQ6d7adrZY_10nexus_core7storageNtB5_18RelationshipRecord3new
FNDA:0,_RNvMs2_NtCs4yQ6d7adrZY_10nexus_core7storageNtB5_11RecordStore10delete_rel
FNDA:22,_RNvMs2_NtCs4yQ6d7adrZY_10nexus_core7storageNtB5_11RecordStore10node_count
FNDA:20028,_RNvMs2_NtCs4yQ6d7adrZY_10nexus_core7storageNtB5_11RecordStore10write_node
FNDA:8,_RNvMs2_NtCs4yQ6d7adrZY_10nexus_core7storageNtB5_11RecordStore11create_node
FNDA:0,_RNvMs2_NtCs4yQ6d7adrZY_10nexus_core7storageNtB5_11RecordStore11delete_node
FNDA:4,_RNvMs2_NtCs4yQ6d7adrZY_10nexus_core7storageNtB5_11RecordStore12health_check
FNDA:0,_RNvMs2_NtCs4yQ6d7adrZY_10nexus_core7storageNtB5_11RecordStore14grow_rels_file
FNDA:3,_RNvMs2_NtCs4yQ6d7adrZY_10nexus_core7storageNtB5_11RecordStore15allocate_rel_id
FNDA:0,_RNvMs2_NtCs4yQ6d7adrZY_10nexus_core7storageNtB5_11RecordStore15grow_nodes_file
FNDA:20021,_RNvMs2_NtCs4yQ6d7adrZY_10nexus_core7storageNtB5_11RecordStore16allocate_node_id
FNDA:0,_RNvMs2_NtCs4yQ6d7adrZY_10nexus_core7storageNtB5_11RecordStore16get_relationship
FNDA:22,_RNvMs2_NtCs4yQ6d7adrZY_10nexus_core7storageNtB5_11RecordStore18relationship_count
FNDA:0,_RNvMs2_NtCs4yQ6d7adrZY_10nexus_core7storageNtB5_11RecordStore19create_relationship
FNDA:2,_RNvMs2_NtCs4yQ6d7adrZY_10nexus_core7storageNtB5_11RecordStore5stats
FNDA:4,_RNvMs2_NtCs4yQ6d7adrZY_10nexus_core7storageNtB5_11RecordStore8get_node
FNDA:2,_RNvMs2_NtCs4yQ6d7adrZY_10nexus_core7storageNtB5_11RecordStore8read_rel
FNDA:10053,_RNvMs2_NtCs4yQ6d7adrZY_10nexus_core7storageNtB5_11RecordStore9read_node
FNDA:3,_RNvMs2_NtCs4yQ6d7adrZY_10nexus_core7storageNtB5_11RecordStore9write_rel
FNDA:33,_RNvXs3_NtCs4yQ6d7adrZY_10nexus_core7storageNtB5_11RecordStoreNtNtCs9Kp62OsN3pY_4core5clone5Clone5clone
FNDA:0,_RNvMNtCs7bzfDg8Kx2o_10nexus_core7storageNtB2_10NodeRecord12remove_label
FNDA:7,_RNvNtNtCs7bzfDg8Kx2o_10nexus_core7storage5tests17create_test_store
FNDA:1,_RNvNtNtCs7bzfDg8Kx2o_10nexus_core7storage5testss_10test_stats
FNDA:1,_RNvNtNtCs7bzfDg8Kx2o_10nexus_core7storage5testss_14test_node_crud
FNDA:1,_RNvNtNtCs7bzfDg8Kx2o_10nexus_core7storage5testss_16test_file_growth
FNDA:1,_RNvNtNtCs7bzfDg8Kx2o_10nexus_core7storage5testss_16test_node_labels
FNDA:1,_RNvNtNtCs7bzfDg8Kx2o_10nexus_core7storage5testss_16test_persistence
FNDA:1,_RNvNtNtCs7bzfDg8Kx2o_10nexus_core7storage5testss_18test_node_deletion
FNDA:1,_RNvNtNtCs7bzfDg8Kx2o_10nexus_core7storage5testss_20test_rel_record_size
FNDA:1,_RNvNtNtCs7bzfDg8Kx2o_10nexus_core7storage5testss_21test_node_record_size
FNDA:1,_RNvNtNtCs7bzfDg8Kx2o_10nexus_core7storage5testss_22test_relationship_crud
FNDA:1,_RNvNtNtCs7bzfDg8Kx2o_10nexus_core7storage5testss_26test_relationship_deletion
FNDA:1,_RNvMNtCs7bzfDg8Kx2o_10nexus_core7storageNtB2_10NodeRecord10get_labels
FNDA:4,_RNvMNtCs7bzfDg8Kx2o_10nexus_core7storageNtB2_10NodeRecord10is_deleted
FNDA:2,_RNvMNtCs7bzfDg8Kx2o_10nexus_core7storageNtB2_10NodeRecord12mark_deleted
FNDA:2,_RNvMNtCs7bzfDg8Kx2o_10nexus_core7storageNtB2_10NodeRecord3new
FNDA:50007,_RNvMNtCs7bzfDg8Kx2o_10nexus_core7storageNtB2_10NodeRecord9add_label
FNDA:136,_RNvMNtCs7bzfDg8Kx2o_10nexus_core7storageNtB2_10NodeRecord9has_label
FNDA:3,_RNvMs1_NtCs7bzfDg8Kx2o_10nexus_core7storageNtB5_18RelationshipRecord10is_deleted
FNDA:2,_RNvMs1_NtCs7bzfDg8Kx2o_10nexus_core7storageNtB5_18RelationshipRecord12mark_deleted
FNDA:4,_RNvMs1_NtCs7bzfDg8Kx2o_10nexus_core7storageNtB5_18RelationshipRecord3new
FNDA:1,_RNvMs2_NtCs7bzfDg8Kx2o_10nexus_core7storageNtB5_11RecordStore10delete_rel
FNDA:6,_RNvMs2_NtCs7bzfDg8Kx2o_10nexus_core7storageNtB5_11RecordStore10node_count
FNDA:50050,_RNvMs2_NtCs7bzfDg8Kx2o_10nexus_core7storageNtB5_11RecordStore10write_node
FNDA:2,_RNvMs2_NtCs7bzfDg8Kx2o_10nexus_core7storageNtB5_11RecordStore11create_node
FNDA:1,_RNvMs2_NtCs7bzfDg8Kx2o_10nexus_core7storageNtB5_11RecordStore11delete_node
FNDA:1,_RNvMs2_NtCs7bzfDg8Kx2o_10nexus_core7storageNtB5_11RecordStore12health_check
FNDA:0,_RNvMs2_NtCs7bzfDg8Kx2o_10nexus_core7storageNtB5_11RecordStore14grow_rels_file
FNDA:17,_RNvMs2_NtCs7bzfDg8Kx2o_10nexus_core7storageNtB5_11RecordStore15allocate_rel_id
FNDA:2,_RNvMs2_NtCs7bzfDg8Kx2o_10nexus_core7storageNtB5_11RecordStore15grow_nodes_file
FNDA:50046,_RNvMs2_NtCs7bzfDg8Kx2o_10nexus_core7storageNtB5_11RecordStore16allocate_node_id
FNDA:2,_RNvMs2_NtCs7bzfDg8Kx2o_10nexus_core7storageNtB5_11RecordStore16get_relationship
FNDA:6,_RNvMs2_NtCs7bzfDg8Kx2o_10nexus_core7storageNtB5_11RecordStore18relationship_count
FNDA:2,_RNvMs2_NtCs7bzfDg8Kx2o_10nexus_core7storageNtB5_11RecordStore19create_relationship
FNDA:75,_RNvMs2_NtCs7bzfDg8Kx2o_10nexus_core7storageNtB5_11RecordStore5stats
FNDA:2,_RNvMs2_NtCs7bzfDg8Kx2o_10nexus_core7storageNtB5_11RecordStore8get_node
FNDA:6,_RNvMs2_NtCs7bzfDg8Kx2o_10nexus_core7storageNtB5_11RecordStore8read_rel
FNDA:15,_RNvMs2_NtCs7bzfDg8Kx2o_10nexus_core7storageNtB5_11RecordStore9read_node
FNDA:20,_RNvMs2_NtCs7bzfDg8Kx2o_10nexus_core7storageNtB5_11RecordStore9write_rel
FNDA:39,_RNvXs3_NtCs7bzfDg8Kx2o_10nexus_core7storageNtB5_11RecordStoreNtNtCs9Kp62OsN3pY_4core5clone5Clone5clone
FNDA:72,_RINvMs2_NtCs7bzfDg8Kx2o_10nexus_core7storageNtB6_11RecordStore3newRNtNtCslLCvXJZBaqX_3std4path4PathEB8_
FNDA:41,_RINvMs2_NtCs7bzfDg8Kx2o_10nexus_core7storageNtB6_11RecordStore3newRNtNtCslLCvXJZBaqX_3std4path7PathBufEB8_
FNDA:2304,_RNCINvMs2_NtCs7bzfDg8Kx2o_10nexus_core7storageNtB8_11RecordStore3newRNtNtCslLCvXJZBaqX_3std4path4PathE0Ba_
FNDA:3744,_RNCINvMs2_NtCs7bzfDg8Kx2o_10nexus_core7storageNtB8_11RecordStore3newRNtNtCslLCvXJZBaqX_3std4path4PathEs_0Ba_
FNDA:1318,_RNCINvMs2_NtCs7bzfDg8Kx2o_10nexus_core7storageNtB8_11RecordStore3newRNtNtCslLCvXJZBaqX_3std4path7PathBufE0Ba_
FNDA:2132,_RNCINvMs2_NtCs7bzfDg8Kx2o_10nexus_core7storageNtB8_11RecordStore3newRNtNtCslLCvXJZBaqX_3std4path7PathBufEs_0Ba_
FNF:43
FNH:41
DA:48,10
DA:49,10
DA:50,10
DA:53,60026
DA:54,60026
DA:55,60026
DA:56,60026
DA:57,60026
DA:60,0
DA:61,0
DA:62,0
DA:63,0
DA:64,0
DA:67,138
DA:68,138
DA:69,137
DA:71,1
DA:73,138
DA:76,2
DA:77,2
DA:78,2
DA:81,4
DA:82,4
DA:83,4
DA:86,1
DA:87,1
DA:88,65
DA:89,64
DA:90,4
DA:91,60
DA:93,1
DA:94,1
DA:124,4
DA:125,4
DA:126,4
DA:127,4
DA:128,4
DA:129,4
DA:130,4
DA:131,4
DA:132,4
DA:133,4
DA:134,4
DA:135,4
DA:138,2
DA:139,2
DA:140,2
DA:143,3
DA:144,3
DA:145,3
DA:172,189
DA:173,189
DA:174,189
DA:176,189
DA:177,189
DA:180,189
DA:181,189
DA:182,189
DA:183,189
DA:184,189
DA:185,189
DA:188,189
DA:189,189
DA:190,189
DA:191,189
DA:192,189
DA:193,189
DA:196,189
DA:197,189
DA:200,189
DA:201,116
DA:203,116
DA:204,116
DA:205,116
DA:207,73
DA:210,189
DA:211,116
DA:213,116
DA:214,116
DA:215,116
DA:217,73
DA:221,189
DA:223,189
DA:227,189
DA:228,190
DA:229,190
DA:230,190
DA:232,6054
DA:233,1
DA:234,1
DA:236,189
DA:240,189
DA:241,189
DA:242,189
DA:243,189
DA:245,9828
DA:246,0
DA:247,0
DA:249,189
DA:253,189
DA:254,189
DA:255,189
DA:256,189
DA:257,189
DA:258,189
DA:259,189
DA:260,189
DA:261,189
DA:262,189
DA:263,189
DA:264,189
DA:267,70067
DA:268,70067
DA:269,70067
DA:270,70067
DA:271,70067
DA:274,20
DA:275,20
DA:276,20
DA:277,20
DA:278,20
DA:281,70078
DA:282,70078
DA:285,70078
DA:286,2
DA:287,70076
DA:290,70078
DA:291,70078
DA:292,70078
DA:294,70078
DA:295,70078
DA:298,10068
DA:299,10068
DA:301,10068
DA:302,0
DA:303,10068
DA:305,10068
DA:306,10068
DA:307,10068
DA:309,10068
DA:310,10068
DA:313,23
DA:314,23
DA:317,23
DA:318,0
DA:319,23
DA:322,23
DA:323,23
DA:324,23
DA:326,23
DA:327,23
DA:330,8
DA:331,8
DA:333,8
DA:334,0
DA:335,0
DA:336,0
DA:337,0
DA:338,8
DA:340,8
DA:341,8
DA:342,8
DA:344,8
DA:345,8
DA:348,1
DA:349,1
DA:350,1
DA:351,1
DA:352,1
DA:355,1
DA:356,1
DA:357,1
DA:358,1
DA:359,1
DA:362,77
DA:363,77
DA:364,77
DA:365,77
DA:366,77
DA:367,77
DA:368,77
DA:369,77
DA:372,2
DA:373,2
DA:376,2
DA:379,2
DA:381,2
DA:382,2
DA:383,2
DA:386,0
DA:387,0
DA:390,0
DA:393,0
DA:395,0
DA:396,0
DA:397,0
DA:400,28
DA:401,28
DA:402,28
DA:405,28
DA:406,28
DA:407,28
DA:410,5
DA:412,5
DA:413,5
DA:414,0
DA:415,0
DA:416,0
DA:417,0
DA:420,0
DA:421,0
DA:423,0
DA:424,5
DA:427,10
DA:428,10
DA:429,10
DA:430,10
DA:431,10
DA:432,10
DA:433,10
DA:434,10
DA:437,10
DA:441,10
DA:442,10
DA:443,10
DA:444,10
DA:449,10
DA:451,1
DA:453,9
DA:457,10
DA:460,10
DA:462,10
DA:463,10
DA:466,2
DA:467,2
DA:468,2
DA:469,2
DA:470,2
DA:471,2
DA:472,2
DA:473,2
DA:474,2
DA:475,2
DA:478,2
DA:481,2
DA:482,2
DA:486,2
DA:490,2
DA:492,1
DA:494,1
DA:499,2
DA:500,2
DA:503,2
DA:505,2
DA:506,2
DA:509,6
DA:510,6
DA:511,6
DA:512,6
DA:513,6
DA:515,6
DA:516,6
DA:517,0
DA:520,0
DA:521,0
DA:523,0
DA:524,0
DA:526,0
DA:529,0
DA:531,6
DA:534,2
DA:535,2
DA:536,2
DA:537,2
DA:538,2
DA:540,2
DA:541,2
DA:542,0
DA:545,0
DA:546,0
DA:548,0
DA:549,0
DA:551,0
DA:554,0
DA:556,2
DA:560,72
DA:563,72
DA:564,72
DA:585,7
DA:586,7
DA:587,7
DA:588,7
DA:589,7
DA:592,1
DA:593,1
DA:594,1
DA:597,1
DA:598,1
DA:599,1
DA:602,1
DA:603,1
DA:605,1
DA:606,1
DA:609,1
DA:610,1
DA:611,1
DA:614,1
DA:617,1
DA:618,1
DA:619,1
DA:620,1
DA:621,1
DA:624,1
DA:625,1
DA:627,1
DA:628,1
DA:631,1
DA:634,1
DA:637,1
DA:638,1
DA:639,1
DA:640,1
DA:641,1
DA:642,1
DA:643,1
DA:644,1
DA:647,1
DA:648,1
DA:650,1
DA:651,1
DA:654,1
DA:655,1
DA:656,1
DA:657,1
DA:659,1
DA:661,1
DA:662,1
DA:663,1
DA:664,1
DA:665,1
DA:666,1
DA:667,1
DA:669,1
DA:670,1
DA:671,1
DA:672,1
DA:673,1
DA:674,1
DA:675,1
DA:678,1
DA:679,1
DA:681,1
DA:682,1
DA:683,1
DA:684,1
DA:687,1
DA:688,1
DA:691,1
DA:694,1
DA:695,1
DA:696,1
DA:699,1
DA:700,1
DA:702,1
DA:703,1
DA:704,1
DA:707,1
DA:708,1
DA:711,1
DA:714,1
DA:715,1
DA:716,1
DA:719,1
DA:720,1
DA:723,50001
DA:724,50000
DA:725,50000
DA:726,50000
DA:727,50000
DA:728,50000
DA:730,1
DA:731,1
DA:732,1
DA:733,1
DA:736,1
DA:737,1
DA:738,1
DA:741,1
DA:742,1
DA:743,1
DA:744,1
DA:745,1
DA:746,1
DA:747,1
DA:748,1
DA:749,1
DA:753,1
DA:754,1
DA:755,1
DA:756,1
DA:758,1
DA:761,1
DA:762,1
DA:765,1
DA:766,1
DA:767,1
DA:769,1
DA:770,1
DA:771,1
DA:772,1
DA:773,1
DA:774,1
BRF:0
BRH:0
LF:414
LH:373
end_of_record
SF:/mnt/f/Node/hivellm/nexus/nexus-core/src/transaction/mod.rs
FN:79,_RNvMNtCs4yQ6d7adrZY_10nexus_core11transactionNtB2_11Transaction10is_aborted
FN:74,_RNvMNtCs4yQ6d7adrZY_10nexus_core11transactionNtB2_11Transaction12is_committed
FN:84,_RNvMNtCs4yQ6d7adrZY_10nexus_core11transactionNtB2_11Transaction12is_read_only
FN:59,_RNvMNtCs4yQ6d7adrZY_10nexus_core11transactionNtB2_11Transaction3new
FN:89,_RNvMNtCs4yQ6d7adrZY_10nexus_core11transactionNtB2_11Transaction8is_write
FN:69,_RNvMNtCs4yQ6d7adrZY_10nexus_core11transactionNtB2_11Transaction9is_active
FN:172,_RNvMs0_NtCs4yQ6d7adrZY_10nexus_core11transactionNtB5_18TransactionManager10begin_read
FN:248,_RNvMs0_NtCs4yQ6d7adrZY_10nexus_core11transactionNtB5_18TransactionManager10is_visible
FN:185,_RNvMs0_NtCs4yQ6d7adrZY_10nexus_core11transactionNtB5_18TransactionManager11begin_write
FN:289,_RNvMs0_NtCs4yQ6d7adrZY_10nexus_core11transactionNtB5_18TransactionManager12active_count
FN:270,_RNvMs0_NtCs4yQ6d7adrZY_10nexus_core11transactionNtB5_18TransactionManager12health_check
FN:234,_RNvMs0_NtCs4yQ6d7adrZY_10nexus_core11transactionNtB5_18TransactionManager13current_epoch
FN:161,_RNvMs0_NtCs4yQ6d7adrZY_10nexus_core11transactionNtB5_18TransactionManager3new
FN:219,_RNvMs0_NtCs4yQ6d7adrZY_10nexus_core11transactionNtB5_18TransactionManager5abort
FN:239,_RNvMs0_NtCs4yQ6d7adrZY_10nexus_core11transactionNtB5_18TransactionManager5stats
FN:198,_RNvMs0_NtCs4yQ6d7adrZY_10nexus_core11transactionNtB5_18TransactionManager6commit
FN:119,_RNvMs_NtCs4yQ6d7adrZY_10nexus_core11transactionNtB4_12EpochManager14allocate_tx_id
FN:115,_RNvMs_NtCs4yQ6d7adrZY_10nexus_core11transactionNtB4_12EpochManager15increment_epoch
FN:111,_RNvMs_NtCs4yQ6d7adrZY_10nexus_core11transactionNtB4_12EpochManager17get_current_epoch
FN:104,_RNvMs_NtCs4yQ6d7adrZY_10nexus_core11transactionNtB4_12EpochManager3new
FN:296,_RNvXs1_NtCs4yQ6d7adrZY_10nexus_core11transactionNtB5_18TransactionManagerNtNtCs9Kp62OsN3pY_4core7default7Default7default
FN:270,_RNvMs0_NtCs7bzfDg8Kx2o_10nexus_core11transactionNtB5_18TransactionManager12health_check
FN:296,_RNvXs1_NtCs7bzfDg8Kx2o_10nexus_core11transactionNtB5_18TransactionManagerNtNtCs9Kp62OsN3pY_4core7default7Default7default
FN:511,_RNCNvNtNtCs7bzfDg8Kx2o_10nexus_core11transaction5testss_21test_concurrent_reads0B7_
FN:520,_RNCNvNtNtCs7bzfDg8Kx2o_10nexus_core11transaction5testss_21test_concurrent_readss1_0B7_
FN:516,_RNCNvNtNtCs7bzfDg8Kx2o_10nexus_core11transaction5testss_21test_concurrent_readss_0B7_
FN:79,_RNvMNtCs7bzfDg8Kx2o_10nexus_core11transactionNtB2_11Transaction10is_aborted
FN:74,_RNvMNtCs7bzfDg8Kx2o_10nexus_core11transactionNtB2_11Transaction12is_committed
FN:84,_RNvMNtCs7bzfDg8Kx2o_10nexus_core11transactionNtB2_11Transaction12is_read_only
FN:59,_RNvMNtCs7bzfDg8Kx2o_10nexus_core11transactionNtB2_11Transaction3new
FN:89,_RNvMNtCs7bzfDg8Kx2o_10nexus_core11transactionNtB2_11Transaction8is_write
FN:69,_RNvMNtCs7bzfDg8Kx2o_10nexus_core11transactionNtB2_11Transaction9is_active
FN:172,_RNvMs0_NtCs7bzfDg8Kx2o_10nexus_core11transactionNtB5_18TransactionManager10begin_read
FN:248,_RNvMs0_NtCs7bzfDg8Kx2o_10nexus_core11transactionNtB5_18TransactionManager10is_visible
FN:185,_RNvMs0_NtCs7bzfDg8Kx2o_10nexus_core11transactionNtB5_18TransactionManager11begin_write
FN:289,_RNvMs0_NtCs7bzfDg8Kx2o_10nexus_core11transactionNtB5_18TransactionManager12active_count
FN:234,_RNvMs0_NtCs7bzfDg8Kx2o_10nexus_core11transactionNtB5_18TransactionManager13current_epoch
FN:161,_RNvMs0_NtCs7bzfDg8Kx2o_10nexus_core11transactionNtB5_18TransactionManager3new
FN:219,_RNvMs0_NtCs7bzfDg8Kx2o_10nexus_core11transactionNtB5_18TransactionManager5abort
FN:239,_RNvMs0_NtCs7bzfDg8Kx2o_10nexus_core11transactionNtB5_18TransactionManager5stats
FN:198,_RNvMs0_NtCs7bzfDg8Kx2o_10nexus_core11transactionNtB5_18TransactionManager6commit
FN:119,_RNvMs_NtCs7bzfDg8Kx2o_10nexus_core11transactionNtB4_12EpochManager14allocate_tx_id
FN:115,_RNvMs_NtCs7bzfDg8Kx2o_10nexus_core11transactionNtB4_12EpochManager15increment_epoch
FN:111,_RNvMs_NtCs7bzfDg8Kx2o_10nexus_core11transactionNtB4_12EpochManager17get_current_epoch
FN:104,_RNvMs_NtCs7bzfDg8Kx2o_10nexus_core11transactionNtB4_12EpochManager3new
FN:416,_RNvNtNtCs7bzfDg8Kx2o_10nexus_core11transaction5testss_20test_epoch_increment
FN:500,_RNvNtNtCs7bzfDg8Kx2o_10nexus_core11transaction5testss_21test_concurrent_reads
FN:603,_RNvNtNtCs7bzfDg8Kx2o_10nexus_core11transaction5testss_21test_tx_id_uniqueness
FN:432,_RNvNtNtCs7bzfDg8Kx2o_10nexus_core11transaction5testss_21test_visibility_rules
FN:364,_RNvNtNtCs7bzfDg8Kx2o_10nexus_core11transaction5testss_22test_abort_transaction
FN:530,_RNvNtNtCs7bzfDg8Kx2o_10nexus_core11transaction5testss_22test_sequential_writes
FN:458,_RNvNtNtCs7bzfDg8Kx2o_10nexus_core11transaction5testss_23test_snapshot_isolation
FN:306,_RNvNtNtCs7bzfDg8Kx2o_10nexus_core11transaction5testss_24test_tx_manager_creation
FN:403,_RNvNtNtCs7bzfDg8Kx2o_10nexus_core11transaction5testss_26test_multiple_transactions
FN:588,_RNvNtNtCs7bzfDg8Kx2o_10nexus_core11transaction5testss_26test_transaction_lifecycle
FN:312,_RNvNtNtCs7bzfDg8Kx2o_10nexus_core11transaction5testss_27test_begin_read_transaction
FN:479,_RNvNtNtCs7bzfDg8Kx2o_10nexus_core11transaction5testss_27test_transaction_statistics
FN:325,_RNvNtNtCs7bzfDg8Kx2o_10nexus_core11transaction5testss_28test_begin_write_transaction
FN:337,_RNvNtNtCs7bzfDg8Kx2o_10nexus_core11transaction5testss_28test_commit_read_transaction
FN:351,_RNvNtNtCs7bzfDg8Kx2o_10nexus_core11transaction5testss_29test_commit_write_transaction
FN:572,_RNvNtNtCs7bzfDg8Kx2o_10nexus_core11transaction5testss_29test_visibility_never_deleted
FN:391,_RNvNtNtCs7bzfDg8Kx2o_10nexus_core11transaction5testss_33test_abort_non_active_transaction
FN:378,_RNvNtNtCs7bzfDg8Kx2o_10nexus_core11transaction5testss_34test_commit_non_active_transaction
FN:620,_RNvNtNtCs7bzfDg8Kx2o_10nexus_core11transaction5testss_34test_mixed_read_write_transactions
FN:551,_RNvNtNtCs7bzfDg8Kx2o_10nexus_core11transaction5testss_35test_visibility_at_epoch_boundaries
FNDA:0,_RNvMNtCs4yQ6d7adrZY_10nexus_core11transactionNtB2_11Transaction10is_aborted
FNDA:0,_RNvMNtCs4yQ6d7adrZY_10nexus_core11transactionNtB2_11Transaction12is_committed
FNDA:0,_RNvMNtCs4yQ6d7adrZY_10nexus_core11transactionNtB2_11Transaction12is_read_only
FNDA:42,_RNvMNtCs4yQ6d7adrZY_10nexus_core11transactionNtB2_11Transaction3new
FNDA:0,_RNvMNtCs4yQ6d7adrZY_10nexus_core11transactionNtB2_11Transaction8is_write
FNDA:0,_RNvMNtCs4yQ6d7adrZY_10nexus_core11transactionNtB2_11Transaction9is_active
FNDA:12,_RNvMs0_NtCs4yQ6d7adrZY_10nexus_core11transactionNtB5_18TransactionManager10begin_read
FNDA:2,_RNvMs0_NtCs4yQ6d7adrZY_10nexus_core11transactionNtB5_18TransactionManager10is_visible
FNDA:30,_RNvMs0_NtCs4yQ6d7adrZY_10nexus_core11transactionNtB5_18TransactionManager11begin_write
FNDA:22,_RNvMs0_NtCs4yQ6d7adrZY_10nexus_core11transactionNtB5_18TransactionManager12active_count
FNDA:0,_RNvMs0_NtCs4yQ6d7adrZY_10nexus_core11transactionNtB5_18TransactionManager12health_check
FNDA:3,_RNvMs0_NtCs4yQ6d7adrZY_10nexus_core11transactionNtB5_18TransactionManager13current_epoch
FNDA:29,_RNvMs0_NtCs4yQ6d7adrZY_10nexus_core11transactionNtB5_18TransactionManager3new
FNDA:0,_RNvMs0_NtCs4yQ6d7adrZY_10nexus_core11transactionNtB5_18TransactionManager5abort
FNDA:2,_RNvMs0_NtCs4yQ6d7adrZY_10nexus_core11transactionNtB5_18TransactionManager5stats
FNDA:30,_RNvMs0_NtCs4yQ6d7adrZY_10nexus_core11transactionNtB5_18TransactionManager6commit
FNDA:42,_RNvMs_NtCs4yQ6d7adrZY_10nexus_core11transactionNtB4_12EpochManager14allocate_tx_id
FNDA:30,_RNvMs_NtCs4yQ6d7adrZY_10nexus_core11transactionNtB4_12EpochManager15increment_epoch
FNDA:47,_RNvMs_NtCs4yQ6d7adrZY_10nexus_core11transactionNtB4_12EpochManager17get_current_epoch
FNDA:29,_RNvMs_NtCs4yQ6d7adrZY_10nexus_core11transactionNtB4_12EpochManager3new
FNDA:0,_RNvXs1_NtCs4yQ6d7adrZY_10nexus_core11transactionNtB5_18TransactionManagerNtNtCs9Kp62OsN3pY_4core7default7Default7default
FNDA:0,_RNvMs0_NtCs7bzfDg8Kx2o_10nexus_core11transactionNtB5_18TransactionManager12health_check
FNDA:0,_RNvXs1_NtCs7bzfDg8Kx2o_10nexus_core11transactionNtB5_18TransactionManagerNtNtCs9Kp62OsN3pY_4core7default7Default7default
FNDA:10,_RNCNvNtNtCs7bzfDg8Kx2o_10nexus_core11transaction5testss_21test_concurrent_reads0B7_
FNDA:10,_RNCNvNtNtCs7bzfDg8Kx2o_10nexus_core11transaction5testss_21test_concurrent_readss1_0B7_
FNDA:10,_RNCNvNtNtCs7bzfDg8Kx2o_10nexus_core11transaction5testss_21test_concurrent_readss_0B7_
FNDA:3,_RNvMNtCs7bzfDg8Kx2o_10nexus_core11transactionNtB2_11Transaction10is_aborted
FNDA:4,_RNvMNtCs7bzfDg8Kx2o_10nexus_core11transactionNtB2_11Transaction12is_committed
FNDA:1,_RNvMNtCs7bzfDg8Kx2o_10nexus_core11transactionNtB2_11Transaction12is_read_only
FNDA:152,_RNvMNtCs7bzfDg8Kx2o_10nexus_core11transactionNtB2_11Transaction3new
FNDA:1,_RNvMNtCs7bzfDg8Kx2o_10nexus_core11transactionNtB2_11Transaction8is_write
FNDA:3,_RNvMNtCs7bzfDg8Kx2o_10nexus_core11transactionNtB2_11Transaction9is_active
FNDA:126,_RNvMs0_NtCs7bzfDg8Kx2o_10nexus_core11transactionNtB5_18TransactionManager10begin_read
FNDA:13,_RNvMs0_NtCs7bzfDg8Kx2o_10nexus_core11transactionNtB5_18TransactionManager10is_visible
FNDA:26,_RNvMs0_NtCs7bzfDg8Kx2o_10nexus_core11transactionNtB5_18TransactionManager11begin_write
FNDA:6,_RNvMs0_NtCs7bzfDg8Kx2o_10nexus_core11transactionNtB5_18TransactionManager12active_count
FNDA:22,_RNvMs0_NtCs7bzfDg8Kx2o_10nexus_core11transactionNtB5_18TransactionManager13current_epoch
FNDA:36,_RNvMs0_NtCs7bzfDg8Kx2o_10nexus_core11transactionNtB5_18TransactionManager3new
FNDA:4,_RNvMs0_NtCs7bzfDg8Kx2o_10nexus_core11transactionNtB5_18TransactionManager5abort
FNDA:2,_RNvMs0_NtCs7bzfDg8Kx2o_10nexus_core11transactionNtB5_18TransactionManager5stats
FNDA:27,_RNvMs0_NtCs7bzfDg8Kx2o_10nexus_core11transactionNtB5_18TransactionManager6commit
FNDA:152,_RNvMs_NtCs7bzfDg8Kx2o_10nexus_core11transactionNtB4_12EpochManager14allocate_tx_id
FNDA:23,_RNvMs_NtCs7bzfDg8Kx2o_10nexus_core11transactionNtB4_12EpochManager15increment_epoch
FNDA:176,_RNvMs_NtCs7bzfDg8Kx2o_10nexus_core11transactionNtB4_12EpochManager17get_current_epoch
FNDA:36,_RNvMs_NtCs7bzfDg8Kx2o_10nexus_core11transactionNtB4_12EpochManager3new
FNDA:1,_RNvNtNtCs7bzfDg8Kx2o_10nexus_core11transaction5testss_20test_epoch_increment
FNDA:1,_RNvNtNtCs7bzfDg8Kx2o_10nexus_core11transaction5testss_21test_concurrent_reads
FNDA:1,_RNvNtNtCs7bzfDg8Kx2o_10nexus_core11transaction5testss_21test_tx_id_uniqueness
FNDA:1,_RNvNtNtCs7bzfDg8Kx2o_10nexus_core11transaction5testss_21test_visibility_rules
FNDA:1,_RNvNtNtCs7bzfDg8Kx2o_10nexus_core11transaction5testss_22test_abort_transaction
FNDA:1,_RNvNtNtCs7bzfDg8Kx2o_10nexus_core11transaction5testss_22test_sequential_writes
FNDA:1,_RNvNtNtCs7bzfDg8Kx2o_10nexus_core11transaction5testss_23test_snapshot_isolation
FNDA:1,_RNvNtNtCs7bzfDg8Kx2o_10nexus_core11transaction5testss_24test_tx_manager_creation
FNDA:1,_RNvNtNtCs7bzfDg8Kx2o_10nexus_core11transaction5testss_26test_multiple_transactions
FNDA:1,_RNvNtNtCs7bzfDg8Kx2o_10nexus_core11transaction5testss_26test_transaction_lifecycle
FNDA:1,_RNvNtNtCs7bzfDg8Kx2o_10nexus_core11transaction5testss_27test_begin_read_transaction
FNDA:1,_RNvNtNtCs7bzfDg8Kx2o_10nexus_core11transaction5testss_27test_transaction_statistics
FNDA:1,_RNvNtNtCs7bzfDg8Kx2o_10nexus_core11transaction5testss_28test_begin_write_transaction
FNDA:1,_RNvNtNtCs7bzfDg8Kx2o_10nexus_core11transaction5testss_28test_commit_read_transaction
FNDA:1,_RNvNtNtCs7bzfDg8Kx2o_10nexus_core11transaction5testss_29test_commit_write_transaction
FNDA:1,_RNvNtNtCs7bzfDg8Kx2o_10nexus_core11transaction5testss_29test_visibility_never_deleted
FNDA:1,_RNvNtNtCs7bzfDg8Kx2o_10nexus_core11transaction5testss_33test_abort_non_active_transaction
FNDA:1,_RNvNtNtCs7bzfDg8Kx2o_10nexus_core11transaction5testss_34test_commit_non_active_transaction
FNDA:1,_RNvNtNtCs7bzfDg8Kx2o_10nexus_core11transaction5testss_34test_mixed_read_write_transactions
FNDA:1,_RNvNtNtCs7bzfDg8Kx2o_10nexus_core11transaction5testss_35test_visibility_at_epoch_boundaries
FNF:44
FNH:42
DA:59,194
DA:60,194
DA:61,194
DA:62,194
DA:63,194
DA:64,194
DA:65,194
DA:66,194
DA:69,3
DA:70,3
DA:71,3
DA:74,4
DA:75,4
DA:76,4
DA:79,3
DA:80,3
DA:81,3
DA:84,1
DA:85,1
DA:86,1
DA:89,1
DA:90,1
DA:91,1
DA:104,65
DA:105,65
DA:106,65
DA:107,65
DA:108,65
DA:109,65
DA:111,223
DA:112,223
DA:113,223
DA:115,53
DA:116,53
DA:117,53
DA:119,194
DA:120,194
DA:121,194
DA:161,65
DA:162,65
DA:163,65
DA:164,65
DA:165,65
DA:166,65
DA:167,65
DA:172,138
DA:173,138
DA:174,138
DA:176,138
DA:178,138
DA:179,138
DA:185,56
DA:187,56
DA:188,56
DA:190,56
DA:192,56
DA:193,56
DA:198,57
DA:199,57
DA:200,1
DA:201,1
DA:202,1
DA:203,1
DA:204,56
DA:207,56
DA:208,53
DA:209,53
DA:210,53
DA:212,56
DA:213,56
DA:215,56
DA:216,57
DA:219,4
DA:220,4
DA:221,1
DA:222,1
DA:223,1
DA:224,1
DA:225,3
DA:227,3
DA:228,3
DA:230,3
DA:231,4
DA:234,25
DA:235,25
DA:236,25
DA:239,4
DA:240,4
DA:241,4
DA:242,4
DA:243,4
DA:248,15
DA:249,15
DA:250,15
DA:251,15
DA:252,15
DA:253,15
DA:255,15
DA:256,2
DA:257,13
DA:260,13
DA:261,7
DA:262,3
DA:263,4
DA:264,6
DA:266,10
DA:267,15
DA:270,0
DA:272,0
DA:273,0
DA:275,0
DA:276,0
DA:279,0
DA:280,0
DA:282,0
DA:283,0
DA:285,0
DA:286,0
DA:289,28
DA:291,28
DA:292,28
DA:296,0
DA:297,0
DA:298,0
DA:306,1
DA:307,1
DA:308,1
DA:309,1
DA:312,1
DA:313,1
DA:315,1
DA:316,1
DA:317,1
DA:318,1
DA:319,1
DA:320,1
DA:321,1
DA:322,1
DA:325,1
DA:326,1
DA:328,1
DA:329,1
DA:330,1
DA:331,1
DA:332,1
DA:333,1
DA:334,1
DA:337,1
DA:338,1
DA:340,1
DA:341,1
DA:343,1
DA:344,1
DA:347,1
DA:348,1
DA:351,1
DA:352,1
DA:354,1
DA:355,1
DA:357,1
DA:360,1
DA:361,1
DA:364,1
DA:365,1
DA:367,1
DA:368,1
DA:370,1
DA:371,1
DA:374,1
DA:375,1
DA:378,1
DA:379,1
DA:381,1
DA:382,1
DA:385,1
DA:386,1
DA:387,1
DA:388,1
DA:391,1
DA:392,1
DA:394,1
DA:395,1
DA:398,1
DA:399,1
DA:400,1
DA:403,1
DA:404,1
DA:407,1
DA:408,1
DA:410,1
DA:411,1
DA:412,1
DA:413,1
DA:416,1
DA:417,1
DA:419,1
DA:422,11
DA:423,10
DA:424,10
DA:425,10
DA:428,1
DA:429,1
DA:432,1
DA:433,1
DA:436,1
DA:439,1
DA:442,1
DA:445,1
DA:448,1
DA:451,1
DA:454,1
DA:455,1
DA:458,1
DA:459,1
DA:462,1
DA:463,1
DA:466,1
DA:467,1
DA:468,1
DA:471,1
DA:474,1
DA:475,1
DA:476,1
DA:479,1
DA:480,1
DA:483,1
DA:484,1
DA:485,1
DA:487,1
DA:488,1
DA:489,1
DA:491,1
DA:492,1
DA:493,1
DA:494,1
DA:495,1
DA:496,1
DA:497,1
DA:500,1
DA:504,1
DA:506,1
DA:509,11
DA:510,10
DA:511,10
DA:512,10
DA:515,1
DA:516,10
DA:519,1
DA:520,10
DA:523,1
DA:524,1
DA:525,1
DA:526,1
DA:527,1
DA:530,1
DA:531,1
DA:533,6
DA:534,5
DA:537,5
DA:539,5
DA:542,5
DA:545,1
DA:546,1
DA:547,1
DA:548,1
DA:551,1
DA:552,1
DA:555,1
DA:556,1
DA:559,1
DA:562,1
DA:565,1
DA:568,1
DA:569,1
DA:572,1
DA:573,1
DA:575,1
DA:576,1
DA:579,1
DA:580,1
DA:581,1
DA:584,1
DA:585,1
DA:588,1
DA:589,1
DA:591,1
DA:592,1
DA:593,1
DA:594,1
DA:596,1
DA:597,1
DA:598,1
DA:599,1
DA:600,1
DA:603,1
DA:604,1
DA:606,1
DA:607,101
DA:608,100
DA:609,100
DA:610,100
DA:613,1
DA:614,1
DA:615,1
DA:616,1
DA:617,1
DA:620,1
DA:621,1
DA:623,1
DA:624,1
DA:625,1
DA:627,1
DA:628,1
DA:629,1
DA:632,1
DA:633,1
DA:634,1
DA:635,1
BRF:0
BRH:0
LF:321
LH:307
end_of_record
SF:/mnt/f/Node/hivellm/nexus/nexus-core/src/validation.rs
FN:357,_RNCNvMs_NtCs4yQ6d7adrZY_10nexus_core10validationNtB6_14GraphValidator14validate_edges0B8_
FN:238,_RNCNvMs_NtCs4yQ6d7adrZY_10nexus_core10validationNtB6_14GraphValidator14validate_graph0B8_
FN:256,_RNCNvMs_NtCs4yQ6d7adrZY_10nexus_core10validationNtB6_14GraphValidator14validate_nodes0B8_
FN:194,_RNvMs_NtCs4yQ6d7adrZY_10nexus_core10validationNtB4_14GraphValidator11with_config
FN:372,_RNvMs_NtCs4yQ6d7adrZY_10nexus_core10validationNtB4_14GraphValidator13validate_edge
FN:271,_RNvMs_NtCs4yQ6d7adrZY_10nexus_core10validationNtB4_14GraphValidator13validate_node
FN:345,_RNvMs_NtCs4yQ6d7adrZY_10nexus_core10validationNtB4_14GraphValidator14validate_edges
FN:199,_RNvMs_NtCs4yQ6d7adrZY_10nexus_core10validationNtB4_14GraphValidator14validate_graph
FN:244,_RNvMs_NtCs4yQ6d7adrZY_10nexus_core10validationNtB4_14GraphValidator14validate_nodes
FN:528,_RNvMs_NtCs4yQ6d7adrZY_10nexus_core10validationNtB4_14GraphValidator20check_orphaned_edges
FN:513,_RNvMs_NtCs4yQ6d7adrZY_10nexus_core10validationNtB4_14GraphValidator20validate_consistency
FN:553,_RNvMs_NtCs4yQ6d7adrZY_10nexus_core10validationNtB4_14GraphValidator21check_duplicate_edges
FN:580,_RNvMs_NtCs4yQ6d7adrZY_10nexus_core10validationNtB4_14GraphValidator21check_graph_structure
FN:469,_RNvMs_NtCs4yQ6d7adrZY_10nexus_core10validationNtB4_14GraphValidator23validate_property_value
FN:444,_RNvMs_NtCs4yQ6d7adrZY_10nexus_core10validationNtB4_14GraphValidator24validate_edge_properties
FN:320,_RNvMs_NtCs4yQ6d7adrZY_10nexus_core10validationNtB4_14GraphValidator24validate_node_properties
FN:187,_RNvMs_NtCs4yQ6d7adrZY_10nexus_core10validationNtB4_14GraphValidator3new
FN:167,_RNvXNtCs4yQ6d7adrZY_10nexus_core10validationNtB2_16ValidationConfigNtNtCs9Kp62OsN3pY_4core7default7Default7default
FN:633,_RNvXs0_NtCs4yQ6d7adrZY_10nexus_core10validationNtB5_14GraphValidatorNtNtCs9Kp62OsN3pY_4core7default7Default7default
FN:633,_RNvXs0_NtCs7bzfDg8Kx2o_10nexus_core10validationNtB5_14GraphValidatorNtNtCs9Kp62OsN3pY_4core7default7Default7default
FN:194,_RNvMs_NtCs7bzfDg8Kx2o_10nexus_core10validationNtB4_14GraphValidator11with_config
FN:372,_RNvMs_NtCs7bzfDg8Kx2o_10nexus_core10validationNtB4_14GraphValidator13validate_edge
FN:271,_RNvMs_NtCs7bzfDg8Kx2o_10nexus_core10validationNtB4_14GraphValidator13validate_node
FN:345,_RNvMs_NtCs7bzfDg8Kx2o_10nexus_core10validationNtB4_14GraphValidator14validate_edges
FN:199,_RNvMs_NtCs7bzfDg8Kx2o_10nexus_core10validationNtB4_14GraphValidator14validate_graph
FN:244,_RNvMs_NtCs7bzfDg8Kx2o_10nexus_core10validationNtB4_14GraphValidator14validate_nodes
FN:528,_RNvMs_NtCs7bzfDg8Kx2o_10nexus_core10validationNtB4_14GraphValidator20check_orphaned_edges
FN:513,_RNvMs_NtCs7bzfDg8Kx2o_10nexus_core10validationNtB4_14GraphValidator20validate_consistency
FN:553,_RNvMs_NtCs7bzfDg8Kx2o_10nexus_core10validationNtB4_14GraphValidator21check_duplicate_edges
FN:580,_RNvMs_NtCs7bzfDg8Kx2o_10nexus_core10validationNtB4_14GraphValidator21check_graph_structure
FN:469,_RNvMs_NtCs7bzfDg8Kx2o_10nexus_core10validationNtB4_14GraphValidator23validate_property_value
FN:444,_RNvMs_NtCs7bzfDg8Kx2o_10nexus_core10validationNtB4_14GraphValidator24validate_edge_properties
FN:320,_RNvMs_NtCs7bzfDg8Kx2o_10nexus_core10validationNtB4_14GraphValidator24validate_node_properties
FN:187,_RNvMs_NtCs7bzfDg8Kx2o_10nexus_core10validationNtB4_14GraphValidator3new
FN:167,_RNvXNtCs7bzfDg8Kx2o_10nexus_core10validationNtB2_16ValidationConfigNtNtCs9Kp62OsN3pY_4core7default7Default7default
FN:901,_RNCNvNtNtCs7bzfDg8Kx2o_10nexus_core10validation5testss_23test_validate_self_loop0B7_
FN:921,_RNCNvNtNtCs7bzfDg8Kx2o_10nexus_core10validation5testss_27test_validate_isolated_node0B7_
FN:858,_RNCNvNtNtCs7bzfDg8Kx2o_10nexus_core10validation5testss_37test_validate_invalid_property_values0B7_
FN:789,_RNCNvNtNtCs7bzfDg8Kx2o_10nexus_core10validation5testss_40test_validate_node_with_duplicate_labels0B7_
FN:644,_RNvNtNtCs7bzfDg8Kx2o_10nexus_core10validation5tests17create_test_graph
FN:863,_RNvNtNtCs7bzfDg8Kx2o_10nexus_core10validation5testss_19test_validate_edges
FN:933,_RNvNtNtCs7bzfDg8Kx2o_10nexus_core10validation5testss_21test_validation_stats
FN:884,_RNvNtNtCs7bzfDg8Kx2o_10nexus_core10validation5testss_23test_validate_self_loop
FN:743,_RNvNtNtCs7bzfDg8Kx2o_10nexus_core10validation5testss_25test_validate_empty_graph
FN:906,_RNvNtNtCs7bzfDg8Kx2o_10nexus_core10validation5testss_27test_validate_isolated_node
FN:712,_RNvNtNtCs7bzfDg8Kx2o_10nexus_core10validation5testss_29test_graph_validator_creation
FN:794,_RNvNtNtCs7bzfDg8Kx2o_10nexus_core10validation5testss_29test_validate_node_properties
FN:755,_RNvNtNtCs7bzfDg8Kx2o_10nexus_core10validation5testss_30test_validate_graph_with_nodes
FN:701,_RNvNtNtCs7bzfDg8Kx2o_10nexus_core10validation5testss_30test_validation_config_default
FN:675,_RNvNtNtCs7bzfDg8Kx2o_10nexus_core10validation5testss_30test_validation_error_creation
FN:654,_RNvNtNtCs7bzfDg8Kx2o_10nexus_core10validation5testss_31test_validation_result_creation
FN:719,_RNvNtNtCs7bzfDg8Kx2o_10nexus_core10validation5testss_32test_graph_validator_with_config
FN:689,_RNvNtNtCs7bzfDg8Kx2o_10nexus_core10validation5testss_32test_validation_warning_creation
FN:926,_RNvNtNtCs7bzfDg8Kx2o_10nexus_core10validation5testss_33test_validation_severity_ordering
FN:817,_RNvNtNtCs7bzfDg8Kx2o_10nexus_core10validation5testss_37test_validate_invalid_property_values
FN:771,_RNvNtNtCs7bzfDg8Kx2o_10nexus_core10validation5testss_40test_validate_node_with_duplicate_labels
FN:357,_RNCNvMs_NtCs7bzfDg8Kx2o_10nexus_core10validationNtB6_14GraphValidator14validate_edges0B8_
FN:238,_RNCNvMs_NtCs7bzfDg8Kx2o_10nexus_core10validationNtB6_14GraphValidator14validate_graph0B8_
FN:256,_RNCNvMs_NtCs7bzfDg8Kx2o_10nexus_core10validationNtB6_14GraphValidator14validate_nodes0B8_
FNDA:0,_RNCNvMs_NtCs4yQ6d7adrZY_10nexus_core10validationNtB6_14GraphValidator14validate_edges0B8_
FNDA:0,_RNCNvMs_NtCs4yQ6d7adrZY_10nexus_core10validationNtB6_14GraphValidator14validate_graph0B8_
FNDA:0,_RNCNvMs_NtCs4yQ6d7adrZY_10nexus_core10validationNtB6_14GraphValidator14validate_nodes0B8_
FNDA:0,_RNvMs_NtCs4yQ6d7adrZY_10nexus_core10validationNtB4_14GraphValidator11with_config
FNDA:0,_RNvMs_NtCs4yQ6d7adrZY_10nexus_core10validationNtB4_14GraphValidator13validate_edge
FNDA:0,_RNvMs_NtCs4yQ6d7adrZY_10nexus_core10validationNtB4_14GraphValidator13validate_node
FNDA:0,_RNvMs_NtCs4yQ6d7adrZY_10nexus_core10validationNtB4_14GraphValidator14validate_edges
FNDA:0,_RNvMs_NtCs4yQ6d7adrZY_10nexus_core10validationNtB4_14GraphValidator14validate_graph
FNDA:0,_RNvMs_NtCs4yQ6d7adrZY_10nexus_core10validationNtB4_14GraphValidator14validate_nodes
FNDA:0,_RNvMs_NtCs4yQ6d7adrZY_10nexus_core10validationNtB4_14GraphValidator20check_orphaned_edges
FNDA:0,_RNvMs_NtCs4yQ6d7adrZY_10nexus_core10validationNtB4_14GraphValidator20validate_consistency
FNDA:0,_RNvMs_NtCs4yQ6d7adrZY_10nexus_core10validationNtB4_14GraphValidator21check_duplicate_edges
FNDA:0,_RNvMs_NtCs4yQ6d7adrZY_10nexus_core10validationNtB4_14GraphValidator21check_graph_structure
FNDA:0,_RNvMs_NtCs4yQ6d7adrZY_10nexus_core10validationNtB4_14GraphValidator23validate_property_value
FNDA:0,_RNvMs_NtCs4yQ6d7adrZY_10nexus_core10validationNtB4_14GraphValidator24validate_edge_properties
FNDA:0,_RNvMs_NtCs4yQ6d7adrZY_10nexus_core10validationNtB4_14GraphValidator24validate_node_properties
FNDA:0,_RNvMs_NtCs4yQ6d7adrZY_10nexus_core10validationNtB4_14GraphValidator3new
FNDA:0,_RNvXNtCs4yQ6d7adrZY_10nexus_core10validationNtB2_16ValidationConfigNtNtCs9Kp62OsN3pY_4core7default7Default7default
FNDA:0,_RNvXs0_NtCs4yQ6d7adrZY_10nexus_core10validationNtB5_14GraphValidatorNtNtCs9Kp62OsN3pY_4core7default7Default7default
FNDA:0,_RNvXs0_NtCs7bzfDg8Kx2o_10nexus_core10validationNtB5_14GraphValidatorNtNtCs9Kp62OsN3pY_4core7default7Default7default
FNDA:1,_RNvMs_NtCs7bzfDg8Kx2o_10nexus_core10validationNtB4_14GraphValidator11with_config
FNDA:2,_RNvMs_NtCs7bzfDg8Kx2o_10nexus_core10validationNtB4_14GraphValidator13validate_edge
FNDA:8,_RNvMs_NtCs7bzfDg8Kx2o_10nexus_core10validationNtB4_14GraphValidator13validate_node
FNDA:7,_RNvMs_NtCs7bzfDg8Kx2o_10nexus_core10validationNtB4_14GraphValidator14validate_edges
FNDA:7,_RNvMs_NtCs7bzfDg8Kx2o_10nexus_core10validationNtB4_14GraphValidator14validate_graph
FNDA:7,_RNvMs_NtCs7bzfDg8Kx2o_10nexus_core10validationNtB4_14GraphValidator14validate_nodes
FNDA:7,_RNvMs_NtCs7bzfDg8Kx2o_10nexus_core10validationNtB4_14GraphValidator20check_orphaned_edges
FNDA:7,_RNvMs_NtCs7bzfDg8Kx2o_10nexus_core10validationNtB4_14GraphValidator20validate_consistency
FNDA:7,_RNvMs_NtCs7bzfDg8Kx2o_10nexus_core10validationNtB4_14GraphValidator21check_duplicate_edges
FNDA:7,_RNvMs_NtCs7bzfDg8Kx2o_10nexus_core10validationNtB4_14GraphValidator21check_graph_structure
FNDA:5,_RNvMs_NtCs7bzfDg8Kx2o_10nexus_core10validationNtB4_14GraphValidator23validate_property_value
FNDA:2,_RNvMs_NtCs7bzfDg8Kx2o_10nexus_core10validationNtB4_14GraphValidator24validate_edge_properties
FNDA:9,_RNvMs_NtCs7bzfDg8Kx2o_10nexus_core10validationNtB4_14GraphValidator24validate_node_properties
FNDA:9,_RNvMs_NtCs7bzfDg8Kx2o_10nexus_core10validationNtB4_14GraphValidator3new
FNDA:10,_RNvXNtCs7bzfDg8Kx2o_10nexus_core10validationNtB2_16ValidationConfigNtNtCs9Kp62OsN3pY_4core7default7Default7default
FNDA:1,_RNCNvNtNtCs7bzfDg8Kx2o_10nexus_core10validation5testss_23test_validate_self_loop0B7_
FNDA:1,_RNCNvNtNtCs7bzfDg8Kx2o_10nexus_core10validation5testss_27test_validate_isolated_node0B7_
FNDA:1,_RNCNvNtNtCs7bzfDg8Kx2o_10nexus_core10validation5testss_37test_validate_invalid_property_values0B7_
FNDA:1,_RNCNvNtNtCs7bzfDg8Kx2o_10nexus_core10validation5testss_40test_validate_node_with_duplicate_labels0B7_
FNDA:8,_RNvNtNtCs7bzfDg8Kx2o_10nexus_core10validation5tests17create_test_graph
FNDA:1,_RNvNtNtCs7bzfDg8Kx2o_10nexus_core10validation5testss_19test_validate_edges
FNDA:1,_RNvNtNtCs7bzfDg8Kx2o_10nexus_core10validation5testss_21test_validation_stats
FNDA:1,_RNvNtNtCs7bzfDg8Kx2o_10nexus_core10validation5testss_23test_validate_self_loop
FNDA:1,_RNvNtNtCs7bzfDg8Kx2o_10nexus_core10validation5testss_25test_validate_empty_graph
FNDA:1,_RNvNtNtCs7bzfDg8Kx2o_10nexus_core10validation5testss_27test_validate_isolated_node
FNDA:1,_RNvNtNtCs7bzfDg8Kx2o_10nexus_core10validation5testss_29test_graph_validator_creation
FNDA:1,_RNvNtNtCs7bzfDg8Kx2o_10nexus_core10validation5testss_29test_validate_node_properties
FNDA:1,_RNvNtNtCs7bzfDg8Kx2o_10nexus_core10validation5testss_30test_validate_graph_with_nodes
FNDA:1,_RNvNtNtCs7bzfDg8Kx2o_10nexus_core10validation5testss_30test_validation_config_default
FNDA:1,_RNvNtNtCs7bzfDg8Kx2o_10nexus_core10validation5testss_30test_validation_error_creation
FNDA:1,_RNvNtNtCs7bzfDg8Kx2o_10nexus_core10validation5testss_31test_validation_result_creation
FNDA:1,_RNvNtNtCs7bzfDg8Kx2o_10nexus_core10validation5testss_32test_graph_validator_with_config
FNDA:1,_RNvNtNtCs7bzfDg8Kx2o_10nexus_core10validation5testss_32test_validation_warning_creation
FNDA:1,_RNvNtNtCs7bzfDg8Kx2o_10nexus_core10validation5testss_33test_validation_severity_ordering
FNDA:1,_RNvNtNtCs7bzfDg8Kx2o_10nexus_core10validation5testss_37test_validate_invalid_property_values
FNDA:1,_RNvNtNtCs7bzfDg8Kx2o_10nexus_core10validation5testss_40test_validate_node_with_duplicate_labels
FNDA:0,_RNCNvMs_NtCs7bzfDg8Kx2o_10nexus_core10validationNtB6_14GraphValidator14validate_edges0B8_
FNDA:1,_RNCNvMs_NtCs7bzfDg8Kx2o_10nexus_core10validationNtB6_14GraphValidator14validate_graph0B8_
FNDA:0,_RNCNvMs_NtCs7bzfDg8Kx2o_10nexus_core10validationNtB6_14GraphValidator14validate_nodes0B8_
FNF:40
FNH:37
DA:167,10
DA:168,10
DA:169,10
DA:170,10
DA:171,10
DA:172,10
DA:173,10
DA:174,10
DA:175,10
DA:176,10
DA:177,10
DA:178,10
DA:179,10
DA:180,10
DA:181,10
DA:182,10
DA:187,9
DA:188,9
DA:189,9
DA:190,9
DA:191,9
DA:194,1
DA:195,1
DA:196,1
DA:199,7
DA:200,7
DA:201,7
DA:202,7
DA:203,7
DA:204,7
DA:205,7
DA:206,7
DA:207,7
DA:208,7
DA:209,7
DA:210,7
DA:211,7
DA:212,7
DA:213,7
DA:216,7
DA:217,7
DA:218,0
DA:221,7
DA:222,7
DA:223,0
DA:226,7
DA:227,7
DA:228,0
DA:231,7
DA:234,7
DA:235,1
DA:236,1
DA:237,1
DA:238,1
DA:240,7
DA:241,7
DA:244,7
DA:245,7
DA:246,7
DA:248,15
DA:249,8
DA:252,8
DA:253,0
DA:254,0
DA:255,0
DA:256,0
DA:258,0
DA:259,8
DA:262,8
DA:263,0
DA:264,8
DA:267,7
DA:268,7
DA:271,8
DA:272,8
DA:273,8
DA:274,8
DA:275,8
DA:276,8
DA:278,8
DA:279,0
DA:280,0
DA:281,0
DA:282,0
DA:283,0
DA:284,0
DA:285,8
DA:288,8
DA:289,0
DA:290,0
DA:291,0
DA:292,0
DA:293,0
DA:294,8
DA:297,8
DA:298,17
DA:299,9
DA:300,1
DA:301,1
DA:302,1
DA:303,1
DA:304,1
DA:305,1
DA:306,8
DA:309,8
DA:312,8
DA:313,8
DA:314,0
DA:316,8
DA:317,8
DA:320,9
DA:321,9
DA:324,9
DA:325,9
DA:326,5
DA:327,0
DA:328,0
DA:329,0
DA:330,0
DA:331,0
DA:332,0
DA:333,5
DA:337,14
DA:338,5
DA:341,9
DA:342,9
DA:345,7
DA:346,7
DA:347,7
DA:349,9
DA:350,2
DA:353,2
DA:354,0
DA:355,0
DA:356,0
DA:357,0
DA:359,0
DA:360,2
DA:363,2
DA:364,0
DA:365,2
DA:368,7
DA:369,7
DA:372,2
DA:373,2
DA:374,2
DA:375,2
DA:376,2
DA:377,2
DA:379,2
DA:380,0
DA:381,0
DA:382,0
DA:383,0
DA:384,0
DA:385,0
DA:386,2
DA:389,2
DA:390,0
DA:391,0
DA:392,0
DA:393,0
DA:394,0
DA:395,0
DA:396,0
DA:397,0
DA:398,0
DA:399,2
DA:402,2
DA:403,0
DA:404,0
DA:405,0
DA:406,0
DA:407,0
DA:408,0
DA:409,0
DA:410,0
DA:411,0
DA:412,2
DA:415,2
DA:416,1
DA:417,1
DA:418,1
DA:419,1
DA:420,1
DA:421,1
DA:424,2
DA:425,0
DA:426,0
DA:427,0
DA:428,0
DA:429,0
DA:430,0
DA:431,2
DA:433,2
DA:436,2
DA:437,2
DA:438,0
DA:440,2
DA:441,2
DA:444,2
DA:445,2
DA:448,2
DA:449,2
DA:450,0
DA:451,0
DA:452,0
DA:453,0
DA:454,0
DA:455,0
DA:456,0
DA:457,0
DA:461,2
DA:462,0
DA:465,2
DA:466,2
DA:469,5
DA:470,5
DA:471,5
DA:472,5
DA:473,5
DA:474,5
DA:475,5
DA:476,1
DA:477,1
DA:478,1
DA:479,1
DA:480,1
DA:481,0
DA:482,0
DA:483,0
DA:484,0
DA:485,0
DA:486,1
DA:488,3
DA:489,3
DA:490,2
DA:491,2
DA:492,2
DA:493,2
DA:494,2
DA:495,2
DA:496,2
DA:498,0
DA:499,0
DA:500,0
DA:501,0
DA:502,0
DA:503,0
DA:504,0
DA:505,0
DA:506,0
DA:509,5
DA:510,5
DA:513,7
DA:514,7
DA:515,7
DA:516,0
DA:518,7
DA:519,7
DA:520,0
DA:522,7
DA:524,7
DA:525,7
DA:528,7
DA:529,7
DA:530,7
DA:533,7
DA:534,15
DA:535,8
DA:536,8
DA:538,9
DA:539,2
DA:540,0
DA:541,0
DA:542,0
DA:543,0
DA:544,0
DA:545,0
DA:546,2
DA:549,7
DA:550,7
DA:553,7
DA:554,7
DA:555,7
DA:557,9
DA:558,2
DA:559,2
DA:560,0
DA:561,0
DA:562,0
DA:563,0
DA:564,0
DA:565,0
DA:566,0
DA:567,0
DA:568,0
DA:569,0
DA:570,0
DA:571,2
DA:572,2
DA:573,2
DA:576,7
DA:577,7
DA:580,7
DA:581,7
DA:582,7
DA:585,7
DA:586,9
DA:587,2
DA:588,2
DA:589,2
DA:591,15
DA:592,8
DA:593,5
DA:594,5
DA:595,5
DA:596,5
DA:597,5
DA:598,5
DA:602,7
DA:603,7
DA:605,7
DA:606,6
DA:607,6
DA:608,2
DA:610,4
DA:613,6
DA:614,1
DA:615,1
DA:616,1
DA:617,1
DA:618,1
DA:619,5
DA:620,0
DA:621,0
DA:622,0
DA:623,0
DA:624,0
DA:625,5
DA:626,1
DA:628,7
DA:629,7
DA:633,0
DA:634,0
DA:635,0
DA:644,8
DA:645,8
DA:646,8
DA:647,8
DA:648,8
DA:649,8
DA:650,8
DA:651,8
DA:654,1
DA:655,1
DA:656,1
DA:657,1
DA:658,1
DA:659,1
DA:660,1
DA:661,1
DA:662,1
DA:663,1
DA:664,1
DA:665,1
DA:666,1
DA:667,1
DA:669,1
DA:670,1
DA:671,1
DA:672,1
DA:675,1
DA:676,1
DA:677,1
DA:678,1
DA:679,1
DA:680,1
DA:681,1
DA:683,1
DA:684,1
DA:685,1
DA:686,1
DA:689,1
DA:690,1
DA:691,1
DA:692,1
DA:693,1
DA:694,1
DA:696,1
DA:697,1
DA:698,1
DA:701,1
DA:702,1
DA:703,1
DA:704,1
DA:705,1
DA:706,1
DA:707,1
DA:708,1
DA:709,1
DA:712,1
DA:713,1
DA:714,1
DA:715,1
DA:716,1
DA:719,1
DA:720,1
DA:721,1
DA:722,1
DA:723,1
DA:724,1
DA:725,1
DA:726,1
DA:727,1
DA:728,1
DA:729,1
DA:730,1
DA:731,1
DA:732,1
DA:733,1
DA:735,1
DA:736,1
DA:737,1
DA:738,1
DA:739,1
DA:740,1
DA:743,1
DA:744,1
DA:745,1
DA:746,1
DA:748,1
DA:749,1
DA:750,1
DA:751,1
DA:752,1
DA:755,1
DA:756,1
DA:759,1
DA:760,1
DA:762,1
DA:763,1
DA:765,1
DA:766,1
DA:767,1
DA:768,1
DA:771,1
DA:772,1
DA:775,1
DA:776,1
DA:777,1
DA:778,1
DA:780,1
DA:781,1
DA:784,1
DA:785,1
DA:786,1
DA:787,1
DA:788,1
DA:789,1
DA:791,1
DA:794,1
DA:795,1
DA:797,1
DA:798,1
DA:801,1
DA:802,1
DA:803,1
DA:805,1
DA:806,1
DA:807,1
DA:809,1
DA:810,1
DA:812,1
DA:813,1
DA:814,1
DA:817,1
DA:818,1
DA:820,1
DA:821,1
DA:824,1
DA:825,1
DA:826,1
DA:828,1
DA:829,1
DA:830,1
DA:834,1
DA:835,1
DA:836,1
DA:837,1
DA:838,1
DA:839,1
DA:840,1
DA:841,1
DA:842,1
DA:843,1
DA:844,1
DA:845,1
DA:846,1
DA:847,1
DA:849,1
DA:850,1
DA:851,1
DA:853,1
DA:854,1
DA:855,1
DA:856,1
DA:857,1
DA:858,1
DA:860,1
DA:863,1
DA:864,1
DA:867,1
DA:868,1
DA:871,1
DA:872,1
DA:873,1
DA:875,1
DA:876,1
DA:878,1
DA:879,1
DA:880,1
DA:881,1
DA:884,1
DA:885,1
DA:887,1
DA:890,1
DA:892,1
DA:893,1
DA:895,1
DA:896,1
DA:897,1
DA:898,1
DA:899,1
DA:900,1
DA:901,1
DA:903,1
DA:906,1
DA:907,1
DA:910,1
DA:912,1
DA:913,1
DA:915,1
DA:916,1
DA:917,1
DA:918,1
DA:919,1
DA:920,1
DA:921,1
DA:923,1
DA:926,1
DA:927,1
DA:928,1
DA:929,1
DA:930,1
DA:933,1
DA:934,1
DA:935,1
DA:936,1
DA:937,1
DA:938,1
DA:939,1
DA:940,1
DA:941,1
DA:943,1
DA:944,1
DA:945,1
DA:946,1
DA:947,1
DA:948,1
DA:949,1
BRF:0
BRH:0
LF:578
LH:462
end_of_record
SF:/mnt/f/Node/hivellm/nexus/nexus-core/src/wal/mod.rs
FN:212,_RINvMs_NtCs4yQ6d7adrZY_10nexus_core3walNtB5_3Wal3newNtNtCslLCvXJZBaqX_3std4path7PathBufEB7_
FN:212,_RINvMs_NtCs4yQ6d7adrZY_10nexus_core3walNtB5_3Wal3newReEB7_
FN:249,_RNCNvMs_NtCs4yQ6d7adrZY_10nexus_core3walNtB6_3Wal6append0B8_
FN:346,_RNCNvMs_NtCs4yQ6d7adrZY_10nexus_core3walNtB6_3Wal7recover0B8_
FN:131,_RNvMNtCs4yQ6d7adrZY_10nexus_core3walNtB2_8WalEntry10entry_type
FN:286,_RNvMs_NtCs4yQ6d7adrZY_10nexus_core3walNtB4_3Wal10checkpoint
FN:405,_RNvMs_NtCs4yQ6d7adrZY_10nexus_core3walNtB4_3Wal11entry_count
FN:384,_RNvMs_NtCs4yQ6d7adrZY_10nexus_core3walNtB4_3Wal12health_check
FN:369,_RNvMs_NtCs4yQ6d7adrZY_10nexus_core3walNtB4_3Wal4path
FN:278,_RNvMs_NtCs4yQ6d7adrZY_10nexus_core3walNtB4_3Wal5flush
FN:359,_RNvMs_NtCs4yQ6d7adrZY_10nexus_core3walNtB4_3Wal5stats
FN:246,_RNvMs_NtCs4yQ6d7adrZY_10nexus_core3walNtB4_3Wal6append
FN:300,_RNvMs_NtCs4yQ6d7adrZY_10nexus_core3walNtB4_3Wal7recover
FN:374,_RNvMs_NtCs4yQ6d7adrZY_10nexus_core3walNtB4_3Wal8truncate
FN:364,_RNvMs_NtCs4yQ6d7adrZY_10nexus_core3walNtB4_3Wal9file_size
FN:411,_RNvXs0_NtCs4yQ6d7adrZY_10nexus_core3walNtB5_3WalNtNtCs9Kp62OsN3pY_4core7default7Default7default
FN:212,_RINvMs_NtCs4yQ6d7adrZY_10nexus_core3walNtB5_3Wal3newRNtNtCslLCvXJZBaqX_3std4path4PathECsdSFlqrxOIyu_11integration
FN:212,_RINvMs_NtCs4yQ6d7adrZY_10nexus_core3walNtB5_3Wal3newRNtNtCslLCvXJZBaqX_3std4path7PathBufECsdSFlqrxOIyu_11integration
FN:369,_RNvMs_NtCs7bzfDg8Kx2o_10nexus_core3walNtB4_3Wal4path
FN:364,_RNvMs_NtCs7bzfDg8Kx2o_10nexus_core3walNtB4_3Wal9file_size
FN:411,_RNvXs0_NtCs7bzfDg8Kx2o_10nexus_core3walNtB5_3WalNtNtCs9Kp62OsN3pY_4core7default7Default7default
FN:212,_RINvMs_NtCs7bzfDg8Kx2o_10nexus_core3walNtB5_3Wal3newNtNtCslLCvXJZBaqX_3std4path7PathBufEB7_
FN:212,_RINvMs_NtCs7bzfDg8Kx2o_10nexus_core3walNtB5_3Wal3newRNtNtCslLCvXJZBaqX_3std4path7PathBufEB7_
FN:249,_RNCNvMs_NtCs7bzfDg8Kx2o_10nexus_core3walNtB6_3Wal6append0B8_
FN:346,_RNCNvMs_NtCs7bzfDg8Kx2o_10nexus_core3walNtB6_3Wal7recover0B8_
FN:421,_RNvNtNtCs7bzfDg8Kx2o_10nexus_core3wal5tests15create_test_wal
FN:466,_RNvNtNtCs7bzfDg8Kx2o_10nexus_core3wal5testss_10test_flush
FN:772,_RNvNtNtCs7bzfDg8Kx2o_10nexus_core3wal5testss_10test_stats
FN:597,_RNvNtNtCs7bzfDg8Kx2o_10nexus_core3wal5testss_13test_truncate
FN:482,_RNvNtNtCs7bzfDg8Kx2o_10nexus_core3wal5testss_15test_checkpoint
FN:757,_RNvNtNtCs7bzfDg8Kx2o_10nexus_core3wal5testss_16test_entry_epoch
FN:742,_RNvNtNtCs7bzfDg8Kx2o_10nexus_core3wal5testss_16test_entry_tx_id
FN:579,_RNvNtNtCs7bzfDg8Kx2o_10nexus_core3wal5testss_16test_entry_types
FN:436,_RNvNtNtCs7bzfDg8Kx2o_10nexus_core3wal5testss_17test_append_entry
FN:429,_RNvNtNtCs7bzfDg8Kx2o_10nexus_core3wal5testss_17test_wal_creation
FN:787,_RNvNtNtCs7bzfDg8Kx2o_10nexus_core3wal5testss_18test_large_payload
FN:504,_RNvNtNtCs7bzfDg8Kx2o_10nexus_core3wal5testss_22test_recover_empty_wal
FN:512,_RNvNtNtCs7bzfDg8Kx2o_10nexus_core3wal5testss_25test_recover_with_entries
FN:708,_RNvNtNtCs7bzfDg8Kx2o_10nexus_core3wal5testss_25test_transaction_sequence
FN:451,_RNvNtNtCs7bzfDg8Kx2o_10nexus_core3wal5testss_28test_append_multiple_entries
FN:675,_RNvNtNtCs7bzfDg8Kx2o_10nexus_core3wal5testss_29test_crc_corruption_detection
FN:620,_RNvNtNtCs7bzfDg8Kx2o_10nexus_core3wal5testss_34test_all_entry_types_serialization
FN:131,_RNvMNtCs7bzfDg8Kx2o_10nexus_core3walNtB2_8WalEntry10entry_type
FN:157,_RNvMNtCs7bzfDg8Kx2o_10nexus_core3walNtB2_8WalEntry5epoch
FN:147,_RNvMNtCs7bzfDg8Kx2o_10nexus_core3walNtB2_8WalEntry5tx_id
FN:286,_RNvMs_NtCs7bzfDg8Kx2o_10nexus_core3walNtB4_3Wal10checkpoint
FN:405,_RNvMs_NtCs7bzfDg8Kx2o_10nexus_core3walNtB4_3Wal11entry_count
FN:384,_RNvMs_NtCs7bzfDg8Kx2o_10nexus_core3walNtB4_3Wal12health_check
FN:278,_RNvMs_NtCs7bzfDg8Kx2o_10nexus_core3walNtB4_3Wal5flush
FN:359,_RNvMs_NtCs7bzfDg8Kx2o_10nexus_core3walNtB4_3Wal5stats
FN:246,_RNvMs_NtCs7bzfDg8Kx2o_10nexus_core3walNtB4_3Wal6append
FN:300,_RNvMs_NtCs7bzfDg8Kx2o_10nexus_core3walNtB4_3Wal7recover
FN:374,_RNvMs_NtCs7bzfDg8Kx2o_10nexus_core3walNtB4_3Wal8truncate
FNDA:26,_RINvMs_NtCs4yQ6d7adrZY_10nexus_core3walNtB5_3Wal3newNtNtCslLCvXJZBaqX_3std4path7PathBufEB7_
FNDA:0,_RINvMs_NtCs4yQ6d7adrZY_10nexus_core3walNtB5_3Wal3newReEB7_
FNDA:0,_RNCNvMs_NtCs4yQ6d7adrZY_10nexus_core3walNtB6_3Wal6append0B8_
FNDA:0,_RNCNvMs_NtCs4yQ6d7adrZY_10nexus_core3walNtB6_3Wal7recover0B8_
FNDA:35,_RNvMNtCs4yQ6d7adrZY_10nexus_core3walNtB2_8WalEntry10entry_type
FNDA:1,_RNvMs_NtCs4yQ6d7adrZY_10nexus_core3walNtB4_3Wal10checkpoint
FNDA:22,_RNvMs_NtCs4yQ6d7adrZY_10nexus_core3walNtB4_3Wal11entry_count
FNDA:4,_RNvMs_NtCs4yQ6d7adrZY_10nexus_core3walNtB4_3Wal12health_check
FNDA:1,_RNvMs_NtCs4yQ6d7adrZY_10nexus_core3walNtB4_3Wal4path
FNDA:4,_RNvMs_NtCs4yQ6d7adrZY_10nexus_core3walNtB4_3Wal5flush
FNDA:3,_RNvMs_NtCs4yQ6d7adrZY_10nexus_core3walNtB4_3Wal5stats
FNDA:35,_RNvMs_NtCs4yQ6d7adrZY_10nexus_core3walNtB4_3Wal6append
FNDA:2,_RNvMs_NtCs4yQ6d7adrZY_10nexus_core3walNtB4_3Wal7recover
FNDA:1,_RNvMs_NtCs4yQ6d7adrZY_10nexus_core3walNtB4_3Wal8truncate
FNDA:2,_RNvMs_NtCs4yQ6d7adrZY_10nexus_core3walNtB4_3Wal9file_size
FNDA:0,_RNvXs0_NtCs4yQ6d7adrZY_10nexus_core3walNtB5_3WalNtNtCs9Kp62OsN3pY_4core7default7Default7default
FNDA:1,_RINvMs_NtCs4yQ6d7adrZY_10nexus_core3walNtB5_3Wal3newRNtNtCslLCvXJZBaqX_3std4path4PathECsdSFlqrxOIyu_11integration
FNDA:2,_RINvMs_NtCs4yQ6d7adrZY_10nexus_core3walNtB5_3Wal3newRNtNtCslLCvXJZBaqX_3std4path7PathBufECsdSFlqrxOIyu_11integration
FNDA:0,_RNvMs_NtCs7bzfDg8Kx2o_10nexus_core3walNtB4_3Wal4path
FNDA:0,_RNvMs_NtCs7bzfDg8Kx2o_10nexus_core3walNtB4_3Wal9file_size
FNDA:0,_RNvXs0_NtCs7bzfDg8Kx2o_10nexus_core3walNtB5_3WalNtNtCs9Kp62OsN3pY_4core7default7Default7default
FNDA:16,_RINvMs_NtCs7bzfDg8Kx2o_10nexus_core3walNtB5_3Wal3newNtNtCslLCvXJZBaqX_3std4path7PathBufEB7_
FNDA:17,_RINvMs_NtCs7bzfDg8Kx2o_10nexus_core3walNtB5_3Wal3newRNtNtCslLCvXJZBaqX_3std4path7PathBufEB7_
FNDA:0,_RNCNvMs_NtCs7bzfDg8Kx2o_10nexus_core3walNtB6_3Wal6append0B8_
FNDA:0,_RNCNvMs_NtCs7bzfDg8Kx2o_10nexus_core3walNtB6_3Wal7recover0B8_
FNDA:11,_RNvNtNtCs7bzfDg8Kx2o_10nexus_core3wal5tests15create_test_wal
FNDA:1,_RNvNtNtCs7bzfDg8Kx2o_10nexus_core3wal5testss_10test_flush
FNDA:1,_RNvNtNtCs7bzfDg8Kx2o_10nexus_core3wal5testss_10test_stats
FNDA:1,_RNvNtNtCs7bzfDg8Kx2o_10nexus_core3wal5testss_13test_truncate
FNDA:1,_RNvNtNtCs7bzfDg8Kx2o_10nexus_core3wal5testss_15test_checkpoint
FNDA:1,_RNvNtNtCs7bzfDg8Kx2o_10nexus_core3wal5testss_16test_entry_epoch
FNDA:1,_RNvNtNtCs7bzfDg8Kx2o_10nexus_core3wal5testss_16test_entry_tx_id
FNDA:1,_RNvNtNtCs7bzfDg8Kx2o_10nexus_core3wal5testss_16test_entry_types
FNDA:1,_RNvNtNtCs7bzfDg8Kx2o_10nexus_core3wal5testss_17test_append_entry
FNDA:1,_RNvNtNtCs7bzfDg8Kx2o_10nexus_core3wal5testss_17test_wal_creation
FNDA:1,_RNvNtNtCs7bzfDg8Kx2o_10nexus_core3wal5testss_18test_large_payload
FNDA:1,_RNvNtNtCs7bzfDg8Kx2o_10nexus_core3wal5testss_22test_recover_empty_wal
FNDA:1,_RNvNtNtCs7bzfDg8Kx2o_10nexus_core3wal5testss_25test_recover_with_entries
FNDA:1,_RNvNtNtCs7bzfDg8Kx2o_10nexus_core3wal5testss_25test_transaction_sequence
FNDA:1,_RNvNtNtCs7bzfDg8Kx2o_10nexus_core3wal5testss_28test_append_multiple_entries
FNDA:1,_RNvNtNtCs7bzfDg8Kx2o_10nexus_core3wal5testss_29test_crc_corruption_detection
FNDA:1,_RNvNtNtCs7bzfDg8Kx2o_10nexus_core3wal5testss_34test_all_entry_types_serialization
FNDA:51,_RNvMNtCs7bzfDg8Kx2o_10nexus_core3walNtB2_8WalEntry10entry_type
FNDA:2,_RNvMNtCs7bzfDg8Kx2o_10nexus_core3walNtB2_8WalEntry5epoch
FNDA:2,_RNvMNtCs7bzfDg8Kx2o_10nexus_core3walNtB2_8WalEntry5tx_id
FNDA:1,_RNvMs_NtCs7bzfDg8Kx2o_10nexus_core3walNtB4_3Wal10checkpoint
FNDA:6,_RNvMs_NtCs7bzfDg8Kx2o_10nexus_core3walNtB4_3Wal11entry_count
FNDA:1,_RNvMs_NtCs7bzfDg8Kx2o_10nexus_core3walNtB4_3Wal12health_check
